Archive member included to satisfy reference by file (symbol)

../../../libs\libasr.a(asr_top_outside_port.o)
                              build/objs/command_info.o (symbol from plugin) (asrtop_asr_system_create_model)
../../../libs\libasr.a(decoder_inner_port_rpmsg.o)
                              build/objs/main.o (symbol from plugin) (decoder_port_inner_rpmsg_init)
../../../libs\libasr.a(decoder_manage.o)
                              decoder_inner_port_rpmsg.o (symbol from plugin) (model_parameter_info_clear)
../../../libs\libasr.a(dynmic_confidence.o)
                              build/objs/system_msg_deal.o (symbol from plugin) (dynmic_confidence_config)
../../../libs\libasr.a(dnn_outside_port.o)
                              decoder_manage.o (symbol from plugin) (get_dnn_version)
../../../libs\libasr.a(flash_manage_outside_port.o)
                              build/objs/ci_flash_data_info.o (symbol from plugin) (is_flash_power_off)
../../../libs\libasr.a(vad_fe_outside_port.o)
                              decoder_manage.o (symbol from plugin) (cmvn_update_mean_var_config)
../../../libs\libasr.a(asr_dealwith_result.o)
                              decoder_manage.o (symbol from plugin) (app_deal_asr_reuslt_callback)
../../../libs\libasr.a(asrbest_result.o)
                              decoder_manage.o (symbol from plugin) (asrbest_result_init)
../../../libs\libasr.a(cmp_twice_confidence.o)
                              decoder_manage.o (symbol from plugin) (cmp_twice_init)
../../../libs\libasr.a(decide_result.o)
                              decoder_manage.o (symbol from plugin) (decide_init)
../../../libs\libeq.a(ci_eq.o)
                              build/objs/system_msg_deal.o (symbol from plugin) (ci_eq_deal)
../../../libs\libeq.a(ci_eq_coef.o)
                              ci_eq.o (symbol from plugin) (eq_coef_highfreq)
../../../libs\libnewlib_port.a(sbrk.o)
                              build/objs/platform_config.o (symbol from plugin) (sbrk)
../../../libs\libfreertos_port.a(port.o)
                              build/objs/event_groups.o (symbol from plugin) (vPortSetMSIPInt)
../../../libs\libfreertos_port.a(portasm.o)
                              port.o (symbol from plugin) (vPortYield)
../../../libs\libdsu.a(ci130x_dsu.o)
                              build/objs/main.o (symbol from plugin) (dsu_init)
../../../libs\libdsu.a(ci130x_mailbox.o)
                              build/objs/platform_config.o (symbol from plugin) (mailbox_preinit)
../../../libs\libdsu.a(ci130x_scu.o)
                              build/objs/ci130x_init.o (symbol from plugin) (scu_unlock_system_config)
../../../libs\libdsu.a(ci130x_efuse.o)
                              ci130x_dsu.o (symbol from plugin) (efuse_unlock)
../../../libs\libdsu.a(ci130x_dpmu.o)
                              build/objs/ci130x_init.o (symbol from plugin) (dpmu_unlock_cfg_config)
../../../libs\libdsu.a(ci130x_nuclear_com.o)
                              build/objs/flash_control_inner_port.o (symbol from plugin) (nuclear_com_registe_serve)
../../../libs\libdsu.a(remote_api_for_host.o)
                              build/objs/main.o (symbol from plugin) (rc_caller_set_ssp_registe)
d:/software/yuyin/qiqiyinqiluntai/riscv-nuclei-elf-gcc-9.2.0.0/gcc_fix_raissrc/bin/../lib/gcc/riscv-nuclei-elf/9.2.0/rv32imafc/ilp32f\libgcc.a(save-restore.o)
                              ../../../libs\libnewlib_port.a(sbrk.o) (__riscv_save_4)
d:/software/yuyin/qiqiyinqiluntai/riscv-nuclei-elf-gcc-9.2.0.0/gcc_fix_raissrc/bin/../lib/gcc/riscv-nuclei-elf/9.2.0/../../../../riscv-nuclei-elf/lib/rv32imafc/ilp32f\libg_nano.a(lib_a-atexit.o)
                              build/objs/ci130x_startup.o (atexit)
d:/software/yuyin/qiqiyinqiluntai/riscv-nuclei-elf-gcc-9.2.0.0/gcc_fix_raissrc/bin/../lib/gcc/riscv-nuclei-elf/9.2.0/../../../../riscv-nuclei-elf/lib/rv32imafc/ilp32f\libg_nano.a(lib_a-exit.o)
                              build/objs/ci130x_startup.o (exit)
d:/software/yuyin/qiqiyinqiluntai/riscv-nuclei-elf-gcc-9.2.0.0/gcc_fix_raissrc/bin/../lib/gcc/riscv-nuclei-elf/9.2.0/../../../../riscv-nuclei-elf/lib/rv32imafc/ilp32f\libg_nano.a(lib_a-fini.o)
                              build/objs/ci130x_startup.o (__libc_fini_array)
d:/software/yuyin/qiqiyinqiluntai/riscv-nuclei-elf-gcc-9.2.0.0/gcc_fix_raissrc/bin/../lib/gcc/riscv-nuclei-elf/9.2.0/../../../../riscv-nuclei-elf/lib/rv32imafc/ilp32f\libg_nano.a(lib_a-impure.o)
                              d:/software/yuyin/qiqiyinqiluntai/riscv-nuclei-elf-gcc-9.2.0.0/gcc_fix_raissrc/bin/../lib/gcc/riscv-nuclei-elf/9.2.0/../../../../riscv-nuclei-elf/lib/rv32imafc/ilp32f\libg_nano.a(lib_a-exit.o) (_global_impure_ptr)
d:/software/yuyin/qiqiyinqiluntai/riscv-nuclei-elf-gcc-9.2.0.0/gcc_fix_raissrc/bin/../lib/gcc/riscv-nuclei-elf/9.2.0/../../../../riscv-nuclei-elf/lib/rv32imafc/ilp32f\libg_nano.a(lib_a-init.o)
                              build/objs/ci130x_startup.o (__libc_init_array)
d:/software/yuyin/qiqiyinqiluntai/riscv-nuclei-elf-gcc-9.2.0.0/gcc_fix_raissrc/bin/../lib/gcc/riscv-nuclei-elf/9.2.0/../../../../riscv-nuclei-elf/lib/rv32imafc/ilp32f\libg_nano.a(lib_a-rand.o)
                              build/objs/command_info.o (symbol from plugin) (rand)
d:/software/yuyin/qiqiyinqiluntai/riscv-nuclei-elf-gcc-9.2.0.0/gcc_fix_raissrc/bin/../lib/gcc/riscv-nuclei-elf/9.2.0/../../../../riscv-nuclei-elf/lib/rv32imafc/ilp32f\libg_nano.a(lib_a-__atexit.o)
                              d:/software/yuyin/qiqiyinqiluntai/riscv-nuclei-elf-gcc-9.2.0.0/gcc_fix_raissrc/bin/../lib/gcc/riscv-nuclei-elf/9.2.0/../../../../riscv-nuclei-elf/lib/rv32imafc/ilp32f\libg_nano.a(lib_a-atexit.o) (__register_exitproc)
d:/software/yuyin/qiqiyinqiluntai/riscv-nuclei-elf-gcc-9.2.0.0/gcc_fix_raissrc/bin/../lib/gcc/riscv-nuclei-elf/9.2.0/../../../../riscv-nuclei-elf/lib/rv32imafc/ilp32f\libg_nano.a(lib_a-__call_atexit.o)
                              d:/software/yuyin/qiqiyinqiluntai/riscv-nuclei-elf-gcc-9.2.0.0/gcc_fix_raissrc/bin/../lib/gcc/riscv-nuclei-elf/9.2.0/../../../../riscv-nuclei-elf/lib/rv32imafc/ilp32f\libg_nano.a(lib_a-__atexit.o) (__call_exitprocs)
d:/software/yuyin/qiqiyinqiluntai/riscv-nuclei-elf-gcc-9.2.0.0/gcc_fix_raissrc/bin/../lib/gcc/riscv-nuclei-elf/9.2.0/../../../../riscv-nuclei-elf/lib/rv32imafc/ilp32f\libgloss_nano.a(sys_exit.o)
                              d:/software/yuyin/qiqiyinqiluntai/riscv-nuclei-elf-gcc-9.2.0.0/gcc_fix_raissrc/bin/../lib/gcc/riscv-nuclei-elf/9.2.0/../../../../riscv-nuclei-elf/lib/rv32imafc/ilp32f\libg_nano.a(lib_a-exit.o) (_exit)
d:/software/yuyin/qiqiyinqiluntai/riscv-nuclei-elf-gcc-9.2.0.0/gcc_fix_raissrc/bin/../lib/gcc/riscv-nuclei-elf/9.2.0/../../../../riscv-nuclei-elf/lib/rv32imafc/ilp32f\libc_nano.a(lib_a-errno.o)
                              d:/software/yuyin/qiqiyinqiluntai/riscv-nuclei-elf-gcc-9.2.0.0/gcc_fix_raissrc/bin/../lib/gcc/riscv-nuclei-elf/9.2.0/../../../../riscv-nuclei-elf/lib/rv32imafc/ilp32f\libgloss_nano.a(sys_exit.o) (__errno)
d:/software/yuyin/qiqiyinqiluntai/riscv-nuclei-elf-gcc-9.2.0.0/gcc_fix_raissrc/bin/../lib/gcc/riscv-nuclei-elf/9.2.0/../../../../riscv-nuclei-elf/lib/rv32imafc/ilp32f\libm.a(lib_a-s_floor.o)
                              C:\TMP\nn_denoise_rtc_sample.elf.UaA6UP.ltrans0.ltrans.o (floor)
d:/software/yuyin/qiqiyinqiluntai/riscv-nuclei-elf-gcc-9.2.0.0/gcc_fix_raissrc/bin/../lib/gcc/riscv-nuclei-elf/9.2.0/../../../../riscv-nuclei-elf/lib/rv32imafc/ilp32f\libm.a(lib_a-w_acos.o)
                              C:\TMP\nn_denoise_rtc_sample.elf.UaA6UP.ltrans0.ltrans.o (acos)
d:/software/yuyin/qiqiyinqiluntai/riscv-nuclei-elf-gcc-9.2.0.0/gcc_fix_raissrc/bin/../lib/gcc/riscv-nuclei-elf/9.2.0/../../../../riscv-nuclei-elf/lib/rv32imafc/ilp32f\libm.a(lib_a-w_exp.o)
                              C:\TMP\nn_denoise_rtc_sample.elf.UaA6UP.ltrans0.ltrans.o (exp)
d:/software/yuyin/qiqiyinqiluntai/riscv-nuclei-elf-gcc-9.2.0.0/gcc_fix_raissrc/bin/../lib/gcc/riscv-nuclei-elf/9.2.0/../../../../riscv-nuclei-elf/lib/rv32imafc/ilp32f\libm.a(lib_a-wf_pow.o)
                              C:\TMP\nn_denoise_rtc_sample.elf.UaA6UP.ltrans0.ltrans.o (powf)
d:/software/yuyin/qiqiyinqiluntai/riscv-nuclei-elf-gcc-9.2.0.0/gcc_fix_raissrc/bin/../lib/gcc/riscv-nuclei-elf/9.2.0/../../../../riscv-nuclei-elf/lib/rv32imafc/ilp32f\libm.a(lib_a-w_log.o)
                              C:\TMP\nn_denoise_rtc_sample.elf.UaA6UP.ltrans0.ltrans.o (log)
d:/software/yuyin/qiqiyinqiluntai/riscv-nuclei-elf-gcc-9.2.0.0/gcc_fix_raissrc/bin/../lib/gcc/riscv-nuclei-elf/9.2.0/../../../../riscv-nuclei-elf/lib/rv32imafc/ilp32f\libm.a(lib_a-w_sqrt.o)
                              C:\TMP\nn_denoise_rtc_sample.elf.UaA6UP.ltrans0.ltrans.o (sqrt)
d:/software/yuyin/qiqiyinqiluntai/riscv-nuclei-elf-gcc-9.2.0.0/gcc_fix_raissrc/bin/../lib/gcc/riscv-nuclei-elf/9.2.0/../../../../riscv-nuclei-elf/lib/rv32imafc/ilp32f\libm.a(lib_a-e_acos.o)
                              d:/software/yuyin/qiqiyinqiluntai/riscv-nuclei-elf-gcc-9.2.0.0/gcc_fix_raissrc/bin/../lib/gcc/riscv-nuclei-elf/9.2.0/../../../../riscv-nuclei-elf/lib/rv32imafc/ilp32f\libm.a(lib_a-w_acos.o) (__ieee754_acos)
d:/software/yuyin/qiqiyinqiluntai/riscv-nuclei-elf-gcc-9.2.0.0/gcc_fix_raissrc/bin/../lib/gcc/riscv-nuclei-elf/9.2.0/../../../../riscv-nuclei-elf/lib/rv32imafc/ilp32f\libm.a(lib_a-e_exp.o)
                              d:/software/yuyin/qiqiyinqiluntai/riscv-nuclei-elf-gcc-9.2.0.0/gcc_fix_raissrc/bin/../lib/gcc/riscv-nuclei-elf/9.2.0/../../../../riscv-nuclei-elf/lib/rv32imafc/ilp32f\libm.a(lib_a-w_exp.o) (__ieee754_exp)
d:/software/yuyin/qiqiyinqiluntai/riscv-nuclei-elf-gcc-9.2.0.0/gcc_fix_raissrc/bin/../lib/gcc/riscv-nuclei-elf/9.2.0/../../../../riscv-nuclei-elf/lib/rv32imafc/ilp32f\libm.a(lib_a-ef_pow.o)
                              d:/software/yuyin/qiqiyinqiluntai/riscv-nuclei-elf-gcc-9.2.0.0/gcc_fix_raissrc/bin/../lib/gcc/riscv-nuclei-elf/9.2.0/../../../../riscv-nuclei-elf/lib/rv32imafc/ilp32f\libm.a(lib_a-wf_pow.o) (__ieee754_powf)
d:/software/yuyin/qiqiyinqiluntai/riscv-nuclei-elf-gcc-9.2.0.0/gcc_fix_raissrc/bin/../lib/gcc/riscv-nuclei-elf/9.2.0/../../../../riscv-nuclei-elf/lib/rv32imafc/ilp32f\libm.a(lib_a-ef_sqrt.o)
                              d:/software/yuyin/qiqiyinqiluntai/riscv-nuclei-elf-gcc-9.2.0.0/gcc_fix_raissrc/bin/../lib/gcc/riscv-nuclei-elf/9.2.0/../../../../riscv-nuclei-elf/lib/rv32imafc/ilp32f\libm.a(lib_a-ef_pow.o) (__ieee754_sqrtf)
d:/software/yuyin/qiqiyinqiluntai/riscv-nuclei-elf-gcc-9.2.0.0/gcc_fix_raissrc/bin/../lib/gcc/riscv-nuclei-elf/9.2.0/../../../../riscv-nuclei-elf/lib/rv32imafc/ilp32f\libm.a(lib_a-e_log.o)
                              d:/software/yuyin/qiqiyinqiluntai/riscv-nuclei-elf-gcc-9.2.0.0/gcc_fix_raissrc/bin/../lib/gcc/riscv-nuclei-elf/9.2.0/../../../../riscv-nuclei-elf/lib/rv32imafc/ilp32f\libm.a(lib_a-w_log.o) (__ieee754_log)
d:/software/yuyin/qiqiyinqiluntai/riscv-nuclei-elf-gcc-9.2.0.0/gcc_fix_raissrc/bin/../lib/gcc/riscv-nuclei-elf/9.2.0/../../../../riscv-nuclei-elf/lib/rv32imafc/ilp32f\libm.a(lib_a-e_sqrt.o)
                              d:/software/yuyin/qiqiyinqiluntai/riscv-nuclei-elf-gcc-9.2.0.0/gcc_fix_raissrc/bin/../lib/gcc/riscv-nuclei-elf/9.2.0/../../../../riscv-nuclei-elf/lib/rv32imafc/ilp32f\libm.a(lib_a-w_sqrt.o) (__ieee754_sqrt)
d:/software/yuyin/qiqiyinqiluntai/riscv-nuclei-elf-gcc-9.2.0.0/gcc_fix_raissrc/bin/../lib/gcc/riscv-nuclei-elf/9.2.0/../../../../riscv-nuclei-elf/lib/rv32imafc/ilp32f\libm.a(lib_a-s_fabs.o)
                              d:/software/yuyin/qiqiyinqiluntai/riscv-nuclei-elf-gcc-9.2.0.0/gcc_fix_raissrc/bin/../lib/gcc/riscv-nuclei-elf/9.2.0/../../../../riscv-nuclei-elf/lib/rv32imafc/ilp32f\libm.a(lib_a-w_acos.o) (fabs)
d:/software/yuyin/qiqiyinqiluntai/riscv-nuclei-elf-gcc-9.2.0.0/gcc_fix_raissrc/bin/../lib/gcc/riscv-nuclei-elf/9.2.0/../../../../riscv-nuclei-elf/lib/rv32imafc/ilp32f\libm.a(lib_a-sf_finite.o)
                              d:/software/yuyin/qiqiyinqiluntai/riscv-nuclei-elf-gcc-9.2.0.0/gcc_fix_raissrc/bin/../lib/gcc/riscv-nuclei-elf/9.2.0/../../../../riscv-nuclei-elf/lib/rv32imafc/ilp32f\libm.a(lib_a-wf_pow.o) (finitef)
d:/software/yuyin/qiqiyinqiluntai/riscv-nuclei-elf-gcc-9.2.0.0/gcc_fix_raissrc/bin/../lib/gcc/riscv-nuclei-elf/9.2.0/../../../../riscv-nuclei-elf/lib/rv32imafc/ilp32f\libm.a(lib_a-s_finite.o)
                              d:/software/yuyin/qiqiyinqiluntai/riscv-nuclei-elf-gcc-9.2.0.0/gcc_fix_raissrc/bin/../lib/gcc/riscv-nuclei-elf/9.2.0/../../../../riscv-nuclei-elf/lib/rv32imafc/ilp32f\libm.a(lib_a-w_exp.o) (finite)
d:/software/yuyin/qiqiyinqiluntai/riscv-nuclei-elf-gcc-9.2.0.0/gcc_fix_raissrc/bin/../lib/gcc/riscv-nuclei-elf/9.2.0/../../../../riscv-nuclei-elf/lib/rv32imafc/ilp32f\libm.a(lib_a-sf_nan.o)
                              d:/software/yuyin/qiqiyinqiluntai/riscv-nuclei-elf-gcc-9.2.0.0/gcc_fix_raissrc/bin/../lib/gcc/riscv-nuclei-elf/9.2.0/../../../../riscv-nuclei-elf/lib/rv32imafc/ilp32f\libm.a(lib_a-ef_pow.o) (nanf)
d:/software/yuyin/qiqiyinqiluntai/riscv-nuclei-elf-gcc-9.2.0.0/gcc_fix_raissrc/bin/../lib/gcc/riscv-nuclei-elf/9.2.0/../../../../riscv-nuclei-elf/lib/rv32imafc/ilp32f\libm.a(lib_a-sf_rint.o)
                              d:/software/yuyin/qiqiyinqiluntai/riscv-nuclei-elf-gcc-9.2.0.0/gcc_fix_raissrc/bin/../lib/gcc/riscv-nuclei-elf/9.2.0/../../../../riscv-nuclei-elf/lib/rv32imafc/ilp32f\libm.a(lib_a-wf_pow.o) (rintf)
d:/software/yuyin/qiqiyinqiluntai/riscv-nuclei-elf-gcc-9.2.0.0/gcc_fix_raissrc/bin/../lib/gcc/riscv-nuclei-elf/9.2.0/../../../../riscv-nuclei-elf/lib/rv32imafc/ilp32f\libm.a(lib_a-sf_scalbn.o)
                              d:/software/yuyin/qiqiyinqiluntai/riscv-nuclei-elf-gcc-9.2.0.0/gcc_fix_raissrc/bin/../lib/gcc/riscv-nuclei-elf/9.2.0/../../../../riscv-nuclei-elf/lib/rv32imafc/ilp32f\libm.a(lib_a-ef_pow.o) (scalbnf)
d:/software/yuyin/qiqiyinqiluntai/riscv-nuclei-elf-gcc-9.2.0.0/gcc_fix_raissrc/bin/../lib/gcc/riscv-nuclei-elf/9.2.0/../../../../riscv-nuclei-elf/lib/rv32imafc/ilp32f\libm.a(lib_a-s_lib_ver.o)
                              d:/software/yuyin/qiqiyinqiluntai/riscv-nuclei-elf-gcc-9.2.0.0/gcc_fix_raissrc/bin/../lib/gcc/riscv-nuclei-elf/9.2.0/../../../../riscv-nuclei-elf/lib/rv32imafc/ilp32f\libm.a(lib_a-w_acos.o) (__fdlib_version)
d:/software/yuyin/qiqiyinqiluntai/riscv-nuclei-elf-gcc-9.2.0.0/gcc_fix_raissrc/bin/../lib/gcc/riscv-nuclei-elf/9.2.0/../../../../riscv-nuclei-elf/lib/rv32imafc/ilp32f\libm.a(lib_a-s_matherr.o)
                              d:/software/yuyin/qiqiyinqiluntai/riscv-nuclei-elf-gcc-9.2.0.0/gcc_fix_raissrc/bin/../lib/gcc/riscv-nuclei-elf/9.2.0/../../../../riscv-nuclei-elf/lib/rv32imafc/ilp32f\libm.a(lib_a-w_acos.o) (matherr)
d:/software/yuyin/qiqiyinqiluntai/riscv-nuclei-elf-gcc-9.2.0.0/gcc_fix_raissrc/bin/../lib/gcc/riscv-nuclei-elf/9.2.0/../../../../riscv-nuclei-elf/lib/rv32imafc/ilp32f\libm.a(lib_a-s_nan.o)
                              d:/software/yuyin/qiqiyinqiluntai/riscv-nuclei-elf-gcc-9.2.0.0/gcc_fix_raissrc/bin/../lib/gcc/riscv-nuclei-elf/9.2.0/../../../../riscv-nuclei-elf/lib/rv32imafc/ilp32f\libm.a(lib_a-w_acos.o) (nan)
d:/software/yuyin/qiqiyinqiluntai/riscv-nuclei-elf-gcc-9.2.0.0/gcc_fix_raissrc/bin/../lib/gcc/riscv-nuclei-elf/9.2.0/../../../../riscv-nuclei-elf/lib/rv32imafc/ilp32f\libm.a(lib_a-sf_copysign.o)
                              d:/software/yuyin/qiqiyinqiluntai/riscv-nuclei-elf-gcc-9.2.0.0/gcc_fix_raissrc/bin/../lib/gcc/riscv-nuclei-elf/9.2.0/../../../../riscv-nuclei-elf/lib/rv32imafc/ilp32f\libm.a(lib_a-sf_scalbn.o) (copysignf)
d:/software/yuyin/qiqiyinqiluntai/riscv-nuclei-elf-gcc-9.2.0.0/gcc_fix_raissrc/bin/../lib/gcc/riscv-nuclei-elf/9.2.0/rv32imafc/ilp32f\libgcc.a(adddf3.o)
                              C:\TMP\nn_denoise_rtc_sample.elf.UaA6UP.ltrans0.ltrans.o (__adddf3)
d:/software/yuyin/qiqiyinqiluntai/riscv-nuclei-elf-gcc-9.2.0.0/gcc_fix_raissrc/bin/../lib/gcc/riscv-nuclei-elf/9.2.0/rv32imafc/ilp32f\libgcc.a(divdf3.o)
                              C:\TMP\nn_denoise_rtc_sample.elf.UaA6UP.ltrans0.ltrans.o (__divdf3)
d:/software/yuyin/qiqiyinqiluntai/riscv-nuclei-elf-gcc-9.2.0.0/gcc_fix_raissrc/bin/../lib/gcc/riscv-nuclei-elf/9.2.0/rv32imafc/ilp32f\libgcc.a(eqdf2.o)
                              d:/software/yuyin/qiqiyinqiluntai/riscv-nuclei-elf-gcc-9.2.0.0/gcc_fix_raissrc/bin/../lib/gcc/riscv-nuclei-elf/9.2.0/../../../../riscv-nuclei-elf/lib/rv32imafc/ilp32f\libm.a(lib_a-w_log.o) (__eqdf2)
d:/software/yuyin/qiqiyinqiluntai/riscv-nuclei-elf-gcc-9.2.0.0/gcc_fix_raissrc/bin/../lib/gcc/riscv-nuclei-elf/9.2.0/rv32imafc/ilp32f\libgcc.a(gedf2.o)
                              C:\TMP\nn_denoise_rtc_sample.elf.UaA6UP.ltrans0.ltrans.o (__gtdf2)
d:/software/yuyin/qiqiyinqiluntai/riscv-nuclei-elf-gcc-9.2.0.0/gcc_fix_raissrc/bin/../lib/gcc/riscv-nuclei-elf/9.2.0/rv32imafc/ilp32f\libgcc.a(ledf2.o)
                              C:\TMP\nn_denoise_rtc_sample.elf.UaA6UP.ltrans0.ltrans.o (__ltdf2)
d:/software/yuyin/qiqiyinqiluntai/riscv-nuclei-elf-gcc-9.2.0.0/gcc_fix_raissrc/bin/../lib/gcc/riscv-nuclei-elf/9.2.0/rv32imafc/ilp32f\libgcc.a(muldf3.o)
                              C:\TMP\nn_denoise_rtc_sample.elf.UaA6UP.ltrans0.ltrans.o (__muldf3)
d:/software/yuyin/qiqiyinqiluntai/riscv-nuclei-elf-gcc-9.2.0.0/gcc_fix_raissrc/bin/../lib/gcc/riscv-nuclei-elf/9.2.0/rv32imafc/ilp32f\libgcc.a(subdf3.o)
                              C:\TMP\nn_denoise_rtc_sample.elf.UaA6UP.ltrans0.ltrans.o (__subdf3)
d:/software/yuyin/qiqiyinqiluntai/riscv-nuclei-elf-gcc-9.2.0.0/gcc_fix_raissrc/bin/../lib/gcc/riscv-nuclei-elf/9.2.0/rv32imafc/ilp32f\libgcc.a(unorddf2.o)
                              d:/software/yuyin/qiqiyinqiluntai/riscv-nuclei-elf-gcc-9.2.0.0/gcc_fix_raissrc/bin/../lib/gcc/riscv-nuclei-elf/9.2.0/../../../../riscv-nuclei-elf/lib/rv32imafc/ilp32f\libm.a(lib_a-w_acos.o) (__unorddf2)
d:/software/yuyin/qiqiyinqiluntai/riscv-nuclei-elf-gcc-9.2.0.0/gcc_fix_raissrc/bin/../lib/gcc/riscv-nuclei-elf/9.2.0/rv32imafc/ilp32f\libgcc.a(fixdfsi.o)
                              C:\TMP\nn_denoise_rtc_sample.elf.UaA6UP.ltrans0.ltrans.o (__fixdfsi)
d:/software/yuyin/qiqiyinqiluntai/riscv-nuclei-elf-gcc-9.2.0.0/gcc_fix_raissrc/bin/../lib/gcc/riscv-nuclei-elf/9.2.0/rv32imafc/ilp32f\libgcc.a(floatsidf.o)
                              C:\TMP\nn_denoise_rtc_sample.elf.UaA6UP.ltrans0.ltrans.o (__floatsidf)
d:/software/yuyin/qiqiyinqiluntai/riscv-nuclei-elf-gcc-9.2.0.0/gcc_fix_raissrc/bin/../lib/gcc/riscv-nuclei-elf/9.2.0/rv32imafc/ilp32f\libgcc.a(extendsfdf2.o)
                              C:\TMP\nn_denoise_rtc_sample.elf.UaA6UP.ltrans0.ltrans.o (__extendsfdf2)
d:/software/yuyin/qiqiyinqiluntai/riscv-nuclei-elf-gcc-9.2.0.0/gcc_fix_raissrc/bin/../lib/gcc/riscv-nuclei-elf/9.2.0/rv32imafc/ilp32f\libgcc.a(truncdfsf2.o)
                              C:\TMP\nn_denoise_rtc_sample.elf.UaA6UP.ltrans0.ltrans.o (__truncdfsf2)
d:/software/yuyin/qiqiyinqiluntai/riscv-nuclei-elf-gcc-9.2.0.0/gcc_fix_raissrc/bin/../lib/gcc/riscv-nuclei-elf/9.2.0/rv32imafc/ilp32f\libgcc.a(_clzsi2.o)
                              d:/software/yuyin/qiqiyinqiluntai/riscv-nuclei-elf-gcc-9.2.0.0/gcc_fix_raissrc/bin/../lib/gcc/riscv-nuclei-elf/9.2.0/rv32imafc/ilp32f\libgcc.a(adddf3.o) (__clzsi2)
d:/software/yuyin/qiqiyinqiluntai/riscv-nuclei-elf-gcc-9.2.0.0/gcc_fix_raissrc/bin/../lib/gcc/riscv-nuclei-elf/9.2.0/rv32imafc/ilp32f\libgcc.a(_clz.o)
                              d:/software/yuyin/qiqiyinqiluntai/riscv-nuclei-elf-gcc-9.2.0.0/gcc_fix_raissrc/bin/../lib/gcc/riscv-nuclei-elf/9.2.0/rv32imafc/ilp32f\libgcc.a(_clzsi2.o) (__clz_tab)
d:/software/yuyin/qiqiyinqiluntai/riscv-nuclei-elf-gcc-9.2.0.0/gcc_fix_raissrc/bin/../lib/gcc/riscv-nuclei-elf/9.2.0/../../../../riscv-nuclei-elf/lib/rv32imafc/ilp32f\libg_nano.a(lib_a-calloc.o)
                              C:\TMP\nn_denoise_rtc_sample.elf.UaA6UP.ltrans0.ltrans.o (calloc)
d:/software/yuyin/qiqiyinqiluntai/riscv-nuclei-elf-gcc-9.2.0.0/gcc_fix_raissrc/bin/../lib/gcc/riscv-nuclei-elf/9.2.0/../../../../riscv-nuclei-elf/lib/rv32imafc/ilp32f\libg_nano.a(lib_a-fprintf.o)
                              C:\TMP\nn_denoise_rtc_sample.elf.UaA6UP.ltrans0.ltrans.o (fprintf)
d:/software/yuyin/qiqiyinqiluntai/riscv-nuclei-elf-gcc-9.2.0.0/gcc_fix_raissrc/bin/../lib/gcc/riscv-nuclei-elf/9.2.0/../../../../riscv-nuclei-elf/lib/rv32imafc/ilp32f\libg_nano.a(lib_a-nano-callocr.o)
                              d:/software/yuyin/qiqiyinqiluntai/riscv-nuclei-elf-gcc-9.2.0.0/gcc_fix_raissrc/bin/../lib/gcc/riscv-nuclei-elf/9.2.0/../../../../riscv-nuclei-elf/lib/rv32imafc/ilp32f\libg_nano.a(lib_a-calloc.o) (_calloc_r)
d:/software/yuyin/qiqiyinqiluntai/riscv-nuclei-elf-gcc-9.2.0.0/gcc_fix_raissrc/bin/../lib/gcc/riscv-nuclei-elf/9.2.0/../../../../riscv-nuclei-elf/lib/rv32imafc/ilp32f\libg_nano.a(lib_a-nano-mallocr.o)
                              d:/software/yuyin/qiqiyinqiluntai/riscv-nuclei-elf-gcc-9.2.0.0/gcc_fix_raissrc/bin/../lib/gcc/riscv-nuclei-elf/9.2.0/../../../../riscv-nuclei-elf/lib/rv32imafc/ilp32f\libg_nano.a(lib_a-nano-callocr.o) (_malloc_r)
d:/software/yuyin/qiqiyinqiluntai/riscv-nuclei-elf-gcc-9.2.0.0/gcc_fix_raissrc/bin/../lib/gcc/riscv-nuclei-elf/9.2.0/../../../../riscv-nuclei-elf/lib/rv32imafc/ilp32f\libg_nano.a(lib_a-nano-vfprintf.o)
                              d:/software/yuyin/qiqiyinqiluntai/riscv-nuclei-elf-gcc-9.2.0.0/gcc_fix_raissrc/bin/../lib/gcc/riscv-nuclei-elf/9.2.0/../../../../riscv-nuclei-elf/lib/rv32imafc/ilp32f\libg_nano.a(lib_a-fprintf.o) (_vfprintf_r)
d:/software/yuyin/qiqiyinqiluntai/riscv-nuclei-elf-gcc-9.2.0.0/gcc_fix_raissrc/bin/../lib/gcc/riscv-nuclei-elf/9.2.0/../../../../riscv-nuclei-elf/lib/rv32imafc/ilp32f\libg_nano.a(lib_a-realloc.o)
                              C:\TMP\nn_denoise_rtc_sample.elf.UaA6UP.ltrans1.ltrans.o (realloc)
d:/software/yuyin/qiqiyinqiluntai/riscv-nuclei-elf-gcc-9.2.0.0/gcc_fix_raissrc/bin/../lib/gcc/riscv-nuclei-elf/9.2.0/../../../../riscv-nuclei-elf/lib/rv32imafc/ilp32f\libg_nano.a(lib_a-sbrkr.o)
                              d:/software/yuyin/qiqiyinqiluntai/riscv-nuclei-elf-gcc-9.2.0.0/gcc_fix_raissrc/bin/../lib/gcc/riscv-nuclei-elf/9.2.0/../../../../riscv-nuclei-elf/lib/rv32imafc/ilp32f\libg_nano.a(lib_a-nano-mallocr.o) (_sbrk_r)
d:/software/yuyin/qiqiyinqiluntai/riscv-nuclei-elf-gcc-9.2.0.0/gcc_fix_raissrc/bin/../lib/gcc/riscv-nuclei-elf/9.2.0/../../../../riscv-nuclei-elf/lib/rv32imafc/ilp32f\libg_nano.a(lib_a-wbuf.o)
                              d:/software/yuyin/qiqiyinqiluntai/riscv-nuclei-elf-gcc-9.2.0.0/gcc_fix_raissrc/bin/../lib/gcc/riscv-nuclei-elf/9.2.0/../../../../riscv-nuclei-elf/lib/rv32imafc/ilp32f\libg_nano.a(lib_a-nano-vfprintf.o) (__swbuf_r)
d:/software/yuyin/qiqiyinqiluntai/riscv-nuclei-elf-gcc-9.2.0.0/gcc_fix_raissrc/bin/../lib/gcc/riscv-nuclei-elf/9.2.0/../../../../riscv-nuclei-elf/lib/rv32imafc/ilp32f\libg_nano.a(lib_a-wsetup.o)
                              d:/software/yuyin/qiqiyinqiluntai/riscv-nuclei-elf-gcc-9.2.0.0/gcc_fix_raissrc/bin/../lib/gcc/riscv-nuclei-elf/9.2.0/../../../../riscv-nuclei-elf/lib/rv32imafc/ilp32f\libg_nano.a(lib_a-nano-vfprintf.o) (__swsetup_r)
d:/software/yuyin/qiqiyinqiluntai/riscv-nuclei-elf-gcc-9.2.0.0/gcc_fix_raissrc/bin/../lib/gcc/riscv-nuclei-elf/9.2.0/../../../../riscv-nuclei-elf/lib/rv32imafc/ilp32f\libg_nano.a(lib_a-fflush.o)
                              d:/software/yuyin/qiqiyinqiluntai/riscv-nuclei-elf-gcc-9.2.0.0/gcc_fix_raissrc/bin/../lib/gcc/riscv-nuclei-elf/9.2.0/../../../../riscv-nuclei-elf/lib/rv32imafc/ilp32f\libg_nano.a(lib_a-wbuf.o) (_fflush_r)
d:/software/yuyin/qiqiyinqiluntai/riscv-nuclei-elf-gcc-9.2.0.0/gcc_fix_raissrc/bin/../lib/gcc/riscv-nuclei-elf/9.2.0/../../../../riscv-nuclei-elf/lib/rv32imafc/ilp32f\libg_nano.a(lib_a-findfp.o)
                              d:/software/yuyin/qiqiyinqiluntai/riscv-nuclei-elf-gcc-9.2.0.0/gcc_fix_raissrc/bin/../lib/gcc/riscv-nuclei-elf/9.2.0/../../../../riscv-nuclei-elf/lib/rv32imafc/ilp32f\libg_nano.a(lib_a-nano-vfprintf.o) (__sinit)
d:/software/yuyin/qiqiyinqiluntai/riscv-nuclei-elf-gcc-9.2.0.0/gcc_fix_raissrc/bin/../lib/gcc/riscv-nuclei-elf/9.2.0/../../../../riscv-nuclei-elf/lib/rv32imafc/ilp32f\libg_nano.a(lib_a-fvwrite.o)
                              d:/software/yuyin/qiqiyinqiluntai/riscv-nuclei-elf-gcc-9.2.0.0/gcc_fix_raissrc/bin/../lib/gcc/riscv-nuclei-elf/9.2.0/../../../../riscv-nuclei-elf/lib/rv32imafc/ilp32f\libg_nano.a(lib_a-nano-vfprintf.o) (__sfvwrite_r)
d:/software/yuyin/qiqiyinqiluntai/riscv-nuclei-elf-gcc-9.2.0.0/gcc_fix_raissrc/bin/../lib/gcc/riscv-nuclei-elf/9.2.0/../../../../riscv-nuclei-elf/lib/rv32imafc/ilp32f\libg_nano.a(lib_a-fwalk.o)
                              d:/software/yuyin/qiqiyinqiluntai/riscv-nuclei-elf-gcc-9.2.0.0/gcc_fix_raissrc/bin/../lib/gcc/riscv-nuclei-elf/9.2.0/../../../../riscv-nuclei-elf/lib/rv32imafc/ilp32f\libg_nano.a(lib_a-findfp.o) (_fwalk)
d:/software/yuyin/qiqiyinqiluntai/riscv-nuclei-elf-gcc-9.2.0.0/gcc_fix_raissrc/bin/../lib/gcc/riscv-nuclei-elf/9.2.0/../../../../riscv-nuclei-elf/lib/rv32imafc/ilp32f\libg_nano.a(lib_a-makebuf.o)
                              d:/software/yuyin/qiqiyinqiluntai/riscv-nuclei-elf-gcc-9.2.0.0/gcc_fix_raissrc/bin/../lib/gcc/riscv-nuclei-elf/9.2.0/../../../../riscv-nuclei-elf/lib/rv32imafc/ilp32f\libg_nano.a(lib_a-wsetup.o) (__smakebuf_r)
d:/software/yuyin/qiqiyinqiluntai/riscv-nuclei-elf-gcc-9.2.0.0/gcc_fix_raissrc/bin/../lib/gcc/riscv-nuclei-elf/9.2.0/../../../../riscv-nuclei-elf/lib/rv32imafc/ilp32f\libg_nano.a(lib_a-memchr.o)
                              d:/software/yuyin/qiqiyinqiluntai/riscv-nuclei-elf-gcc-9.2.0.0/gcc_fix_raissrc/bin/../lib/gcc/riscv-nuclei-elf/9.2.0/../../../../riscv-nuclei-elf/lib/rv32imafc/ilp32f\libg_nano.a(lib_a-nano-vfprintf.o) (memchr)
d:/software/yuyin/qiqiyinqiluntai/riscv-nuclei-elf-gcc-9.2.0.0/gcc_fix_raissrc/bin/../lib/gcc/riscv-nuclei-elf/9.2.0/../../../../riscv-nuclei-elf/lib/rv32imafc/ilp32f\libg_nano.a(lib_a-nano-freer.o)
                              d:/software/yuyin/qiqiyinqiluntai/riscv-nuclei-elf-gcc-9.2.0.0/gcc_fix_raissrc/bin/../lib/gcc/riscv-nuclei-elf/9.2.0/../../../../riscv-nuclei-elf/lib/rv32imafc/ilp32f\libg_nano.a(lib_a-wsetup.o) (_free_r)
d:/software/yuyin/qiqiyinqiluntai/riscv-nuclei-elf-gcc-9.2.0.0/gcc_fix_raissrc/bin/../lib/gcc/riscv-nuclei-elf/9.2.0/../../../../riscv-nuclei-elf/lib/rv32imafc/ilp32f\libg_nano.a(lib_a-nano-reallocr.o)
                              d:/software/yuyin/qiqiyinqiluntai/riscv-nuclei-elf-gcc-9.2.0.0/gcc_fix_raissrc/bin/../lib/gcc/riscv-nuclei-elf/9.2.0/../../../../riscv-nuclei-elf/lib/rv32imafc/ilp32f\libg_nano.a(lib_a-realloc.o) (_realloc_r)
d:/software/yuyin/qiqiyinqiluntai/riscv-nuclei-elf-gcc-9.2.0.0/gcc_fix_raissrc/bin/../lib/gcc/riscv-nuclei-elf/9.2.0/../../../../riscv-nuclei-elf/lib/rv32imafc/ilp32f\libg_nano.a(lib_a-nano-vfprintf_i.o)
                              d:/software/yuyin/qiqiyinqiluntai/riscv-nuclei-elf-gcc-9.2.0.0/gcc_fix_raissrc/bin/../lib/gcc/riscv-nuclei-elf/9.2.0/../../../../riscv-nuclei-elf/lib/rv32imafc/ilp32f\libg_nano.a(lib_a-nano-vfprintf.o) (_printf_i)
d:/software/yuyin/qiqiyinqiluntai/riscv-nuclei-elf-gcc-9.2.0.0/gcc_fix_raissrc/bin/../lib/gcc/riscv-nuclei-elf/9.2.0/../../../../riscv-nuclei-elf/lib/rv32imafc/ilp32f\libg_nano.a(lib_a-reent.o)
                              d:/software/yuyin/qiqiyinqiluntai/riscv-nuclei-elf-gcc-9.2.0.0/gcc_fix_raissrc/bin/../lib/gcc/riscv-nuclei-elf/9.2.0/../../../../riscv-nuclei-elf/lib/rv32imafc/ilp32f\libg_nano.a(lib_a-sbrkr.o) (errno)
d:/software/yuyin/qiqiyinqiluntai/riscv-nuclei-elf-gcc-9.2.0.0/gcc_fix_raissrc/bin/../lib/gcc/riscv-nuclei-elf/9.2.0/../../../../riscv-nuclei-elf/lib/rv32imafc/ilp32f\libg_nano.a(lib_a-stdio.o)
                              d:/software/yuyin/qiqiyinqiluntai/riscv-nuclei-elf-gcc-9.2.0.0/gcc_fix_raissrc/bin/../lib/gcc/riscv-nuclei-elf/9.2.0/../../../../riscv-nuclei-elf/lib/rv32imafc/ilp32f\libg_nano.a(lib_a-findfp.o) (__sread)
d:/software/yuyin/qiqiyinqiluntai/riscv-nuclei-elf-gcc-9.2.0.0/gcc_fix_raissrc/bin/../lib/gcc/riscv-nuclei-elf/9.2.0/../../../../riscv-nuclei-elf/lib/rv32imafc/ilp32f\libg_nano.a(lib_a-writer.o)
                              d:/software/yuyin/qiqiyinqiluntai/riscv-nuclei-elf-gcc-9.2.0.0/gcc_fix_raissrc/bin/../lib/gcc/riscv-nuclei-elf/9.2.0/../../../../riscv-nuclei-elf/lib/rv32imafc/ilp32f\libg_nano.a(lib_a-stdio.o) (_write_r)
d:/software/yuyin/qiqiyinqiluntai/riscv-nuclei-elf-gcc-9.2.0.0/gcc_fix_raissrc/bin/../lib/gcc/riscv-nuclei-elf/9.2.0/../../../../riscv-nuclei-elf/lib/rv32imafc/ilp32f\libg_nano.a(lib_a-closer.o)
                              d:/software/yuyin/qiqiyinqiluntai/riscv-nuclei-elf-gcc-9.2.0.0/gcc_fix_raissrc/bin/../lib/gcc/riscv-nuclei-elf/9.2.0/../../../../riscv-nuclei-elf/lib/rv32imafc/ilp32f\libg_nano.a(lib_a-stdio.o) (_close_r)
d:/software/yuyin/qiqiyinqiluntai/riscv-nuclei-elf-gcc-9.2.0.0/gcc_fix_raissrc/bin/../lib/gcc/riscv-nuclei-elf/9.2.0/../../../../riscv-nuclei-elf/lib/rv32imafc/ilp32f\libg_nano.a(lib_a-fstatr.o)
                              d:/software/yuyin/qiqiyinqiluntai/riscv-nuclei-elf-gcc-9.2.0.0/gcc_fix_raissrc/bin/../lib/gcc/riscv-nuclei-elf/9.2.0/../../../../riscv-nuclei-elf/lib/rv32imafc/ilp32f\libg_nano.a(lib_a-makebuf.o) (_fstat_r)
d:/software/yuyin/qiqiyinqiluntai/riscv-nuclei-elf-gcc-9.2.0.0/gcc_fix_raissrc/bin/../lib/gcc/riscv-nuclei-elf/9.2.0/../../../../riscv-nuclei-elf/lib/rv32imafc/ilp32f\libg_nano.a(lib_a-isattyr.o)
                              d:/software/yuyin/qiqiyinqiluntai/riscv-nuclei-elf-gcc-9.2.0.0/gcc_fix_raissrc/bin/../lib/gcc/riscv-nuclei-elf/9.2.0/../../../../riscv-nuclei-elf/lib/rv32imafc/ilp32f\libg_nano.a(lib_a-makebuf.o) (_isatty_r)
d:/software/yuyin/qiqiyinqiluntai/riscv-nuclei-elf-gcc-9.2.0.0/gcc_fix_raissrc/bin/../lib/gcc/riscv-nuclei-elf/9.2.0/../../../../riscv-nuclei-elf/lib/rv32imafc/ilp32f\libg_nano.a(lib_a-lseekr.o)
                              d:/software/yuyin/qiqiyinqiluntai/riscv-nuclei-elf-gcc-9.2.0.0/gcc_fix_raissrc/bin/../lib/gcc/riscv-nuclei-elf/9.2.0/../../../../riscv-nuclei-elf/lib/rv32imafc/ilp32f\libg_nano.a(lib_a-stdio.o) (_lseek_r)
d:/software/yuyin/qiqiyinqiluntai/riscv-nuclei-elf-gcc-9.2.0.0/gcc_fix_raissrc/bin/../lib/gcc/riscv-nuclei-elf/9.2.0/../../../../riscv-nuclei-elf/lib/rv32imafc/ilp32f\libg_nano.a(lib_a-nano-msizer.o)
                              d:/software/yuyin/qiqiyinqiluntai/riscv-nuclei-elf-gcc-9.2.0.0/gcc_fix_raissrc/bin/../lib/gcc/riscv-nuclei-elf/9.2.0/../../../../riscv-nuclei-elf/lib/rv32imafc/ilp32f\libg_nano.a(lib_a-nano-reallocr.o) (_malloc_usable_size_r)
d:/software/yuyin/qiqiyinqiluntai/riscv-nuclei-elf-gcc-9.2.0.0/gcc_fix_raissrc/bin/../lib/gcc/riscv-nuclei-elf/9.2.0/../../../../riscv-nuclei-elf/lib/rv32imafc/ilp32f\libg_nano.a(lib_a-readr.o)
                              d:/software/yuyin/qiqiyinqiluntai/riscv-nuclei-elf-gcc-9.2.0.0/gcc_fix_raissrc/bin/../lib/gcc/riscv-nuclei-elf/9.2.0/../../../../riscv-nuclei-elf/lib/rv32imafc/ilp32f\libg_nano.a(lib_a-stdio.o) (_read_r)
d:/software/yuyin/qiqiyinqiluntai/riscv-nuclei-elf-gcc-9.2.0.0/gcc_fix_raissrc/bin/../lib/gcc/riscv-nuclei-elf/9.2.0/../../../../riscv-nuclei-elf/lib/rv32imafc/ilp32f\libgloss_nano.a(sys_close.o)
                              d:/software/yuyin/qiqiyinqiluntai/riscv-nuclei-elf-gcc-9.2.0.0/gcc_fix_raissrc/bin/../lib/gcc/riscv-nuclei-elf/9.2.0/../../../../riscv-nuclei-elf/lib/rv32imafc/ilp32f\libg_nano.a(lib_a-closer.o) (_close)
d:/software/yuyin/qiqiyinqiluntai/riscv-nuclei-elf-gcc-9.2.0.0/gcc_fix_raissrc/bin/../lib/gcc/riscv-nuclei-elf/9.2.0/../../../../riscv-nuclei-elf/lib/rv32imafc/ilp32f\libgloss_nano.a(sys_fstat.o)
                              d:/software/yuyin/qiqiyinqiluntai/riscv-nuclei-elf-gcc-9.2.0.0/gcc_fix_raissrc/bin/../lib/gcc/riscv-nuclei-elf/9.2.0/../../../../riscv-nuclei-elf/lib/rv32imafc/ilp32f\libg_nano.a(lib_a-fstatr.o) (_fstat)
d:/software/yuyin/qiqiyinqiluntai/riscv-nuclei-elf-gcc-9.2.0.0/gcc_fix_raissrc/bin/../lib/gcc/riscv-nuclei-elf/9.2.0/../../../../riscv-nuclei-elf/lib/rv32imafc/ilp32f\libgloss_nano.a(sys_isatty.o)
                              d:/software/yuyin/qiqiyinqiluntai/riscv-nuclei-elf-gcc-9.2.0.0/gcc_fix_raissrc/bin/../lib/gcc/riscv-nuclei-elf/9.2.0/../../../../riscv-nuclei-elf/lib/rv32imafc/ilp32f\libg_nano.a(lib_a-isattyr.o) (_isatty)
d:/software/yuyin/qiqiyinqiluntai/riscv-nuclei-elf-gcc-9.2.0.0/gcc_fix_raissrc/bin/../lib/gcc/riscv-nuclei-elf/9.2.0/../../../../riscv-nuclei-elf/lib/rv32imafc/ilp32f\libgloss_nano.a(sys_lseek.o)
                              d:/software/yuyin/qiqiyinqiluntai/riscv-nuclei-elf-gcc-9.2.0.0/gcc_fix_raissrc/bin/../lib/gcc/riscv-nuclei-elf/9.2.0/../../../../riscv-nuclei-elf/lib/rv32imafc/ilp32f\libg_nano.a(lib_a-lseekr.o) (_lseek)
d:/software/yuyin/qiqiyinqiluntai/riscv-nuclei-elf-gcc-9.2.0.0/gcc_fix_raissrc/bin/../lib/gcc/riscv-nuclei-elf/9.2.0/../../../../riscv-nuclei-elf/lib/rv32imafc/ilp32f\libgloss_nano.a(sys_read.o)
                              d:/software/yuyin/qiqiyinqiluntai/riscv-nuclei-elf-gcc-9.2.0.0/gcc_fix_raissrc/bin/../lib/gcc/riscv-nuclei-elf/9.2.0/../../../../riscv-nuclei-elf/lib/rv32imafc/ilp32f\libg_nano.a(lib_a-readr.o) (_read)
d:/software/yuyin/qiqiyinqiluntai/riscv-nuclei-elf-gcc-9.2.0.0/gcc_fix_raissrc/bin/../lib/gcc/riscv-nuclei-elf/9.2.0/../../../../riscv-nuclei-elf/lib/rv32imafc/ilp32f\libgloss_nano.a(sys_write.o)
                              d:/software/yuyin/qiqiyinqiluntai/riscv-nuclei-elf-gcc-9.2.0.0/gcc_fix_raissrc/bin/../lib/gcc/riscv-nuclei-elf/9.2.0/../../../../riscv-nuclei-elf/lib/rv32imafc/ilp32f\libg_nano.a(lib_a-writer.o) (_write)
d:/software/yuyin/qiqiyinqiluntai/riscv-nuclei-elf-gcc-9.2.0.0/gcc_fix_raissrc/bin/../lib/gcc/riscv-nuclei-elf/9.2.0/../../../../riscv-nuclei-elf/lib/rv32imafc/ilp32f\libgloss_nano.a(sys_conv_stat.o)
                              d:/software/yuyin/qiqiyinqiluntai/riscv-nuclei-elf-gcc-9.2.0.0/gcc_fix_raissrc/bin/../lib/gcc/riscv-nuclei-elf/9.2.0/../../../../riscv-nuclei-elf/lib/rv32imafc/ilp32f\libgloss_nano.a(sys_fstat.o) (_conv_stat)

Allocating common symbols
Common symbol       size              file

errno               0x4               d:/software/yuyin/qiqiyinqiluntai/riscv-nuclei-elf-gcc-9.2.0.0/gcc_fix_raissrc/bin/../lib/gcc/riscv-nuclei-elf/9.2.0/../../../../riscv-nuclei-elf/lib/rv32imafc/ilp32f\libg_nano.a(lib_a-reent.o)

Discarded input sections

 .text          0x0000000000000000        0x0 C:\TMP\nn_denoise_rtc_sample.elf.UaA6UP.ltrans0.ltrans.o
 .data          0x0000000000000000        0x0 C:\TMP\nn_denoise_rtc_sample.elf.UaA6UP.ltrans0.ltrans.o
 .bss           0x0000000000000000        0x0 C:\TMP\nn_denoise_rtc_sample.elf.UaA6UP.ltrans0.ltrans.o
 .sdata2.EFUSE.lto_priv.0
                0x0000000000000000        0x4 C:\TMP\nn_denoise_rtc_sample.elf.UaA6UP.ltrans0.ltrans.o
 .text          0x0000000000000000        0x0 C:\TMP\nn_denoise_rtc_sample.elf.UaA6UP.ltrans1.ltrans.o
 .data          0x0000000000000000        0x0 C:\TMP\nn_denoise_rtc_sample.elf.UaA6UP.ltrans1.ltrans.o
 .bss           0x0000000000000000        0x0 C:\TMP\nn_denoise_rtc_sample.elf.UaA6UP.ltrans1.ltrans.o
 .text.IISxDMA_TADDR1.part.0
                0x0000000000000000       0x38 C:\TMP\nn_denoise_rtc_sample.elf.UaA6UP.ltrans1.ltrans.o
 .rodata._exit.str1.4
                0x0000000000000000       0x12 C:\TMP\nn_denoise_rtc_sample.elf.UaA6UP.ltrans1.ltrans.o
 .text._exit    0x0000000000000000       0x3e C:\TMP\nn_denoise_rtc_sample.elf.UaA6UP.ltrans1.ltrans.o
 .bss.tmp       0x0000000000000000       0x20 C:\TMP\nn_denoise_rtc_sample.elf.UaA6UP.ltrans1.ltrans.o
 .sbss.adc_cha0_int_flag
                0x0000000000000000        0x1 C:\TMP\nn_denoise_rtc_sample.elf.UaA6UP.ltrans1.ltrans.o
 .sbss.adc_cha1_int_flag
                0x0000000000000000        0x1 C:\TMP\nn_denoise_rtc_sample.elf.UaA6UP.ltrans1.ltrans.o
 .sbss.adc_cha2_int_flag
                0x0000000000000000        0x1 C:\TMP\nn_denoise_rtc_sample.elf.UaA6UP.ltrans1.ltrans.o
 .sbss.adc_cha3_int_flag
                0x0000000000000000        0x1 C:\TMP\nn_denoise_rtc_sample.elf.UaA6UP.ltrans1.ltrans.o
 .sbss.adc_cha4_int_flag
                0x0000000000000000        0x1 C:\TMP\nn_denoise_rtc_sample.elf.UaA6UP.ltrans1.ltrans.o
 .sbss.adc_cha5_int_flag
                0x0000000000000000        0x1 C:\TMP\nn_denoise_rtc_sample.elf.UaA6UP.ltrans1.ltrans.o
 .sbss.audio_block_size
                0x0000000000000000        0x2 C:\TMP\nn_denoise_rtc_sample.elf.UaA6UP.ltrans1.ltrans.o
 .sbss.audio_play_status
                0x0000000000000000        0x1 C:\TMP\nn_denoise_rtc_sample.elf.UaA6UP.ltrans1.ltrans.o
 .sbss.d1_max   0x0000000000000000        0x4 C:\TMP\nn_denoise_rtc_sample.elf.UaA6UP.ltrans1.ltrans.o
 .sbss.d2_max   0x0000000000000000        0x4 C:\TMP\nn_denoise_rtc_sample.elf.UaA6UP.ltrans1.ltrans.o
 .sbss.g_scu_int
                0x0000000000000000        0x1 C:\TMP\nn_denoise_rtc_sample.elf.UaA6UP.ltrans1.ltrans.o
 .sbss.sg_cmp_twice_en
                0x0000000000000000        0x1 C:\TMP\nn_denoise_rtc_sample.elf.UaA6UP.ltrans1.ltrans.o
 .sbss.sg_dnn_psram_transfer_sram_done
                0x0000000000000000        0x1 C:\TMP\nn_denoise_rtc_sample.elf.UaA6UP.ltrans1.ltrans.o
 .sbss.src_from_right_mic
                0x0000000000000000        0x1 C:\TMP\nn_denoise_rtc_sample.elf.UaA6UP.ltrans1.ltrans.o
 .sbss.vad_fe_rpmsg_wait_state
                0x0000000000000000        0x4 C:\TMP\nn_denoise_rtc_sample.elf.UaA6UP.ltrans1.ltrans.o
 .sdata.sg_adpt_skpdecode_flag
                0x0000000000000000        0x1 C:\TMP\nn_denoise_rtc_sample.elf.UaA6UP.ltrans1.ltrans.o
 .sdata2.__FUNCTION__.3941
                0x0000000000000000        0x6 C:\TMP\nn_denoise_rtc_sample.elf.UaA6UP.ltrans1.ltrans.o
 .comment       0x0000000000000000       0x12 C:\TMP\cctaoPDg.debug.temp.o
 .comment       0x0000000000000000       0x12 C:\TMP\ccCToAL5.debug.temp.o
 .comment       0x0000000000000000       0x12 C:\TMP\ccz04okV.debug.temp.o
 .comment       0x0000000000000000       0x12 C:\TMP\cc6vsEGK.debug.temp.o
 .comment       0x0000000000000000       0x12 C:\TMP\ccjlrN7y.debug.temp.o
 .debug_info    0x0000000000000000      0x99a C:\TMP\ccky5ZZn.debug.temp.o
 .debug_abbrev  0x0000000000000000      0x1e4 C:\TMP\ccky5ZZn.debug.temp.o
 .debug_line    0x0000000000000000      0x1cf C:\TMP\ccky5ZZn.debug.temp.o
 .debug_str     0x0000000000000000      0x6d9 C:\TMP\ccky5ZZn.debug.temp.o
 .comment       0x0000000000000000       0x12 C:\TMP\ccky5ZZn.debug.temp.o
 .comment       0x0000000000000000       0x12 C:\TMP\ccXGdyWc.debug.temp.o
 .debug_info    0x0000000000000000      0x91a C:\TMP\cca66GJ1.debug.temp.o
 .debug_abbrev  0x0000000000000000      0x1b1 C:\TMP\cca66GJ1.debug.temp.o
 .debug_line    0x0000000000000000      0x151 C:\TMP\cca66GJ1.debug.temp.o
 .debug_str     0x0000000000000000      0x664 C:\TMP\cca66GJ1.debug.temp.o
 .comment       0x0000000000000000       0x12 C:\TMP\cca66GJ1.debug.temp.o
 .comment       0x0000000000000000       0x12 C:\TMP\ccFAmeNP.debug.temp.o
 .comment       0x0000000000000000       0x12 C:\TMP\ccKRTuHD.debug.temp.o
 .comment       0x0000000000000000       0x12 C:\TMP\ccBXiG2r.debug.temp.o
 .comment       0x0000000000000000       0x12 C:\TMP\ccs58sqf.debug.temp.o
 .comment       0x0000000000000000       0x12 C:\TMP\ccHdpmJ2.debug.temp.o
 .comment       0x0000000000000000       0x12 C:\TMP\ccKJkjtQ.debug.temp.o
 .comment       0x0000000000000000       0x12 C:\TMP\ccn4Qw8D.debug.temp.o
 .comment       0x0000000000000000       0x12 C:\TMP\ccmasFKv.debug.temp.o
 .comment       0x0000000000000000       0x12 C:\TMP\ccTZ3wdn.debug.temp.o
 .comment       0x0000000000000000       0x12 C:\TMP\ccggCs7e.debug.temp.o
 .debug_info    0x0000000000000000      0xcde C:\TMP\ccPqa1p6.debug.temp.o
 .debug_abbrev  0x0000000000000000      0x25a C:\TMP\ccPqa1p6.debug.temp.o
 .debug_line    0x0000000000000000      0x263 C:\TMP\ccPqa1p6.debug.temp.o
 .debug_str     0x0000000000000000      0x9ed C:\TMP\ccPqa1p6.debug.temp.o
 .comment       0x0000000000000000       0x12 C:\TMP\ccPqa1p6.debug.temp.o
 .comment       0x0000000000000000       0x12 C:\TMP\ccWkJizX.debug.temp.o
 .debug_info    0x0000000000000000      0xdd8 C:\TMP\ccnnVYYN.debug.temp.o
 .debug_abbrev  0x0000000000000000      0x254 C:\TMP\ccnnVYYN.debug.temp.o
 .debug_line    0x0000000000000000      0x2d7 C:\TMP\ccnnVYYN.debug.temp.o
 .debug_str     0x0000000000000000      0xc0e C:\TMP\ccnnVYYN.debug.temp.o
 .comment       0x0000000000000000       0x12 C:\TMP\ccnnVYYN.debug.temp.o
 .comment       0x0000000000000000       0x12 C:\TMP\ccivKHaE.debug.temp.o
 .comment       0x0000000000000000       0x12 C:\TMP\cc10euNu.debug.temp.o
 .comment       0x0000000000000000       0x12 C:\TMP\ccigKZgl.debug.temp.o
 .comment       0x0000000000000000       0x12 C:\TMP\ccR44K0a.debug.temp.o
 .comment       0x0000000000000000       0x12 C:\TMP\ccYCqfB0.debug.temp.o
 .comment       0x0000000000000000       0x12 C:\TMP\ccHMzaHQ.debug.temp.o
 .debug_info    0x0000000000000000      0xfc7 C:\TMP\cc0I0ODG.debug.temp.o
 .debug_abbrev  0x0000000000000000      0x29a C:\TMP\cc0I0ODG.debug.temp.o
 .debug_line    0x0000000000000000      0x2b0 C:\TMP\cc0I0ODG.debug.temp.o
 .debug_str     0x0000000000000000      0xd40 C:\TMP\cc0I0ODG.debug.temp.o
 .comment       0x0000000000000000       0x12 C:\TMP\cc0I0ODG.debug.temp.o
 .comment       0x0000000000000000       0x12 C:\TMP\ccDnfoxA.debug.temp.o
 .debug_info    0x0000000000000000     0x1f12 C:\TMP\ccQOLGhu.debug.temp.o
 .debug_abbrev  0x0000000000000000      0x310 C:\TMP\ccQOLGhu.debug.temp.o
 .debug_line    0x0000000000000000      0x378 C:\TMP\ccQOLGhu.debug.temp.o
 .debug_str     0x0000000000000000     0x15ad C:\TMP\ccQOLGhu.debug.temp.o
 .comment       0x0000000000000000       0x12 C:\TMP\ccQOLGhu.debug.temp.o
 .debug_info    0x0000000000000000      0x9ea C:\TMP\ccTIxAxo.debug.temp.o
 .debug_abbrev  0x0000000000000000      0x203 C:\TMP\ccTIxAxo.debug.temp.o
 .debug_line    0x0000000000000000      0x15c C:\TMP\ccTIxAxo.debug.temp.o
 .debug_str     0x0000000000000000      0x6a4 C:\TMP\ccTIxAxo.debug.temp.o
 .comment       0x0000000000000000       0x12 C:\TMP\ccTIxAxo.debug.temp.o
 .debug_info    0x0000000000000000      0xb34 C:\TMP\ccYH15Ph.debug.temp.o
 .debug_abbrev  0x0000000000000000      0x261 C:\TMP\ccYH15Ph.debug.temp.o
 .debug_line    0x0000000000000000      0x268 C:\TMP\ccYH15Ph.debug.temp.o
 .debug_str     0x0000000000000000      0x813 C:\TMP\ccYH15Ph.debug.temp.o
 .comment       0x0000000000000000       0x12 C:\TMP\ccYH15Ph.debug.temp.o
 .debug_info    0x0000000000000000     0x138f C:\TMP\cczRIbZa.debug.temp.o
 .debug_abbrev  0x0000000000000000      0x250 C:\TMP\cczRIbZa.debug.temp.o
 .debug_line    0x0000000000000000      0x2e7 C:\TMP\cczRIbZa.debug.temp.o
 .debug_str     0x0000000000000000      0xbda C:\TMP\cczRIbZa.debug.temp.o
 .comment       0x0000000000000000       0x12 C:\TMP\cczRIbZa.debug.temp.o
 .debug_info    0x0000000000000000     0x181e C:\TMP\ccYo5kz4.debug.temp.o
 .debug_abbrev  0x0000000000000000      0x2c8 C:\TMP\ccYo5kz4.debug.temp.o
 .debug_line    0x0000000000000000      0x300 C:\TMP\ccYo5kz4.debug.temp.o
 .debug_str     0x0000000000000000      0xf7a C:\TMP\ccYo5kz4.debug.temp.o
 .comment       0x0000000000000000       0x12 C:\TMP\ccYo5kz4.debug.temp.o
 .debug_info    0x0000000000000000      0xba7 C:\TMP\ccVFsd0X.debug.temp.o
 .debug_abbrev  0x0000000000000000      0x263 C:\TMP\ccVFsd0X.debug.temp.o
 .debug_line    0x0000000000000000      0x275 C:\TMP\ccVFsd0X.debug.temp.o
 .debug_str     0x0000000000000000      0x75e C:\TMP\ccVFsd0X.debug.temp.o
 .comment       0x0000000000000000       0x12 C:\TMP\ccVFsd0X.debug.temp.o
 .comment       0x0000000000000000       0x12 C:\TMP\ccawFlHQ.debug.temp.o
 .debug_info    0x0000000000000000       0xa2 C:\TMP\ccZ89cfJ.debug.temp.o
 .debug_abbrev  0x0000000000000000       0x5f C:\TMP\ccZ89cfJ.debug.temp.o
 .debug_line    0x0000000000000000      0x14a C:\TMP\ccZ89cfJ.debug.temp.o
 .debug_str     0x0000000000000000      0x279 C:\TMP\ccZ89cfJ.debug.temp.o
 .comment       0x0000000000000000       0x12 C:\TMP\ccZ89cfJ.debug.temp.o
 .comment       0x0000000000000000       0x12 C:\TMP\ccA627dC.debug.temp.o
 .comment       0x0000000000000000       0x12 C:\TMP\ccJhqD3u.debug.temp.o
 .comment       0x0000000000000000       0x12 C:\TMP\ccwryuXn.debug.temp.o
 .comment       0x0000000000000000       0x12 C:\TMP\ccDJjK7f.debug.temp.o
 .comment       0x0000000000000000       0x12 C:\TMP\ccgciA87.debug.temp.o
 .comment       0x0000000000000000       0x12 C:\TMP\ccH2VtA0.debug.temp.o
 .comment       0x0000000000000000       0x12 C:\TMP\ccGCA6SS.debug.temp.o
 .comment       0x0000000000000000       0x12 C:\TMP\cc1XjE8O.debug.temp.o
 .comment       0x0000000000000000       0x12 C:\TMP\ccU23UeL.debug.temp.o
 .debug_info    0x0000000000000000     0x1049 C:\TMP\ccjsysyH.debug.temp.o
 .debug_abbrev  0x0000000000000000      0x280 C:\TMP\ccjsysyH.debug.temp.o
 .debug_line    0x0000000000000000      0x3b7 C:\TMP\ccjsysyH.debug.temp.o
 .debug_str     0x0000000000000000     0x114f C:\TMP\ccjsysyH.debug.temp.o
 .comment       0x0000000000000000       0x12 C:\TMP\ccjsysyH.debug.temp.o
 .debug_info    0x0000000000000000      0xba7 C:\TMP\cc2ZFo8C.debug.temp.o
 .debug_abbrev  0x0000000000000000      0x21b C:\TMP\cc2ZFo8C.debug.temp.o
 .debug_line    0x0000000000000000      0x206 C:\TMP\cc2ZFo8C.debug.temp.o
 .debug_str     0x0000000000000000      0xb22 C:\TMP\cc2ZFo8C.debug.temp.o
 .comment       0x0000000000000000       0x12 C:\TMP\cc2ZFo8C.debug.temp.o
 .comment       0x0000000000000000       0x12 C:\TMP\ccjNAsDy.debug.temp.o
 .comment       0x0000000000000000       0x12 C:\TMP\ccmVTzzu.debug.temp.o
 .debug_info    0x0000000000000000      0x99a C:\TMP\ccZPuqmq.debug.temp.o
 .debug_abbrev  0x0000000000000000      0x1e4 C:\TMP\ccZPuqmq.debug.temp.o
 .debug_line    0x0000000000000000      0x1cf C:\TMP\ccZPuqmq.debug.temp.o
 .debug_str     0x0000000000000000      0x6f0 C:\TMP\ccZPuqmq.debug.temp.o
 .comment       0x0000000000000000       0x12 C:\TMP\ccZPuqmq.debug.temp.o
 .debug_info    0x0000000000000000      0x99a C:\TMP\ccK6Q2tl.debug.temp.o
 .debug_abbrev  0x0000000000000000      0x1e4 C:\TMP\ccK6Q2tl.debug.temp.o
 .debug_line    0x0000000000000000      0x1cf C:\TMP\ccK6Q2tl.debug.temp.o
 .debug_str     0x0000000000000000      0x6e6 C:\TMP\ccK6Q2tl.debug.temp.o
 .comment       0x0000000000000000       0x12 C:\TMP\ccK6Q2tl.debug.temp.o
 .comment       0x0000000000000000       0x12 C:\TMP\ccdkiSng.debug.temp.o
 .comment       0x0000000000000000       0x12 C:\TMP\cckcO8Mb.debug.temp.o
 .debug_info    0x0000000000000000      0xb5d C:\TMP\cc1QB826.debug.temp.o
 .debug_abbrev  0x0000000000000000      0x272 C:\TMP\cc1QB826.debug.temp.o
 .debug_line    0x0000000000000000      0x34b C:\TMP\cc1QB826.debug.temp.o
 .debug_str     0x0000000000000000      0x88b C:\TMP\cc1QB826.debug.temp.o
 .comment       0x0000000000000000       0x12 C:\TMP\cc1QB826.debug.temp.o
 .comment       0x0000000000000000       0x12 C:\TMP\ccaOP0u1.debug.temp.o
 .comment       0x0000000000000000       0x12 C:\TMP\ccRu4BNV.debug.temp.o
 .comment       0x0000000000000000       0x12 C:\TMP\cc8Hw6wQ.debug.temp.o
 .comment       0x0000000000000000       0x12 C:\TMP\ccfcoYkL.debug.temp.o
 .comment       0x0000000000000000       0x12 C:\TMP\ccWsxzZF.debug.temp.o
 .debug_info    0x0000000000000000     0x270c C:\TMP\ccXru5AE.debug.temp.o
 .debug_abbrev  0x0000000000000000      0x34b C:\TMP\ccXru5AE.debug.temp.o
 .debug_line    0x0000000000000000      0x2fd C:\TMP\ccXru5AE.debug.temp.o
 .debug_str     0x0000000000000000     0x260e C:\TMP\ccXru5AE.debug.temp.o
 .comment       0x0000000000000000       0x12 C:\TMP\ccXru5AE.debug.temp.o
 .debug_info    0x0000000000000000      0xe7a C:\TMP\ccwask3C.debug.temp.o
 .debug_abbrev  0x0000000000000000      0x201 C:\TMP\ccwask3C.debug.temp.o
 .debug_line    0x0000000000000000      0x24f C:\TMP\ccwask3C.debug.temp.o
 .debug_str     0x0000000000000000      0xbf0 C:\TMP\ccwask3C.debug.temp.o
 .comment       0x0000000000000000       0x12 C:\TMP\ccwask3C.debug.temp.o
 .comment       0x0000000000000000       0x12 C:\TMP\ccVjmDWB.debug.temp.o
 .comment       0x0000000000000000       0x12 C:\TMP\ccQDtwGA.debug.temp.o
 .comment       0x0000000000000000       0x12 C:\TMP\ccfPOqCy.debug.temp.o
 .comment       0x0000000000000000       0x12 C:\TMP\ccceEVow.debug.temp.o
 .comment       0x0000000000000000       0x12 C:\TMP\ccTUAtCu.debug.temp.o
 .comment       0x0000000000000000       0x12 C:\TMP\ccaoPKGs.debug.temp.o
 .debug_info    0x0000000000000000      0xb3b C:\TMP\ccNyKP5p.debug.temp.o
 .debug_abbrev  0x0000000000000000      0x212 C:\TMP\ccNyKP5p.debug.temp.o
 .debug_line    0x0000000000000000      0x22c C:\TMP\ccNyKP5p.debug.temp.o
 .debug_str     0x0000000000000000      0x765 C:\TMP\ccNyKP5p.debug.temp.o
 .comment       0x0000000000000000       0x12 C:\TMP\ccNyKP5p.debug.temp.o
 .debug_info    0x0000000000000000      0xd34 C:\TMP\ccetkqzn.debug.temp.o
 .debug_abbrev  0x0000000000000000      0x221 C:\TMP\ccetkqzn.debug.temp.o
 .debug_line    0x0000000000000000      0x1c2 C:\TMP\ccetkqzn.debug.temp.o
 .debug_str     0x0000000000000000      0xa40 C:\TMP\ccetkqzn.debug.temp.o
 .comment       0x0000000000000000       0x12 C:\TMP\ccetkqzn.debug.temp.o
 .comment       0x0000000000000000       0x12 C:\TMP\ccdBoBTk.debug.temp.o
 .comment       0x0000000000000000       0x12 C:\TMP\cc067PEi.debug.temp.o
 .comment       0x0000000000000000       0x12 C:\TMP\ccvzWhcg.debug.temp.o
 .debug_info    0x0000000000000000     0x2009 C:\TMP\ccQOGfOd.debug.temp.o
 .debug_abbrev  0x0000000000000000      0x314 C:\TMP\ccQOGfOd.debug.temp.o
 .debug_line    0x0000000000000000      0x31c C:\TMP\ccQOGfOd.debug.temp.o
 .debug_str     0x0000000000000000     0x17c6 C:\TMP\ccQOGfOd.debug.temp.o
 .comment       0x0000000000000000       0x12 C:\TMP\ccQOGfOd.debug.temp.o
 .debug_info    0x0000000000000000     0x1e56 C:\TMP\cctDgtGa.debug.temp.o
 .debug_abbrev  0x0000000000000000      0x333 C:\TMP\cctDgtGa.debug.temp.o
 .debug_line    0x0000000000000000      0x307 C:\TMP\cctDgtGa.debug.temp.o
 .debug_str     0x0000000000000000     0x1434 C:\TMP\cctDgtGa.debug.temp.o
 .comment       0x0000000000000000       0x12 C:\TMP\cctDgtGa.debug.temp.o
 .comment       0x0000000000000000       0x12 C:\TMP\ccOUr2k7.debug.temp.o
 .comment       0x0000000000000000       0x12 C:\TMP\ccX3Lwq4.debug.temp.o
 .comment       0x0000000000000000       0x12 C:\TMP\ccEW6Jm1.debug.temp.o
 .comment       0x0000000000000000       0x12 C:\TMP\ccJ9j1f2.debug.temp.o
 .comment       0x0000000000000000       0x12 C:\TMP\ccEDWFd3.debug.temp.o
 .comment       0x0000000000000000       0x12 C:\TMP\cc5LZvX3.debug.temp.o
 .debug_info    0x0000000000000000      0x982 C:\TMP\ccgGDg84.debug.temp.o
 .debug_abbrev  0x0000000000000000      0x1e4 C:\TMP\ccgGDg84.debug.temp.o
 .debug_line    0x0000000000000000      0x2a1 C:\TMP\ccgGDg84.debug.temp.o
 .debug_str     0x0000000000000000      0x6eb C:\TMP\ccgGDg84.debug.temp.o
 .comment       0x0000000000000000       0x12 C:\TMP\ccgGDg84.debug.temp.o
 .comment       0x0000000000000000       0x12 C:\TMP\cc1mzK95.debug.temp.o
 .comment       0x0000000000000000       0x12 C:\TMP\ccCkUBf7.debug.temp.o
 .comment       0x0000000000000000       0x12 C:\TMP\ccxqSRB7.debug.temp.o
 .comment       0x0000000000000000       0x12 C:\TMP\cc8pEkK7.debug.temp.o
 .comment       0x0000000000000000       0x12 C:\TMP\ccjYWdo8.debug.temp.o
 .comment       0x0000000000000000       0x12 C:\TMP\cc6lOQS8.debug.temp.o
 .comment       0x0000000000000000       0x12 C:\TMP\ccdSiSD8.debug.temp.o
 .comment       0x0000000000000000       0x12 C:\TMP\ccOvJtf8.debug.temp.o
 .comment       0x0000000000000000       0x12 C:\TMP\ccfCpGm8.debug.temp.o
 .comment       0x0000000000000000       0x12 C:\TMP\cciyECk8.debug.temp.o
 .comment       0x0000000000000000       0x12 C:\TMP\ccNMjru7.debug.temp.o
 .comment       0x0000000000000000       0x12 C:\TMP\ccOHIYu6.debug.temp.o
 .comment       0x0000000000000000       0x12 C:\TMP\ccHWNTz5.debug.temp.o
 .comment       0x0000000000000000       0x12 C:\TMP\cckt0R54.debug.temp.o
 .comment       0x0000000000000000       0x12 C:\TMP\ccxgYqs4.debug.temp.o
 .comment       0x0000000000000000       0x12 C:\TMP\cci7oGH7.debug.temp.o
 .comment       0x0000000000000000       0x12 C:\TMP\ccN1xXNa.debug.temp.o
 .comment       0x0000000000000000       0x12 C:\TMP\ccY7fhle.debug.temp.o
 .comment       0x0000000000000000       0x12 C:\TMP\ccZunYWh.debug.temp.o
 .comment       0x0000000000000000       0x12 C:\TMP\ccIk60kl.debug.temp.o
 .debug_info    0x0000000000000000      0xdd4 C:\TMP\ccJJEjZn.debug.temp.o
 .debug_abbrev  0x0000000000000000      0x2d9 C:\TMP\ccJJEjZn.debug.temp.o
 .debug_line    0x0000000000000000      0x25f C:\TMP\ccJJEjZn.debug.temp.o
 .debug_str     0x0000000000000000      0x84f C:\TMP\ccJJEjZn.debug.temp.o
 .comment       0x0000000000000000       0x12 C:\TMP\ccJJEjZn.debug.temp.o
 .comment       0x0000000000000000       0x12 C:\TMP\ccCYp8Hq.debug.temp.o
 .comment       0x0000000000000000       0x12 C:\TMP\ccb7Y9ct.debug.temp.o
 .comment       0x0000000000000000       0x12 C:\TMP\ccoejxMv.debug.temp.o
 .comment       0x0000000000000000       0x12 C:\TMP\ccnavPMy.debug.temp.o
 .comment       0x0000000000000000       0x12 C:\TMP\ccUPHQDB.debug.temp.o
 .comment       0x0000000000000000       0x12 C:\TMP\ccJAggLD.debug.temp.o
 .comment       0x0000000000000000       0x12 C:\TMP\ccilbTEF.debug.temp.o
 .comment       0x0000000000000000       0x12 C:\TMP\ccFjeTCH.debug.temp.o
 .comment       0x0000000000000000       0x12 C:\TMP\ccSIdX1J.debug.temp.o
 .debug_info    0x0000000000000000     0x1966 C:\TMP\ccJYJddM.debug.temp.o
 .debug_abbrev  0x0000000000000000      0x2d4 C:\TMP\ccJYJddM.debug.temp.o
 .debug_line    0x0000000000000000      0x223 C:\TMP\ccJYJddM.debug.temp.o
 .debug_str     0x0000000000000000      0x86b C:\TMP\ccJYJddM.debug.temp.o
 .comment       0x0000000000000000       0x12 C:\TMP\ccJYJddM.debug.temp.o
 .comment       0x0000000000000000       0x12 C:\TMP\ccUmTSEN.debug.temp.o
 .comment       0x0000000000000000       0x12 C:\TMP\ccV1rVaP.debug.temp.o
 .debug_info    0x0000000000000000     0x1149 C:\TMP\ccE9BjtQ.debug.temp.o
 .debug_abbrev  0x0000000000000000      0x2dd C:\TMP\ccE9BjtQ.debug.temp.o
 .debug_line    0x0000000000000000      0x322 C:\TMP\ccE9BjtQ.debug.temp.o
 .debug_str     0x0000000000000000      0xaa6 C:\TMP\ccE9BjtQ.debug.temp.o
 .comment       0x0000000000000000       0x12 C:\TMP\ccE9BjtQ.debug.temp.o
 .debug_info    0x0000000000000000      0x9cf C:\TMP\ccb9UCcS.debug.temp.o
 .debug_abbrev  0x0000000000000000      0x1d8 C:\TMP\ccb9UCcS.debug.temp.o
 .debug_line    0x0000000000000000      0x1d0 C:\TMP\ccb9UCcS.debug.temp.o
 .debug_str     0x0000000000000000      0x6e9 C:\TMP\ccb9UCcS.debug.temp.o
 .comment       0x0000000000000000       0x12 C:\TMP\ccb9UCcS.debug.temp.o
 .debug_info    0x0000000000000000       0x1d C:\TMP\cck05cRT.debug.temp.o
 .debug_abbrev  0x0000000000000000       0x10 C:\TMP\cck05cRT.debug.temp.o
 .debug_line    0x0000000000000000       0x1e C:\TMP\cck05cRT.debug.temp.o
 .debug_str     0x0000000000000000      0x1e0 C:\TMP\cck05cRT.debug.temp.o
 .comment       0x0000000000000000       0x12 C:\TMP\cck05cRT.debug.temp.o
 .comment       0x0000000000000000       0x12 C:\TMP\ccP8RQsZ.debug.temp.o
 .comment       0x0000000000000000       0x12 C:\TMP\ccay3R84.debug.temp.o
 .comment       0x0000000000000000       0x12 C:\TMP\ccbR25Aa.debug.temp.o
 .comment       0x0000000000000000       0x12 C:\TMP\cc2AYnug.debug.temp.o
 .comment       0x0000000000000000       0x12 C:\TMP\ccr4Uoem.debug.temp.o
 .comment       0x0000000000000000       0x12 C:\TMP\cc86GFer.debug.temp.o
 .comment       0x0000000000000000       0x12 C:\TMP\cclQcF5v.debug.temp.o
 .comment       0x0000000000000000       0x12 C:\TMP\ccoQ710A.debug.temp.o
 .comment       0x0000000000000000       0x12 C:\TMP\cchhZsnG.debug.temp.o
 .comment       0x0000000000000000       0x12 C:\TMP\ccMFLQQK.debug.temp.o
 .debug_info    0x0000000000000000     0x1e75 C:\TMP\ccPh2OaP.debug.temp.o
 .debug_abbrev  0x0000000000000000      0x359 C:\TMP\ccPh2OaP.debug.temp.o
 .debug_line    0x0000000000000000      0x487 C:\TMP\ccPh2OaP.debug.temp.o
 .debug_str     0x0000000000000000     0x14d9 C:\TMP\ccPh2OaP.debug.temp.o
 .comment       0x0000000000000000       0x12 C:\TMP\ccPh2OaP.debug.temp.o
 .debug_info    0x0000000000000000     0x1357 C:\TMP\ccIkfRVT.debug.temp.o
 .debug_abbrev  0x0000000000000000      0x265 C:\TMP\ccIkfRVT.debug.temp.o
 .debug_line    0x0000000000000000      0x2a4 C:\TMP\ccIkfRVT.debug.temp.o
 .debug_str     0x0000000000000000      0xc84 C:\TMP\ccIkfRVT.debug.temp.o
 .comment       0x0000000000000000       0x12 C:\TMP\ccIkfRVT.debug.temp.o
 .comment       0x0000000000000000       0x12 C:\TMP\cc73bCxY.debug.temp.o
 .debug_info    0x0000000000000000     0x13d7 C:\TMP\ccOmYCp2.debug.temp.o
 .debug_abbrev  0x0000000000000000      0x26f C:\TMP\ccOmYCp2.debug.temp.o
 .debug_line    0x0000000000000000      0x32f C:\TMP\ccOmYCp2.debug.temp.o
 .debug_str     0x0000000000000000      0xd45 C:\TMP\ccOmYCp2.debug.temp.o
 .comment       0x0000000000000000       0x12 C:\TMP\ccOmYCp2.debug.temp.o
 .comment       0x0000000000000000       0x12 C:\TMP\cc1ZuUu6.debug.temp.o
 .comment       0x0000000000000000       0x12 C:\TMP\ccAAaiva.debug.temp.o
 .comment       0x0000000000000000       0x12 C:\TMP\ccxvIJsi.debug.temp.o
 .comment       0x0000000000000000       0x12 C:\TMP\cc4eRrlq.debug.temp.o
 .comment       0x0000000000000000       0x12 C:\TMP\ccpQ84Ey.debug.temp.o
 .comment       0x0000000000000000       0x12 C:\TMP\cckeIrPG.debug.temp.o
 .comment       0x0000000000000000       0x12 C:\TMP\ccxHDcgO.debug.temp.o
 .comment       0x0000000000000000       0x12 C:\TMP\ccglMxxV.debug.temp.o
 .text          0x0000000000000000        0x0 build/objs/ci130x_vtable.o
 .data          0x0000000000000000        0x0 build/objs/ci130x_vtable.o
 .bss           0x0000000000000000        0x0 build/objs/ci130x_vtable.o
 .debug_line    0x0000000000000000       0x51 build/objs/ci130x_vtable.o
 .debug_info    0x0000000000000000       0x26 build/objs/ci130x_vtable.o
 .debug_abbrev  0x0000000000000000       0x14 build/objs/ci130x_vtable.o
 .debug_aranges
                0x0000000000000000       0x20 build/objs/ci130x_vtable.o
 .debug_str     0x0000000000000000       0xb9 build/objs/ci130x_vtable.o
 .riscv.attributes
                0x0000000000000000       0x2e build/objs/ci130x_vtable.o
 .text          0x0000000000000000        0x0 build/objs/ci130x_startup.o
 .data          0x0000000000000000        0x0 build/objs/ci130x_startup.o
 .bss           0x0000000000000000        0x0 build/objs/ci130x_startup.o
 .text          0x0000000000000000        0x0 ../../../libs\libnewlib_port.a(sbrk.o)
 .data          0x0000000000000000        0x0 ../../../libs\libnewlib_port.a(sbrk.o)
 .bss           0x0000000000000000        0x0 ../../../libs\libnewlib_port.a(sbrk.o)
 .text.__env_lock
                0x0000000000000000       0x18 ../../../libs\libnewlib_port.a(sbrk.o)
 .text.__env_unlock
                0x0000000000000000       0x18 ../../../libs\libnewlib_port.a(sbrk.o)
 .text.__wrap__malloc_r
                0x0000000000000000       0x1c ../../../libs\libnewlib_port.a(sbrk.o)
 .text.__wrap__free_r
                0x0000000000000000       0x1c ../../../libs\libnewlib_port.a(sbrk.o)
 .text.__wrap_strcat
                0x0000000000000000       0x18 ../../../libs\libnewlib_port.a(sbrk.o)
 .text.__wrap_strcpy
                0x0000000000000000       0x18 ../../../libs\libnewlib_port.a(sbrk.o)
 .text.__wrap_strlen
                0x0000000000000000       0x18 ../../../libs\libnewlib_port.a(sbrk.o)
 .text.__wrap_strncat
                0x0000000000000000       0x18 ../../../libs\libnewlib_port.a(sbrk.o)
 .text.__wrap_strncmp
                0x0000000000000000       0x18 ../../../libs\libnewlib_port.a(sbrk.o)
 .text.__wrap_strncpy
                0x0000000000000000       0x18 ../../../libs\libnewlib_port.a(sbrk.o)
 .text.__wrap_strstr
                0x0000000000000000       0x18 ../../../libs\libnewlib_port.a(sbrk.o)
 .text.__wrap_stpcpy
                0x0000000000000000       0x18 ../../../libs\libnewlib_port.a(sbrk.o)
 .text.__wrap_stpncpy
                0x0000000000000000       0x18 ../../../libs\libnewlib_port.a(sbrk.o)
 .text.__wrap_strnlen
                0x0000000000000000       0x18 ../../../libs\libnewlib_port.a(sbrk.o)
 .text.__wrap_strtoul
                0x0000000000000000       0x1a ../../../libs\libnewlib_port.a(sbrk.o)
 .text.__wrap_atol
                0x0000000000000000       0x1a ../../../libs\libnewlib_port.a(sbrk.o)
 .text.__wrap_qsort
                0x0000000000000000       0x1a ../../../libs\libnewlib_port.a(sbrk.o)
 .text.__wrap_vsnprintf
                0x0000000000000000       0x1a ../../../libs\libnewlib_port.a(sbrk.o)
 .text.__wrap_sprintf
                0x0000000000000000       0x1a ../../../libs\libnewlib_port.a(sbrk.o)
 .text.__wrap_abs
                0x0000000000000000       0x1a ../../../libs\libnewlib_port.a(sbrk.o)
 .text.__wrap_isnan
                0x0000000000000000       0x1a ../../../libs\libnewlib_port.a(sbrk.o)
 .text.__wrap_isinf
                0x0000000000000000       0x1a ../../../libs\libnewlib_port.a(sbrk.o)
 .text.__wrap_cosf
                0x0000000000000000       0x1a ../../../libs\libnewlib_port.a(sbrk.o)
 .text.__wrap_sinf
                0x0000000000000000       0x1a ../../../libs\libnewlib_port.a(sbrk.o)
 .text.__wrap_tanf
                0x0000000000000000       0x1a ../../../libs\libnewlib_port.a(sbrk.o)
 .text.__wrap_expf
                0x0000000000000000       0x1a ../../../libs\libnewlib_port.a(sbrk.o)
 .text.__wrap_sqrtf
                0x0000000000000000       0x1a ../../../libs\libnewlib_port.a(sbrk.o)
 .text.__wrap_logf
                0x0000000000000000       0x1a ../../../libs\libnewlib_port.a(sbrk.o)
 .text.__wrap_log10f
                0x0000000000000000       0x1a ../../../libs\libnewlib_port.a(sbrk.o)
 .text.__wrap_atoi
                0x0000000000000000       0x38 ../../../libs\libnewlib_port.a(sbrk.o)
 .text          0x0000000000000000        0x0 ../../../libs\libfreertos_port.a(portasm.o)
 .data          0x0000000000000000        0x0 ../../../libs\libfreertos_port.a(portasm.o)
 .bss           0x0000000000000000        0x0 ../../../libs\libfreertos_port.a(portasm.o)
 .data          0x0000000000000000        0x0 d:/software/yuyin/qiqiyinqiluntai/riscv-nuclei-elf-gcc-9.2.0.0/gcc_fix_raissrc/bin/../lib/gcc/riscv-nuclei-elf/9.2.0/rv32imafc/ilp32f\libgcc.a(save-restore.o)
 .bss           0x0000000000000000        0x0 d:/software/yuyin/qiqiyinqiluntai/riscv-nuclei-elf-gcc-9.2.0.0/gcc_fix_raissrc/bin/../lib/gcc/riscv-nuclei-elf/9.2.0/rv32imafc/ilp32f\libgcc.a(save-restore.o)
 .eh_frame      0x0000000000000000       0xf8 d:/software/yuyin/qiqiyinqiluntai/riscv-nuclei-elf-gcc-9.2.0.0/gcc_fix_raissrc/bin/../lib/gcc/riscv-nuclei-elf/9.2.0/rv32imafc/ilp32f\libgcc.a(save-restore.o)
 .data          0x0000000000000000        0x0 d:/software/yuyin/qiqiyinqiluntai/riscv-nuclei-elf-gcc-9.2.0.0/gcc_fix_raissrc/bin/../lib/gcc/riscv-nuclei-elf/9.2.0/rv32imafc/ilp32f\libgcc.a(adddf3.o)
 .bss           0x0000000000000000        0x0 d:/software/yuyin/qiqiyinqiluntai/riscv-nuclei-elf-gcc-9.2.0.0/gcc_fix_raissrc/bin/../lib/gcc/riscv-nuclei-elf/9.2.0/rv32imafc/ilp32f\libgcc.a(adddf3.o)
 .data          0x0000000000000000        0x0 d:/software/yuyin/qiqiyinqiluntai/riscv-nuclei-elf-gcc-9.2.0.0/gcc_fix_raissrc/bin/../lib/gcc/riscv-nuclei-elf/9.2.0/rv32imafc/ilp32f\libgcc.a(divdf3.o)
 .bss           0x0000000000000000        0x0 d:/software/yuyin/qiqiyinqiluntai/riscv-nuclei-elf-gcc-9.2.0.0/gcc_fix_raissrc/bin/../lib/gcc/riscv-nuclei-elf/9.2.0/rv32imafc/ilp32f\libgcc.a(divdf3.o)
 .data          0x0000000000000000        0x0 d:/software/yuyin/qiqiyinqiluntai/riscv-nuclei-elf-gcc-9.2.0.0/gcc_fix_raissrc/bin/../lib/gcc/riscv-nuclei-elf/9.2.0/rv32imafc/ilp32f\libgcc.a(eqdf2.o)
 .bss           0x0000000000000000        0x0 d:/software/yuyin/qiqiyinqiluntai/riscv-nuclei-elf-gcc-9.2.0.0/gcc_fix_raissrc/bin/../lib/gcc/riscv-nuclei-elf/9.2.0/rv32imafc/ilp32f\libgcc.a(eqdf2.o)
 .data          0x0000000000000000        0x0 d:/software/yuyin/qiqiyinqiluntai/riscv-nuclei-elf-gcc-9.2.0.0/gcc_fix_raissrc/bin/../lib/gcc/riscv-nuclei-elf/9.2.0/rv32imafc/ilp32f\libgcc.a(gedf2.o)
 .bss           0x0000000000000000        0x0 d:/software/yuyin/qiqiyinqiluntai/riscv-nuclei-elf-gcc-9.2.0.0/gcc_fix_raissrc/bin/../lib/gcc/riscv-nuclei-elf/9.2.0/rv32imafc/ilp32f\libgcc.a(gedf2.o)
 .data          0x0000000000000000        0x0 d:/software/yuyin/qiqiyinqiluntai/riscv-nuclei-elf-gcc-9.2.0.0/gcc_fix_raissrc/bin/../lib/gcc/riscv-nuclei-elf/9.2.0/rv32imafc/ilp32f\libgcc.a(ledf2.o)
 .bss           0x0000000000000000        0x0 d:/software/yuyin/qiqiyinqiluntai/riscv-nuclei-elf-gcc-9.2.0.0/gcc_fix_raissrc/bin/../lib/gcc/riscv-nuclei-elf/9.2.0/rv32imafc/ilp32f\libgcc.a(ledf2.o)
 .data          0x0000000000000000        0x0 d:/software/yuyin/qiqiyinqiluntai/riscv-nuclei-elf-gcc-9.2.0.0/gcc_fix_raissrc/bin/../lib/gcc/riscv-nuclei-elf/9.2.0/rv32imafc/ilp32f\libgcc.a(muldf3.o)
 .bss           0x0000000000000000        0x0 d:/software/yuyin/qiqiyinqiluntai/riscv-nuclei-elf-gcc-9.2.0.0/gcc_fix_raissrc/bin/../lib/gcc/riscv-nuclei-elf/9.2.0/rv32imafc/ilp32f\libgcc.a(muldf3.o)
 .data          0x0000000000000000        0x0 d:/software/yuyin/qiqiyinqiluntai/riscv-nuclei-elf-gcc-9.2.0.0/gcc_fix_raissrc/bin/../lib/gcc/riscv-nuclei-elf/9.2.0/rv32imafc/ilp32f\libgcc.a(subdf3.o)
 .bss           0x0000000000000000        0x0 d:/software/yuyin/qiqiyinqiluntai/riscv-nuclei-elf-gcc-9.2.0.0/gcc_fix_raissrc/bin/../lib/gcc/riscv-nuclei-elf/9.2.0/rv32imafc/ilp32f\libgcc.a(subdf3.o)
 .data          0x0000000000000000        0x0 d:/software/yuyin/qiqiyinqiluntai/riscv-nuclei-elf-gcc-9.2.0.0/gcc_fix_raissrc/bin/../lib/gcc/riscv-nuclei-elf/9.2.0/rv32imafc/ilp32f\libgcc.a(unorddf2.o)
 .bss           0x0000000000000000        0x0 d:/software/yuyin/qiqiyinqiluntai/riscv-nuclei-elf-gcc-9.2.0.0/gcc_fix_raissrc/bin/../lib/gcc/riscv-nuclei-elf/9.2.0/rv32imafc/ilp32f\libgcc.a(unorddf2.o)
 .data          0x0000000000000000        0x0 d:/software/yuyin/qiqiyinqiluntai/riscv-nuclei-elf-gcc-9.2.0.0/gcc_fix_raissrc/bin/../lib/gcc/riscv-nuclei-elf/9.2.0/rv32imafc/ilp32f\libgcc.a(fixdfsi.o)
 .bss           0x0000000000000000        0x0 d:/software/yuyin/qiqiyinqiluntai/riscv-nuclei-elf-gcc-9.2.0.0/gcc_fix_raissrc/bin/../lib/gcc/riscv-nuclei-elf/9.2.0/rv32imafc/ilp32f\libgcc.a(fixdfsi.o)
 .data          0x0000000000000000        0x0 d:/software/yuyin/qiqiyinqiluntai/riscv-nuclei-elf-gcc-9.2.0.0/gcc_fix_raissrc/bin/../lib/gcc/riscv-nuclei-elf/9.2.0/rv32imafc/ilp32f\libgcc.a(floatsidf.o)
 .bss           0x0000000000000000        0x0 d:/software/yuyin/qiqiyinqiluntai/riscv-nuclei-elf-gcc-9.2.0.0/gcc_fix_raissrc/bin/../lib/gcc/riscv-nuclei-elf/9.2.0/rv32imafc/ilp32f\libgcc.a(floatsidf.o)
 .data          0x0000000000000000        0x0 d:/software/yuyin/qiqiyinqiluntai/riscv-nuclei-elf-gcc-9.2.0.0/gcc_fix_raissrc/bin/../lib/gcc/riscv-nuclei-elf/9.2.0/rv32imafc/ilp32f\libgcc.a(extendsfdf2.o)
 .bss           0x0000000000000000        0x0 d:/software/yuyin/qiqiyinqiluntai/riscv-nuclei-elf-gcc-9.2.0.0/gcc_fix_raissrc/bin/../lib/gcc/riscv-nuclei-elf/9.2.0/rv32imafc/ilp32f\libgcc.a(extendsfdf2.o)
 .data          0x0000000000000000        0x0 d:/software/yuyin/qiqiyinqiluntai/riscv-nuclei-elf-gcc-9.2.0.0/gcc_fix_raissrc/bin/../lib/gcc/riscv-nuclei-elf/9.2.0/rv32imafc/ilp32f\libgcc.a(truncdfsf2.o)
 .bss           0x0000000000000000        0x0 d:/software/yuyin/qiqiyinqiluntai/riscv-nuclei-elf-gcc-9.2.0.0/gcc_fix_raissrc/bin/../lib/gcc/riscv-nuclei-elf/9.2.0/rv32imafc/ilp32f\libgcc.a(truncdfsf2.o)
 .data          0x0000000000000000        0x0 d:/software/yuyin/qiqiyinqiluntai/riscv-nuclei-elf-gcc-9.2.0.0/gcc_fix_raissrc/bin/../lib/gcc/riscv-nuclei-elf/9.2.0/rv32imafc/ilp32f\libgcc.a(_clzsi2.o)
 .bss           0x0000000000000000        0x0 d:/software/yuyin/qiqiyinqiluntai/riscv-nuclei-elf-gcc-9.2.0.0/gcc_fix_raissrc/bin/../lib/gcc/riscv-nuclei-elf/9.2.0/rv32imafc/ilp32f\libgcc.a(_clzsi2.o)
 .text          0x0000000000000000        0x0 d:/software/yuyin/qiqiyinqiluntai/riscv-nuclei-elf-gcc-9.2.0.0/gcc_fix_raissrc/bin/../lib/gcc/riscv-nuclei-elf/9.2.0/rv32imafc/ilp32f\libgcc.a(_clz.o)
 .data          0x0000000000000000        0x0 d:/software/yuyin/qiqiyinqiluntai/riscv-nuclei-elf-gcc-9.2.0.0/gcc_fix_raissrc/bin/../lib/gcc/riscv-nuclei-elf/9.2.0/rv32imafc/ilp32f\libgcc.a(_clz.o)
 .bss           0x0000000000000000        0x0 d:/software/yuyin/qiqiyinqiluntai/riscv-nuclei-elf-gcc-9.2.0.0/gcc_fix_raissrc/bin/../lib/gcc/riscv-nuclei-elf/9.2.0/rv32imafc/ilp32f\libgcc.a(_clz.o)
 .text          0x0000000000000000        0x0 d:/software/yuyin/qiqiyinqiluntai/riscv-nuclei-elf-gcc-9.2.0.0/gcc_fix_raissrc/bin/../lib/gcc/riscv-nuclei-elf/9.2.0/../../../../riscv-nuclei-elf/lib/rv32imafc/ilp32f\libg_nano.a(lib_a-atexit.o)
 .data          0x0000000000000000        0x0 d:/software/yuyin/qiqiyinqiluntai/riscv-nuclei-elf-gcc-9.2.0.0/gcc_fix_raissrc/bin/../lib/gcc/riscv-nuclei-elf/9.2.0/../../../../riscv-nuclei-elf/lib/rv32imafc/ilp32f\libg_nano.a(lib_a-atexit.o)
 .bss           0x0000000000000000        0x0 d:/software/yuyin/qiqiyinqiluntai/riscv-nuclei-elf-gcc-9.2.0.0/gcc_fix_raissrc/bin/../lib/gcc/riscv-nuclei-elf/9.2.0/../../../../riscv-nuclei-elf/lib/rv32imafc/ilp32f\libg_nano.a(lib_a-atexit.o)
 .text          0x0000000000000000        0x0 d:/software/yuyin/qiqiyinqiluntai/riscv-nuclei-elf-gcc-9.2.0.0/gcc_fix_raissrc/bin/../lib/gcc/riscv-nuclei-elf/9.2.0/../../../../riscv-nuclei-elf/lib/rv32imafc/ilp32f\libg_nano.a(lib_a-exit.o)
 .data          0x0000000000000000        0x0 d:/software/yuyin/qiqiyinqiluntai/riscv-nuclei-elf-gcc-9.2.0.0/gcc_fix_raissrc/bin/../lib/gcc/riscv-nuclei-elf/9.2.0/../../../../riscv-nuclei-elf/lib/rv32imafc/ilp32f\libg_nano.a(lib_a-exit.o)
 .bss           0x0000000000000000        0x0 d:/software/yuyin/qiqiyinqiluntai/riscv-nuclei-elf-gcc-9.2.0.0/gcc_fix_raissrc/bin/../lib/gcc/riscv-nuclei-elf/9.2.0/../../../../riscv-nuclei-elf/lib/rv32imafc/ilp32f\libg_nano.a(lib_a-exit.o)
 .text          0x0000000000000000        0x0 d:/software/yuyin/qiqiyinqiluntai/riscv-nuclei-elf-gcc-9.2.0.0/gcc_fix_raissrc/bin/../lib/gcc/riscv-nuclei-elf/9.2.0/../../../../riscv-nuclei-elf/lib/rv32imafc/ilp32f\libg_nano.a(lib_a-fini.o)
 .data          0x0000000000000000        0x0 d:/software/yuyin/qiqiyinqiluntai/riscv-nuclei-elf-gcc-9.2.0.0/gcc_fix_raissrc/bin/../lib/gcc/riscv-nuclei-elf/9.2.0/../../../../riscv-nuclei-elf/lib/rv32imafc/ilp32f\libg_nano.a(lib_a-fini.o)
 .bss           0x0000000000000000        0x0 d:/software/yuyin/qiqiyinqiluntai/riscv-nuclei-elf-gcc-9.2.0.0/gcc_fix_raissrc/bin/../lib/gcc/riscv-nuclei-elf/9.2.0/../../../../riscv-nuclei-elf/lib/rv32imafc/ilp32f\libg_nano.a(lib_a-fini.o)
 .text          0x0000000000000000        0x0 d:/software/yuyin/qiqiyinqiluntai/riscv-nuclei-elf-gcc-9.2.0.0/gcc_fix_raissrc/bin/../lib/gcc/riscv-nuclei-elf/9.2.0/../../../../riscv-nuclei-elf/lib/rv32imafc/ilp32f\libg_nano.a(lib_a-impure.o)
 .data          0x0000000000000000        0x0 d:/software/yuyin/qiqiyinqiluntai/riscv-nuclei-elf-gcc-9.2.0.0/gcc_fix_raissrc/bin/../lib/gcc/riscv-nuclei-elf/9.2.0/../../../../riscv-nuclei-elf/lib/rv32imafc/ilp32f\libg_nano.a(lib_a-impure.o)
 .bss           0x0000000000000000        0x0 d:/software/yuyin/qiqiyinqiluntai/riscv-nuclei-elf-gcc-9.2.0.0/gcc_fix_raissrc/bin/../lib/gcc/riscv-nuclei-elf/9.2.0/../../../../riscv-nuclei-elf/lib/rv32imafc/ilp32f\libg_nano.a(lib_a-impure.o)
 .text          0x0000000000000000        0x0 d:/software/yuyin/qiqiyinqiluntai/riscv-nuclei-elf-gcc-9.2.0.0/gcc_fix_raissrc/bin/../lib/gcc/riscv-nuclei-elf/9.2.0/../../../../riscv-nuclei-elf/lib/rv32imafc/ilp32f\libg_nano.a(lib_a-init.o)
 .data          0x0000000000000000        0x0 d:/software/yuyin/qiqiyinqiluntai/riscv-nuclei-elf-gcc-9.2.0.0/gcc_fix_raissrc/bin/../lib/gcc/riscv-nuclei-elf/9.2.0/../../../../riscv-nuclei-elf/lib/rv32imafc/ilp32f\libg_nano.a(lib_a-init.o)
 .bss           0x0000000000000000        0x0 d:/software/yuyin/qiqiyinqiluntai/riscv-nuclei-elf-gcc-9.2.0.0/gcc_fix_raissrc/bin/../lib/gcc/riscv-nuclei-elf/9.2.0/../../../../riscv-nuclei-elf/lib/rv32imafc/ilp32f\libg_nano.a(lib_a-init.o)
 .text          0x0000000000000000        0x0 d:/software/yuyin/qiqiyinqiluntai/riscv-nuclei-elf-gcc-9.2.0.0/gcc_fix_raissrc/bin/../lib/gcc/riscv-nuclei-elf/9.2.0/../../../../riscv-nuclei-elf/lib/rv32imafc/ilp32f\libg_nano.a(lib_a-rand.o)
 .data          0x0000000000000000        0x0 d:/software/yuyin/qiqiyinqiluntai/riscv-nuclei-elf-gcc-9.2.0.0/gcc_fix_raissrc/bin/../lib/gcc/riscv-nuclei-elf/9.2.0/../../../../riscv-nuclei-elf/lib/rv32imafc/ilp32f\libg_nano.a(lib_a-rand.o)
 .bss           0x0000000000000000        0x0 d:/software/yuyin/qiqiyinqiluntai/riscv-nuclei-elf-gcc-9.2.0.0/gcc_fix_raissrc/bin/../lib/gcc/riscv-nuclei-elf/9.2.0/../../../../riscv-nuclei-elf/lib/rv32imafc/ilp32f\libg_nano.a(lib_a-rand.o)
 .text.srand    0x0000000000000000       0x60 d:/software/yuyin/qiqiyinqiluntai/riscv-nuclei-elf-gcc-9.2.0.0/gcc_fix_raissrc/bin/../lib/gcc/riscv-nuclei-elf/9.2.0/../../../../riscv-nuclei-elf/lib/rv32imafc/ilp32f\libg_nano.a(lib_a-rand.o)
 .text.rand     0x0000000000000000       0x8e d:/software/yuyin/qiqiyinqiluntai/riscv-nuclei-elf-gcc-9.2.0.0/gcc_fix_raissrc/bin/../lib/gcc/riscv-nuclei-elf/9.2.0/../../../../riscv-nuclei-elf/lib/rv32imafc/ilp32f\libg_nano.a(lib_a-rand.o)
 .comment       0x0000000000000000       0x12 d:/software/yuyin/qiqiyinqiluntai/riscv-nuclei-elf-gcc-9.2.0.0/gcc_fix_raissrc/bin/../lib/gcc/riscv-nuclei-elf/9.2.0/../../../../riscv-nuclei-elf/lib/rv32imafc/ilp32f\libg_nano.a(lib_a-rand.o)
 .riscv.attributes
                0x0000000000000000       0x30 d:/software/yuyin/qiqiyinqiluntai/riscv-nuclei-elf-gcc-9.2.0.0/gcc_fix_raissrc/bin/../lib/gcc/riscv-nuclei-elf/9.2.0/../../../../riscv-nuclei-elf/lib/rv32imafc/ilp32f\libg_nano.a(lib_a-rand.o)
 .text          0x0000000000000000        0x0 d:/software/yuyin/qiqiyinqiluntai/riscv-nuclei-elf-gcc-9.2.0.0/gcc_fix_raissrc/bin/../lib/gcc/riscv-nuclei-elf/9.2.0/../../../../riscv-nuclei-elf/lib/rv32imafc/ilp32f\libg_nano.a(lib_a-__atexit.o)
 .data          0x0000000000000000        0x0 d:/software/yuyin/qiqiyinqiluntai/riscv-nuclei-elf-gcc-9.2.0.0/gcc_fix_raissrc/bin/../lib/gcc/riscv-nuclei-elf/9.2.0/../../../../riscv-nuclei-elf/lib/rv32imafc/ilp32f\libg_nano.a(lib_a-__atexit.o)
 .bss           0x0000000000000000        0x0 d:/software/yuyin/qiqiyinqiluntai/riscv-nuclei-elf-gcc-9.2.0.0/gcc_fix_raissrc/bin/../lib/gcc/riscv-nuclei-elf/9.2.0/../../../../riscv-nuclei-elf/lib/rv32imafc/ilp32f\libg_nano.a(lib_a-__atexit.o)
 .sdata.__atexit_dummy
                0x0000000000000000        0x4 d:/software/yuyin/qiqiyinqiluntai/riscv-nuclei-elf-gcc-9.2.0.0/gcc_fix_raissrc/bin/../lib/gcc/riscv-nuclei-elf/9.2.0/../../../../riscv-nuclei-elf/lib/rv32imafc/ilp32f\libg_nano.a(lib_a-__atexit.o)
 .text          0x0000000000000000        0x0 d:/software/yuyin/qiqiyinqiluntai/riscv-nuclei-elf-gcc-9.2.0.0/gcc_fix_raissrc/bin/../lib/gcc/riscv-nuclei-elf/9.2.0/../../../../riscv-nuclei-elf/lib/rv32imafc/ilp32f\libg_nano.a(lib_a-__call_atexit.o)
 .data          0x0000000000000000        0x0 d:/software/yuyin/qiqiyinqiluntai/riscv-nuclei-elf-gcc-9.2.0.0/gcc_fix_raissrc/bin/../lib/gcc/riscv-nuclei-elf/9.2.0/../../../../riscv-nuclei-elf/lib/rv32imafc/ilp32f\libg_nano.a(lib_a-__call_atexit.o)
 .bss           0x0000000000000000        0x0 d:/software/yuyin/qiqiyinqiluntai/riscv-nuclei-elf-gcc-9.2.0.0/gcc_fix_raissrc/bin/../lib/gcc/riscv-nuclei-elf/9.2.0/../../../../riscv-nuclei-elf/lib/rv32imafc/ilp32f\libg_nano.a(lib_a-__call_atexit.o)
 .text          0x0000000000000000        0x0 d:/software/yuyin/qiqiyinqiluntai/riscv-nuclei-elf-gcc-9.2.0.0/gcc_fix_raissrc/bin/../lib/gcc/riscv-nuclei-elf/9.2.0/../../../../riscv-nuclei-elf/lib/rv32imafc/ilp32f\libg_nano.a(lib_a-calloc.o)
 .data          0x0000000000000000        0x0 d:/software/yuyin/qiqiyinqiluntai/riscv-nuclei-elf-gcc-9.2.0.0/gcc_fix_raissrc/bin/../lib/gcc/riscv-nuclei-elf/9.2.0/../../../../riscv-nuclei-elf/lib/rv32imafc/ilp32f\libg_nano.a(lib_a-calloc.o)
 .bss           0x0000000000000000        0x0 d:/software/yuyin/qiqiyinqiluntai/riscv-nuclei-elf-gcc-9.2.0.0/gcc_fix_raissrc/bin/../lib/gcc/riscv-nuclei-elf/9.2.0/../../../../riscv-nuclei-elf/lib/rv32imafc/ilp32f\libg_nano.a(lib_a-calloc.o)
 .text          0x0000000000000000        0x0 d:/software/yuyin/qiqiyinqiluntai/riscv-nuclei-elf-gcc-9.2.0.0/gcc_fix_raissrc/bin/../lib/gcc/riscv-nuclei-elf/9.2.0/../../../../riscv-nuclei-elf/lib/rv32imafc/ilp32f\libg_nano.a(lib_a-fprintf.o)
 .data          0x0000000000000000        0x0 d:/software/yuyin/qiqiyinqiluntai/riscv-nuclei-elf-gcc-9.2.0.0/gcc_fix_raissrc/bin/../lib/gcc/riscv-nuclei-elf/9.2.0/../../../../riscv-nuclei-elf/lib/rv32imafc/ilp32f\libg_nano.a(lib_a-fprintf.o)
 .bss           0x0000000000000000        0x0 d:/software/yuyin/qiqiyinqiluntai/riscv-nuclei-elf-gcc-9.2.0.0/gcc_fix_raissrc/bin/../lib/gcc/riscv-nuclei-elf/9.2.0/../../../../riscv-nuclei-elf/lib/rv32imafc/ilp32f\libg_nano.a(lib_a-fprintf.o)
 .text._fprintf_r
                0x0000000000000000       0x20 d:/software/yuyin/qiqiyinqiluntai/riscv-nuclei-elf-gcc-9.2.0.0/gcc_fix_raissrc/bin/../lib/gcc/riscv-nuclei-elf/9.2.0/../../../../riscv-nuclei-elf/lib/rv32imafc/ilp32f\libg_nano.a(lib_a-fprintf.o)
 .text          0x0000000000000000        0x0 d:/software/yuyin/qiqiyinqiluntai/riscv-nuclei-elf-gcc-9.2.0.0/gcc_fix_raissrc/bin/../lib/gcc/riscv-nuclei-elf/9.2.0/../../../../riscv-nuclei-elf/lib/rv32imafc/ilp32f\libg_nano.a(lib_a-nano-callocr.o)
 .data          0x0000000000000000        0x0 d:/software/yuyin/qiqiyinqiluntai/riscv-nuclei-elf-gcc-9.2.0.0/gcc_fix_raissrc/bin/../lib/gcc/riscv-nuclei-elf/9.2.0/../../../../riscv-nuclei-elf/lib/rv32imafc/ilp32f\libg_nano.a(lib_a-nano-callocr.o)
 .bss           0x0000000000000000        0x0 d:/software/yuyin/qiqiyinqiluntai/riscv-nuclei-elf-gcc-9.2.0.0/gcc_fix_raissrc/bin/../lib/gcc/riscv-nuclei-elf/9.2.0/../../../../riscv-nuclei-elf/lib/rv32imafc/ilp32f\libg_nano.a(lib_a-nano-callocr.o)
 .text          0x0000000000000000        0x0 d:/software/yuyin/qiqiyinqiluntai/riscv-nuclei-elf-gcc-9.2.0.0/gcc_fix_raissrc/bin/../lib/gcc/riscv-nuclei-elf/9.2.0/../../../../riscv-nuclei-elf/lib/rv32imafc/ilp32f\libg_nano.a(lib_a-nano-mallocr.o)
 .data          0x0000000000000000        0x0 d:/software/yuyin/qiqiyinqiluntai/riscv-nuclei-elf-gcc-9.2.0.0/gcc_fix_raissrc/bin/../lib/gcc/riscv-nuclei-elf/9.2.0/../../../../riscv-nuclei-elf/lib/rv32imafc/ilp32f\libg_nano.a(lib_a-nano-mallocr.o)
 .bss           0x0000000000000000        0x0 d:/software/yuyin/qiqiyinqiluntai/riscv-nuclei-elf-gcc-9.2.0.0/gcc_fix_raissrc/bin/../lib/gcc/riscv-nuclei-elf/9.2.0/../../../../riscv-nuclei-elf/lib/rv32imafc/ilp32f\libg_nano.a(lib_a-nano-mallocr.o)
 .text          0x0000000000000000        0x0 d:/software/yuyin/qiqiyinqiluntai/riscv-nuclei-elf-gcc-9.2.0.0/gcc_fix_raissrc/bin/../lib/gcc/riscv-nuclei-elf/9.2.0/../../../../riscv-nuclei-elf/lib/rv32imafc/ilp32f\libg_nano.a(lib_a-nano-vfprintf.o)
 .data          0x0000000000000000        0x0 d:/software/yuyin/qiqiyinqiluntai/riscv-nuclei-elf-gcc-9.2.0.0/gcc_fix_raissrc/bin/../lib/gcc/riscv-nuclei-elf/9.2.0/../../../../riscv-nuclei-elf/lib/rv32imafc/ilp32f\libg_nano.a(lib_a-nano-vfprintf.o)
 .bss           0x0000000000000000        0x0 d:/software/yuyin/qiqiyinqiluntai/riscv-nuclei-elf-gcc-9.2.0.0/gcc_fix_raissrc/bin/../lib/gcc/riscv-nuclei-elf/9.2.0/../../../../riscv-nuclei-elf/lib/rv32imafc/ilp32f\libg_nano.a(lib_a-nano-vfprintf.o)
 .text.__sprint_r
                0x0000000000000000       0x2c d:/software/yuyin/qiqiyinqiluntai/riscv-nuclei-elf-gcc-9.2.0.0/gcc_fix_raissrc/bin/../lib/gcc/riscv-nuclei-elf/9.2.0/../../../../riscv-nuclei-elf/lib/rv32imafc/ilp32f\libg_nano.a(lib_a-nano-vfprintf.o)
 .text.vfprintf
                0x0000000000000000       0x16 d:/software/yuyin/qiqiyinqiluntai/riscv-nuclei-elf-gcc-9.2.0.0/gcc_fix_raissrc/bin/../lib/gcc/riscv-nuclei-elf/9.2.0/../../../../riscv-nuclei-elf/lib/rv32imafc/ilp32f\libg_nano.a(lib_a-nano-vfprintf.o)
 .text          0x0000000000000000        0x0 d:/software/yuyin/qiqiyinqiluntai/riscv-nuclei-elf-gcc-9.2.0.0/gcc_fix_raissrc/bin/../lib/gcc/riscv-nuclei-elf/9.2.0/../../../../riscv-nuclei-elf/lib/rv32imafc/ilp32f\libg_nano.a(lib_a-realloc.o)
 .data          0x0000000000000000        0x0 d:/software/yuyin/qiqiyinqiluntai/riscv-nuclei-elf-gcc-9.2.0.0/gcc_fix_raissrc/bin/../lib/gcc/riscv-nuclei-elf/9.2.0/../../../../riscv-nuclei-elf/lib/rv32imafc/ilp32f\libg_nano.a(lib_a-realloc.o)
 .bss           0x0000000000000000        0x0 d:/software/yuyin/qiqiyinqiluntai/riscv-nuclei-elf-gcc-9.2.0.0/gcc_fix_raissrc/bin/../lib/gcc/riscv-nuclei-elf/9.2.0/../../../../riscv-nuclei-elf/lib/rv32imafc/ilp32f\libg_nano.a(lib_a-realloc.o)
 .text          0x0000000000000000        0x0 d:/software/yuyin/qiqiyinqiluntai/riscv-nuclei-elf-gcc-9.2.0.0/gcc_fix_raissrc/bin/../lib/gcc/riscv-nuclei-elf/9.2.0/../../../../riscv-nuclei-elf/lib/rv32imafc/ilp32f\libg_nano.a(lib_a-sbrkr.o)
 .data          0x0000000000000000        0x0 d:/software/yuyin/qiqiyinqiluntai/riscv-nuclei-elf-gcc-9.2.0.0/gcc_fix_raissrc/bin/../lib/gcc/riscv-nuclei-elf/9.2.0/../../../../riscv-nuclei-elf/lib/rv32imafc/ilp32f\libg_nano.a(lib_a-sbrkr.o)
 .bss           0x0000000000000000        0x0 d:/software/yuyin/qiqiyinqiluntai/riscv-nuclei-elf-gcc-9.2.0.0/gcc_fix_raissrc/bin/../lib/gcc/riscv-nuclei-elf/9.2.0/../../../../riscv-nuclei-elf/lib/rv32imafc/ilp32f\libg_nano.a(lib_a-sbrkr.o)
 .text          0x0000000000000000        0x0 d:/software/yuyin/qiqiyinqiluntai/riscv-nuclei-elf-gcc-9.2.0.0/gcc_fix_raissrc/bin/../lib/gcc/riscv-nuclei-elf/9.2.0/../../../../riscv-nuclei-elf/lib/rv32imafc/ilp32f\libg_nano.a(lib_a-wbuf.o)
 .data          0x0000000000000000        0x0 d:/software/yuyin/qiqiyinqiluntai/riscv-nuclei-elf-gcc-9.2.0.0/gcc_fix_raissrc/bin/../lib/gcc/riscv-nuclei-elf/9.2.0/../../../../riscv-nuclei-elf/lib/rv32imafc/ilp32f\libg_nano.a(lib_a-wbuf.o)
 .bss           0x0000000000000000        0x0 d:/software/yuyin/qiqiyinqiluntai/riscv-nuclei-elf-gcc-9.2.0.0/gcc_fix_raissrc/bin/../lib/gcc/riscv-nuclei-elf/9.2.0/../../../../riscv-nuclei-elf/lib/rv32imafc/ilp32f\libg_nano.a(lib_a-wbuf.o)
 .text.__swbuf  0x0000000000000000       0x14 d:/software/yuyin/qiqiyinqiluntai/riscv-nuclei-elf-gcc-9.2.0.0/gcc_fix_raissrc/bin/../lib/gcc/riscv-nuclei-elf/9.2.0/../../../../riscv-nuclei-elf/lib/rv32imafc/ilp32f\libg_nano.a(lib_a-wbuf.o)
 .text          0x0000000000000000        0x0 d:/software/yuyin/qiqiyinqiluntai/riscv-nuclei-elf-gcc-9.2.0.0/gcc_fix_raissrc/bin/../lib/gcc/riscv-nuclei-elf/9.2.0/../../../../riscv-nuclei-elf/lib/rv32imafc/ilp32f\libg_nano.a(lib_a-wsetup.o)
 .data          0x0000000000000000        0x0 d:/software/yuyin/qiqiyinqiluntai/riscv-nuclei-elf-gcc-9.2.0.0/gcc_fix_raissrc/bin/../lib/gcc/riscv-nuclei-elf/9.2.0/../../../../riscv-nuclei-elf/lib/rv32imafc/ilp32f\libg_nano.a(lib_a-wsetup.o)
 .bss           0x0000000000000000        0x0 d:/software/yuyin/qiqiyinqiluntai/riscv-nuclei-elf-gcc-9.2.0.0/gcc_fix_raissrc/bin/../lib/gcc/riscv-nuclei-elf/9.2.0/../../../../riscv-nuclei-elf/lib/rv32imafc/ilp32f\libg_nano.a(lib_a-wsetup.o)
 .text          0x0000000000000000        0x0 d:/software/yuyin/qiqiyinqiluntai/riscv-nuclei-elf-gcc-9.2.0.0/gcc_fix_raissrc/bin/../lib/gcc/riscv-nuclei-elf/9.2.0/../../../../riscv-nuclei-elf/lib/rv32imafc/ilp32f\libg_nano.a(lib_a-fflush.o)
 .data          0x0000000000000000        0x0 d:/software/yuyin/qiqiyinqiluntai/riscv-nuclei-elf-gcc-9.2.0.0/gcc_fix_raissrc/bin/../lib/gcc/riscv-nuclei-elf/9.2.0/../../../../riscv-nuclei-elf/lib/rv32imafc/ilp32f\libg_nano.a(lib_a-fflush.o)
 .bss           0x0000000000000000        0x0 d:/software/yuyin/qiqiyinqiluntai/riscv-nuclei-elf-gcc-9.2.0.0/gcc_fix_raissrc/bin/../lib/gcc/riscv-nuclei-elf/9.2.0/../../../../riscv-nuclei-elf/lib/rv32imafc/ilp32f\libg_nano.a(lib_a-fflush.o)
 .text.fflush   0x0000000000000000       0x2c d:/software/yuyin/qiqiyinqiluntai/riscv-nuclei-elf-gcc-9.2.0.0/gcc_fix_raissrc/bin/../lib/gcc/riscv-nuclei-elf/9.2.0/../../../../riscv-nuclei-elf/lib/rv32imafc/ilp32f\libg_nano.a(lib_a-fflush.o)
 .text          0x0000000000000000        0x0 d:/software/yuyin/qiqiyinqiluntai/riscv-nuclei-elf-gcc-9.2.0.0/gcc_fix_raissrc/bin/../lib/gcc/riscv-nuclei-elf/9.2.0/../../../../riscv-nuclei-elf/lib/rv32imafc/ilp32f\libg_nano.a(lib_a-findfp.o)
 .data          0x0000000000000000        0x0 d:/software/yuyin/qiqiyinqiluntai/riscv-nuclei-elf-gcc-9.2.0.0/gcc_fix_raissrc/bin/../lib/gcc/riscv-nuclei-elf/9.2.0/../../../../riscv-nuclei-elf/lib/rv32imafc/ilp32f\libg_nano.a(lib_a-findfp.o)
 .bss           0x0000000000000000        0x0 d:/software/yuyin/qiqiyinqiluntai/riscv-nuclei-elf-gcc-9.2.0.0/gcc_fix_raissrc/bin/../lib/gcc/riscv-nuclei-elf/9.2.0/../../../../riscv-nuclei-elf/lib/rv32imafc/ilp32f\libg_nano.a(lib_a-findfp.o)
 .text.__fp_lock
                0x0000000000000000        0x4 d:/software/yuyin/qiqiyinqiluntai/riscv-nuclei-elf-gcc-9.2.0.0/gcc_fix_raissrc/bin/../lib/gcc/riscv-nuclei-elf/9.2.0/../../../../riscv-nuclei-elf/lib/rv32imafc/ilp32f\libg_nano.a(lib_a-findfp.o)
 .text.__fp_unlock
                0x0000000000000000        0x4 d:/software/yuyin/qiqiyinqiluntai/riscv-nuclei-elf-gcc-9.2.0.0/gcc_fix_raissrc/bin/../lib/gcc/riscv-nuclei-elf/9.2.0/../../../../riscv-nuclei-elf/lib/rv32imafc/ilp32f\libg_nano.a(lib_a-findfp.o)
 .text._cleanup
                0x0000000000000000       0x10 d:/software/yuyin/qiqiyinqiluntai/riscv-nuclei-elf-gcc-9.2.0.0/gcc_fix_raissrc/bin/../lib/gcc/riscv-nuclei-elf/9.2.0/../../../../riscv-nuclei-elf/lib/rv32imafc/ilp32f\libg_nano.a(lib_a-findfp.o)
 .text.__sfp_lock_acquire
                0x0000000000000000        0x2 d:/software/yuyin/qiqiyinqiluntai/riscv-nuclei-elf-gcc-9.2.0.0/gcc_fix_raissrc/bin/../lib/gcc/riscv-nuclei-elf/9.2.0/../../../../riscv-nuclei-elf/lib/rv32imafc/ilp32f\libg_nano.a(lib_a-findfp.o)
 .text.__sfp_lock_release
                0x0000000000000000        0x2 d:/software/yuyin/qiqiyinqiluntai/riscv-nuclei-elf-gcc-9.2.0.0/gcc_fix_raissrc/bin/../lib/gcc/riscv-nuclei-elf/9.2.0/../../../../riscv-nuclei-elf/lib/rv32imafc/ilp32f\libg_nano.a(lib_a-findfp.o)
 .text.__sinit_lock_acquire
                0x0000000000000000        0x2 d:/software/yuyin/qiqiyinqiluntai/riscv-nuclei-elf-gcc-9.2.0.0/gcc_fix_raissrc/bin/../lib/gcc/riscv-nuclei-elf/9.2.0/../../../../riscv-nuclei-elf/lib/rv32imafc/ilp32f\libg_nano.a(lib_a-findfp.o)
 .text.__sinit_lock_release
                0x0000000000000000        0x2 d:/software/yuyin/qiqiyinqiluntai/riscv-nuclei-elf-gcc-9.2.0.0/gcc_fix_raissrc/bin/../lib/gcc/riscv-nuclei-elf/9.2.0/../../../../riscv-nuclei-elf/lib/rv32imafc/ilp32f\libg_nano.a(lib_a-findfp.o)
 .text.__fp_lock_all
                0x0000000000000000       0x18 d:/software/yuyin/qiqiyinqiluntai/riscv-nuclei-elf-gcc-9.2.0.0/gcc_fix_raissrc/bin/../lib/gcc/riscv-nuclei-elf/9.2.0/../../../../riscv-nuclei-elf/lib/rv32imafc/ilp32f\libg_nano.a(lib_a-findfp.o)
 .text.__fp_unlock_all
                0x0000000000000000       0x18 d:/software/yuyin/qiqiyinqiluntai/riscv-nuclei-elf-gcc-9.2.0.0/gcc_fix_raissrc/bin/../lib/gcc/riscv-nuclei-elf/9.2.0/../../../../riscv-nuclei-elf/lib/rv32imafc/ilp32f\libg_nano.a(lib_a-findfp.o)
 .text          0x0000000000000000        0x0 d:/software/yuyin/qiqiyinqiluntai/riscv-nuclei-elf-gcc-9.2.0.0/gcc_fix_raissrc/bin/../lib/gcc/riscv-nuclei-elf/9.2.0/../../../../riscv-nuclei-elf/lib/rv32imafc/ilp32f\libg_nano.a(lib_a-fvwrite.o)
 .data          0x0000000000000000        0x0 d:/software/yuyin/qiqiyinqiluntai/riscv-nuclei-elf-gcc-9.2.0.0/gcc_fix_raissrc/bin/../lib/gcc/riscv-nuclei-elf/9.2.0/../../../../riscv-nuclei-elf/lib/rv32imafc/ilp32f\libg_nano.a(lib_a-fvwrite.o)
 .bss           0x0000000000000000        0x0 d:/software/yuyin/qiqiyinqiluntai/riscv-nuclei-elf-gcc-9.2.0.0/gcc_fix_raissrc/bin/../lib/gcc/riscv-nuclei-elf/9.2.0/../../../../riscv-nuclei-elf/lib/rv32imafc/ilp32f\libg_nano.a(lib_a-fvwrite.o)
 .text.__sfvwrite_r
                0x0000000000000000      0x316 d:/software/yuyin/qiqiyinqiluntai/riscv-nuclei-elf-gcc-9.2.0.0/gcc_fix_raissrc/bin/../lib/gcc/riscv-nuclei-elf/9.2.0/../../../../riscv-nuclei-elf/lib/rv32imafc/ilp32f\libg_nano.a(lib_a-fvwrite.o)
 .comment       0x0000000000000000       0x12 d:/software/yuyin/qiqiyinqiluntai/riscv-nuclei-elf-gcc-9.2.0.0/gcc_fix_raissrc/bin/../lib/gcc/riscv-nuclei-elf/9.2.0/../../../../riscv-nuclei-elf/lib/rv32imafc/ilp32f\libg_nano.a(lib_a-fvwrite.o)
 .riscv.attributes
                0x0000000000000000       0x30 d:/software/yuyin/qiqiyinqiluntai/riscv-nuclei-elf-gcc-9.2.0.0/gcc_fix_raissrc/bin/../lib/gcc/riscv-nuclei-elf/9.2.0/../../../../riscv-nuclei-elf/lib/rv32imafc/ilp32f\libg_nano.a(lib_a-fvwrite.o)
 .text          0x0000000000000000        0x0 d:/software/yuyin/qiqiyinqiluntai/riscv-nuclei-elf-gcc-9.2.0.0/gcc_fix_raissrc/bin/../lib/gcc/riscv-nuclei-elf/9.2.0/../../../../riscv-nuclei-elf/lib/rv32imafc/ilp32f\libg_nano.a(lib_a-fwalk.o)
 .data          0x0000000000000000        0x0 d:/software/yuyin/qiqiyinqiluntai/riscv-nuclei-elf-gcc-9.2.0.0/gcc_fix_raissrc/bin/../lib/gcc/riscv-nuclei-elf/9.2.0/../../../../riscv-nuclei-elf/lib/rv32imafc/ilp32f\libg_nano.a(lib_a-fwalk.o)
 .bss           0x0000000000000000        0x0 d:/software/yuyin/qiqiyinqiluntai/riscv-nuclei-elf-gcc-9.2.0.0/gcc_fix_raissrc/bin/../lib/gcc/riscv-nuclei-elf/9.2.0/../../../../riscv-nuclei-elf/lib/rv32imafc/ilp32f\libg_nano.a(lib_a-fwalk.o)
 .text._fwalk   0x0000000000000000       0x62 d:/software/yuyin/qiqiyinqiluntai/riscv-nuclei-elf-gcc-9.2.0.0/gcc_fix_raissrc/bin/../lib/gcc/riscv-nuclei-elf/9.2.0/../../../../riscv-nuclei-elf/lib/rv32imafc/ilp32f\libg_nano.a(lib_a-fwalk.o)
 .text          0x0000000000000000        0x0 d:/software/yuyin/qiqiyinqiluntai/riscv-nuclei-elf-gcc-9.2.0.0/gcc_fix_raissrc/bin/../lib/gcc/riscv-nuclei-elf/9.2.0/../../../../riscv-nuclei-elf/lib/rv32imafc/ilp32f\libg_nano.a(lib_a-makebuf.o)
 .data          0x0000000000000000        0x0 d:/software/yuyin/qiqiyinqiluntai/riscv-nuclei-elf-gcc-9.2.0.0/gcc_fix_raissrc/bin/../lib/gcc/riscv-nuclei-elf/9.2.0/../../../../riscv-nuclei-elf/lib/rv32imafc/ilp32f\libg_nano.a(lib_a-makebuf.o)
 .bss           0x0000000000000000        0x0 d:/software/yuyin/qiqiyinqiluntai/riscv-nuclei-elf-gcc-9.2.0.0/gcc_fix_raissrc/bin/../lib/gcc/riscv-nuclei-elf/9.2.0/../../../../riscv-nuclei-elf/lib/rv32imafc/ilp32f\libg_nano.a(lib_a-makebuf.o)
 .text          0x0000000000000000        0x0 d:/software/yuyin/qiqiyinqiluntai/riscv-nuclei-elf-gcc-9.2.0.0/gcc_fix_raissrc/bin/../lib/gcc/riscv-nuclei-elf/9.2.0/../../../../riscv-nuclei-elf/lib/rv32imafc/ilp32f\libg_nano.a(lib_a-memchr.o)
 .data          0x0000000000000000        0x0 d:/software/yuyin/qiqiyinqiluntai/riscv-nuclei-elf-gcc-9.2.0.0/gcc_fix_raissrc/bin/../lib/gcc/riscv-nuclei-elf/9.2.0/../../../../riscv-nuclei-elf/lib/rv32imafc/ilp32f\libg_nano.a(lib_a-memchr.o)
 .bss           0x0000000000000000        0x0 d:/software/yuyin/qiqiyinqiluntai/riscv-nuclei-elf-gcc-9.2.0.0/gcc_fix_raissrc/bin/../lib/gcc/riscv-nuclei-elf/9.2.0/../../../../riscv-nuclei-elf/lib/rv32imafc/ilp32f\libg_nano.a(lib_a-memchr.o)
 .text          0x0000000000000000        0x0 d:/software/yuyin/qiqiyinqiluntai/riscv-nuclei-elf-gcc-9.2.0.0/gcc_fix_raissrc/bin/../lib/gcc/riscv-nuclei-elf/9.2.0/../../../../riscv-nuclei-elf/lib/rv32imafc/ilp32f\libg_nano.a(lib_a-nano-freer.o)
 .data          0x0000000000000000        0x0 d:/software/yuyin/qiqiyinqiluntai/riscv-nuclei-elf-gcc-9.2.0.0/gcc_fix_raissrc/bin/../lib/gcc/riscv-nuclei-elf/9.2.0/../../../../riscv-nuclei-elf/lib/rv32imafc/ilp32f\libg_nano.a(lib_a-nano-freer.o)
 .bss           0x0000000000000000        0x0 d:/software/yuyin/qiqiyinqiluntai/riscv-nuclei-elf-gcc-9.2.0.0/gcc_fix_raissrc/bin/../lib/gcc/riscv-nuclei-elf/9.2.0/../../../../riscv-nuclei-elf/lib/rv32imafc/ilp32f\libg_nano.a(lib_a-nano-freer.o)
 .text          0x0000000000000000        0x0 d:/software/yuyin/qiqiyinqiluntai/riscv-nuclei-elf-gcc-9.2.0.0/gcc_fix_raissrc/bin/../lib/gcc/riscv-nuclei-elf/9.2.0/../../../../riscv-nuclei-elf/lib/rv32imafc/ilp32f\libg_nano.a(lib_a-nano-reallocr.o)
 .data          0x0000000000000000        0x0 d:/software/yuyin/qiqiyinqiluntai/riscv-nuclei-elf-gcc-9.2.0.0/gcc_fix_raissrc/bin/../lib/gcc/riscv-nuclei-elf/9.2.0/../../../../riscv-nuclei-elf/lib/rv32imafc/ilp32f\libg_nano.a(lib_a-nano-reallocr.o)
 .bss           0x0000000000000000        0x0 d:/software/yuyin/qiqiyinqiluntai/riscv-nuclei-elf-gcc-9.2.0.0/gcc_fix_raissrc/bin/../lib/gcc/riscv-nuclei-elf/9.2.0/../../../../riscv-nuclei-elf/lib/rv32imafc/ilp32f\libg_nano.a(lib_a-nano-reallocr.o)
 .text          0x0000000000000000        0x0 d:/software/yuyin/qiqiyinqiluntai/riscv-nuclei-elf-gcc-9.2.0.0/gcc_fix_raissrc/bin/../lib/gcc/riscv-nuclei-elf/9.2.0/../../../../riscv-nuclei-elf/lib/rv32imafc/ilp32f\libg_nano.a(lib_a-nano-vfprintf_i.o)
 .data          0x0000000000000000        0x0 d:/software/yuyin/qiqiyinqiluntai/riscv-nuclei-elf-gcc-9.2.0.0/gcc_fix_raissrc/bin/../lib/gcc/riscv-nuclei-elf/9.2.0/../../../../riscv-nuclei-elf/lib/rv32imafc/ilp32f\libg_nano.a(lib_a-nano-vfprintf_i.o)
 .bss           0x0000000000000000        0x0 d:/software/yuyin/qiqiyinqiluntai/riscv-nuclei-elf-gcc-9.2.0.0/gcc_fix_raissrc/bin/../lib/gcc/riscv-nuclei-elf/9.2.0/../../../../riscv-nuclei-elf/lib/rv32imafc/ilp32f\libg_nano.a(lib_a-nano-vfprintf_i.o)
 .text          0x0000000000000000        0x0 d:/software/yuyin/qiqiyinqiluntai/riscv-nuclei-elf-gcc-9.2.0.0/gcc_fix_raissrc/bin/../lib/gcc/riscv-nuclei-elf/9.2.0/../../../../riscv-nuclei-elf/lib/rv32imafc/ilp32f\libg_nano.a(lib_a-reent.o)
 .data          0x0000000000000000        0x0 d:/software/yuyin/qiqiyinqiluntai/riscv-nuclei-elf-gcc-9.2.0.0/gcc_fix_raissrc/bin/../lib/gcc/riscv-nuclei-elf/9.2.0/../../../../riscv-nuclei-elf/lib/rv32imafc/ilp32f\libg_nano.a(lib_a-reent.o)
 .bss           0x0000000000000000        0x0 d:/software/yuyin/qiqiyinqiluntai/riscv-nuclei-elf-gcc-9.2.0.0/gcc_fix_raissrc/bin/../lib/gcc/riscv-nuclei-elf/9.2.0/../../../../riscv-nuclei-elf/lib/rv32imafc/ilp32f\libg_nano.a(lib_a-reent.o)
 .text.cleanup_glue
                0x0000000000000000       0x2c d:/software/yuyin/qiqiyinqiluntai/riscv-nuclei-elf-gcc-9.2.0.0/gcc_fix_raissrc/bin/../lib/gcc/riscv-nuclei-elf/9.2.0/../../../../riscv-nuclei-elf/lib/rv32imafc/ilp32f\libg_nano.a(lib_a-reent.o)
 .text._reclaim_reent
                0x0000000000000000      0x10a d:/software/yuyin/qiqiyinqiluntai/riscv-nuclei-elf-gcc-9.2.0.0/gcc_fix_raissrc/bin/../lib/gcc/riscv-nuclei-elf/9.2.0/../../../../riscv-nuclei-elf/lib/rv32imafc/ilp32f\libg_nano.a(lib_a-reent.o)
 .text          0x0000000000000000        0x0 d:/software/yuyin/qiqiyinqiluntai/riscv-nuclei-elf-gcc-9.2.0.0/gcc_fix_raissrc/bin/../lib/gcc/riscv-nuclei-elf/9.2.0/../../../../riscv-nuclei-elf/lib/rv32imafc/ilp32f\libg_nano.a(lib_a-stdio.o)
 .data          0x0000000000000000        0x0 d:/software/yuyin/qiqiyinqiluntai/riscv-nuclei-elf-gcc-9.2.0.0/gcc_fix_raissrc/bin/../lib/gcc/riscv-nuclei-elf/9.2.0/../../../../riscv-nuclei-elf/lib/rv32imafc/ilp32f\libg_nano.a(lib_a-stdio.o)
 .bss           0x0000000000000000        0x0 d:/software/yuyin/qiqiyinqiluntai/riscv-nuclei-elf-gcc-9.2.0.0/gcc_fix_raissrc/bin/../lib/gcc/riscv-nuclei-elf/9.2.0/../../../../riscv-nuclei-elf/lib/rv32imafc/ilp32f\libg_nano.a(lib_a-stdio.o)
 .text.__seofread
                0x0000000000000000        0x4 d:/software/yuyin/qiqiyinqiluntai/riscv-nuclei-elf-gcc-9.2.0.0/gcc_fix_raissrc/bin/../lib/gcc/riscv-nuclei-elf/9.2.0/../../../../riscv-nuclei-elf/lib/rv32imafc/ilp32f\libg_nano.a(lib_a-stdio.o)
 .text          0x0000000000000000        0x0 d:/software/yuyin/qiqiyinqiluntai/riscv-nuclei-elf-gcc-9.2.0.0/gcc_fix_raissrc/bin/../lib/gcc/riscv-nuclei-elf/9.2.0/../../../../riscv-nuclei-elf/lib/rv32imafc/ilp32f\libg_nano.a(lib_a-writer.o)
 .data          0x0000000000000000        0x0 d:/software/yuyin/qiqiyinqiluntai/riscv-nuclei-elf-gcc-9.2.0.0/gcc_fix_raissrc/bin/../lib/gcc/riscv-nuclei-elf/9.2.0/../../../../riscv-nuclei-elf/lib/rv32imafc/ilp32f\libg_nano.a(lib_a-writer.o)
 .bss           0x0000000000000000        0x0 d:/software/yuyin/qiqiyinqiluntai/riscv-nuclei-elf-gcc-9.2.0.0/gcc_fix_raissrc/bin/../lib/gcc/riscv-nuclei-elf/9.2.0/../../../../riscv-nuclei-elf/lib/rv32imafc/ilp32f\libg_nano.a(lib_a-writer.o)
 .text          0x0000000000000000        0x0 d:/software/yuyin/qiqiyinqiluntai/riscv-nuclei-elf-gcc-9.2.0.0/gcc_fix_raissrc/bin/../lib/gcc/riscv-nuclei-elf/9.2.0/../../../../riscv-nuclei-elf/lib/rv32imafc/ilp32f\libg_nano.a(lib_a-closer.o)
 .data          0x0000000000000000        0x0 d:/software/yuyin/qiqiyinqiluntai/riscv-nuclei-elf-gcc-9.2.0.0/gcc_fix_raissrc/bin/../lib/gcc/riscv-nuclei-elf/9.2.0/../../../../riscv-nuclei-elf/lib/rv32imafc/ilp32f\libg_nano.a(lib_a-closer.o)
 .bss           0x0000000000000000        0x0 d:/software/yuyin/qiqiyinqiluntai/riscv-nuclei-elf-gcc-9.2.0.0/gcc_fix_raissrc/bin/../lib/gcc/riscv-nuclei-elf/9.2.0/../../../../riscv-nuclei-elf/lib/rv32imafc/ilp32f\libg_nano.a(lib_a-closer.o)
 .text          0x0000000000000000        0x0 d:/software/yuyin/qiqiyinqiluntai/riscv-nuclei-elf-gcc-9.2.0.0/gcc_fix_raissrc/bin/../lib/gcc/riscv-nuclei-elf/9.2.0/../../../../riscv-nuclei-elf/lib/rv32imafc/ilp32f\libg_nano.a(lib_a-fstatr.o)
 .data          0x0000000000000000        0x0 d:/software/yuyin/qiqiyinqiluntai/riscv-nuclei-elf-gcc-9.2.0.0/gcc_fix_raissrc/bin/../lib/gcc/riscv-nuclei-elf/9.2.0/../../../../riscv-nuclei-elf/lib/rv32imafc/ilp32f\libg_nano.a(lib_a-fstatr.o)
 .bss           0x0000000000000000        0x0 d:/software/yuyin/qiqiyinqiluntai/riscv-nuclei-elf-gcc-9.2.0.0/gcc_fix_raissrc/bin/../lib/gcc/riscv-nuclei-elf/9.2.0/../../../../riscv-nuclei-elf/lib/rv32imafc/ilp32f\libg_nano.a(lib_a-fstatr.o)
 .text          0x0000000000000000        0x0 d:/software/yuyin/qiqiyinqiluntai/riscv-nuclei-elf-gcc-9.2.0.0/gcc_fix_raissrc/bin/../lib/gcc/riscv-nuclei-elf/9.2.0/../../../../riscv-nuclei-elf/lib/rv32imafc/ilp32f\libg_nano.a(lib_a-isattyr.o)
 .data          0x0000000000000000        0x0 d:/software/yuyin/qiqiyinqiluntai/riscv-nuclei-elf-gcc-9.2.0.0/gcc_fix_raissrc/bin/../lib/gcc/riscv-nuclei-elf/9.2.0/../../../../riscv-nuclei-elf/lib/rv32imafc/ilp32f\libg_nano.a(lib_a-isattyr.o)
 .bss           0x0000000000000000        0x0 d:/software/yuyin/qiqiyinqiluntai/riscv-nuclei-elf-gcc-9.2.0.0/gcc_fix_raissrc/bin/../lib/gcc/riscv-nuclei-elf/9.2.0/../../../../riscv-nuclei-elf/lib/rv32imafc/ilp32f\libg_nano.a(lib_a-isattyr.o)
 .text          0x0000000000000000        0x0 d:/software/yuyin/qiqiyinqiluntai/riscv-nuclei-elf-gcc-9.2.0.0/gcc_fix_raissrc/bin/../lib/gcc/riscv-nuclei-elf/9.2.0/../../../../riscv-nuclei-elf/lib/rv32imafc/ilp32f\libg_nano.a(lib_a-lseekr.o)
 .data          0x0000000000000000        0x0 d:/software/yuyin/qiqiyinqiluntai/riscv-nuclei-elf-gcc-9.2.0.0/gcc_fix_raissrc/bin/../lib/gcc/riscv-nuclei-elf/9.2.0/../../../../riscv-nuclei-elf/lib/rv32imafc/ilp32f\libg_nano.a(lib_a-lseekr.o)
 .bss           0x0000000000000000        0x0 d:/software/yuyin/qiqiyinqiluntai/riscv-nuclei-elf-gcc-9.2.0.0/gcc_fix_raissrc/bin/../lib/gcc/riscv-nuclei-elf/9.2.0/../../../../riscv-nuclei-elf/lib/rv32imafc/ilp32f\libg_nano.a(lib_a-lseekr.o)
 .text          0x0000000000000000        0x0 d:/software/yuyin/qiqiyinqiluntai/riscv-nuclei-elf-gcc-9.2.0.0/gcc_fix_raissrc/bin/../lib/gcc/riscv-nuclei-elf/9.2.0/../../../../riscv-nuclei-elf/lib/rv32imafc/ilp32f\libg_nano.a(lib_a-nano-msizer.o)
 .data          0x0000000000000000        0x0 d:/software/yuyin/qiqiyinqiluntai/riscv-nuclei-elf-gcc-9.2.0.0/gcc_fix_raissrc/bin/../lib/gcc/riscv-nuclei-elf/9.2.0/../../../../riscv-nuclei-elf/lib/rv32imafc/ilp32f\libg_nano.a(lib_a-nano-msizer.o)
 .bss           0x0000000000000000        0x0 d:/software/yuyin/qiqiyinqiluntai/riscv-nuclei-elf-gcc-9.2.0.0/gcc_fix_raissrc/bin/../lib/gcc/riscv-nuclei-elf/9.2.0/../../../../riscv-nuclei-elf/lib/rv32imafc/ilp32f\libg_nano.a(lib_a-nano-msizer.o)
 .text          0x0000000000000000        0x0 d:/software/yuyin/qiqiyinqiluntai/riscv-nuclei-elf-gcc-9.2.0.0/gcc_fix_raissrc/bin/../lib/gcc/riscv-nuclei-elf/9.2.0/../../../../riscv-nuclei-elf/lib/rv32imafc/ilp32f\libg_nano.a(lib_a-readr.o)
 .data          0x0000000000000000        0x0 d:/software/yuyin/qiqiyinqiluntai/riscv-nuclei-elf-gcc-9.2.0.0/gcc_fix_raissrc/bin/../lib/gcc/riscv-nuclei-elf/9.2.0/../../../../riscv-nuclei-elf/lib/rv32imafc/ilp32f\libg_nano.a(lib_a-readr.o)
 .bss           0x0000000000000000        0x0 d:/software/yuyin/qiqiyinqiluntai/riscv-nuclei-elf-gcc-9.2.0.0/gcc_fix_raissrc/bin/../lib/gcc/riscv-nuclei-elf/9.2.0/../../../../riscv-nuclei-elf/lib/rv32imafc/ilp32f\libg_nano.a(lib_a-readr.o)
 .text          0x0000000000000000        0x0 d:/software/yuyin/qiqiyinqiluntai/riscv-nuclei-elf-gcc-9.2.0.0/gcc_fix_raissrc/bin/../lib/gcc/riscv-nuclei-elf/9.2.0/../../../../riscv-nuclei-elf/lib/rv32imafc/ilp32f\libgloss_nano.a(sys_exit.o)
 .data          0x0000000000000000        0x0 d:/software/yuyin/qiqiyinqiluntai/riscv-nuclei-elf-gcc-9.2.0.0/gcc_fix_raissrc/bin/../lib/gcc/riscv-nuclei-elf/9.2.0/../../../../riscv-nuclei-elf/lib/rv32imafc/ilp32f\libgloss_nano.a(sys_exit.o)
 .bss           0x0000000000000000        0x0 d:/software/yuyin/qiqiyinqiluntai/riscv-nuclei-elf-gcc-9.2.0.0/gcc_fix_raissrc/bin/../lib/gcc/riscv-nuclei-elf/9.2.0/../../../../riscv-nuclei-elf/lib/rv32imafc/ilp32f\libgloss_nano.a(sys_exit.o)
 .text          0x0000000000000000        0x0 d:/software/yuyin/qiqiyinqiluntai/riscv-nuclei-elf-gcc-9.2.0.0/gcc_fix_raissrc/bin/../lib/gcc/riscv-nuclei-elf/9.2.0/../../../../riscv-nuclei-elf/lib/rv32imafc/ilp32f\libgloss_nano.a(sys_close.o)
 .data          0x0000000000000000        0x0 d:/software/yuyin/qiqiyinqiluntai/riscv-nuclei-elf-gcc-9.2.0.0/gcc_fix_raissrc/bin/../lib/gcc/riscv-nuclei-elf/9.2.0/../../../../riscv-nuclei-elf/lib/rv32imafc/ilp32f\libgloss_nano.a(sys_close.o)
 .bss           0x0000000000000000        0x0 d:/software/yuyin/qiqiyinqiluntai/riscv-nuclei-elf-gcc-9.2.0.0/gcc_fix_raissrc/bin/../lib/gcc/riscv-nuclei-elf/9.2.0/../../../../riscv-nuclei-elf/lib/rv32imafc/ilp32f\libgloss_nano.a(sys_close.o)
 .text          0x0000000000000000        0x0 d:/software/yuyin/qiqiyinqiluntai/riscv-nuclei-elf-gcc-9.2.0.0/gcc_fix_raissrc/bin/../lib/gcc/riscv-nuclei-elf/9.2.0/../../../../riscv-nuclei-elf/lib/rv32imafc/ilp32f\libgloss_nano.a(sys_fstat.o)
 .data          0x0000000000000000        0x0 d:/software/yuyin/qiqiyinqiluntai/riscv-nuclei-elf-gcc-9.2.0.0/gcc_fix_raissrc/bin/../lib/gcc/riscv-nuclei-elf/9.2.0/../../../../riscv-nuclei-elf/lib/rv32imafc/ilp32f\libgloss_nano.a(sys_fstat.o)
 .bss           0x0000000000000000        0x0 d:/software/yuyin/qiqiyinqiluntai/riscv-nuclei-elf-gcc-9.2.0.0/gcc_fix_raissrc/bin/../lib/gcc/riscv-nuclei-elf/9.2.0/../../../../riscv-nuclei-elf/lib/rv32imafc/ilp32f\libgloss_nano.a(sys_fstat.o)
 .text          0x0000000000000000        0x0 d:/software/yuyin/qiqiyinqiluntai/riscv-nuclei-elf-gcc-9.2.0.0/gcc_fix_raissrc/bin/../lib/gcc/riscv-nuclei-elf/9.2.0/../../../../riscv-nuclei-elf/lib/rv32imafc/ilp32f\libgloss_nano.a(sys_isatty.o)
 .data          0x0000000000000000        0x0 d:/software/yuyin/qiqiyinqiluntai/riscv-nuclei-elf-gcc-9.2.0.0/gcc_fix_raissrc/bin/../lib/gcc/riscv-nuclei-elf/9.2.0/../../../../riscv-nuclei-elf/lib/rv32imafc/ilp32f\libgloss_nano.a(sys_isatty.o)
 .bss           0x0000000000000000        0x0 d:/software/yuyin/qiqiyinqiluntai/riscv-nuclei-elf-gcc-9.2.0.0/gcc_fix_raissrc/bin/../lib/gcc/riscv-nuclei-elf/9.2.0/../../../../riscv-nuclei-elf/lib/rv32imafc/ilp32f\libgloss_nano.a(sys_isatty.o)
 .text          0x0000000000000000        0x0 d:/software/yuyin/qiqiyinqiluntai/riscv-nuclei-elf-gcc-9.2.0.0/gcc_fix_raissrc/bin/../lib/gcc/riscv-nuclei-elf/9.2.0/../../../../riscv-nuclei-elf/lib/rv32imafc/ilp32f\libgloss_nano.a(sys_lseek.o)
 .data          0x0000000000000000        0x0 d:/software/yuyin/qiqiyinqiluntai/riscv-nuclei-elf-gcc-9.2.0.0/gcc_fix_raissrc/bin/../lib/gcc/riscv-nuclei-elf/9.2.0/../../../../riscv-nuclei-elf/lib/rv32imafc/ilp32f\libgloss_nano.a(sys_lseek.o)
 .bss           0x0000000000000000        0x0 d:/software/yuyin/qiqiyinqiluntai/riscv-nuclei-elf-gcc-9.2.0.0/gcc_fix_raissrc/bin/../lib/gcc/riscv-nuclei-elf/9.2.0/../../../../riscv-nuclei-elf/lib/rv32imafc/ilp32f\libgloss_nano.a(sys_lseek.o)
 .text          0x0000000000000000        0x0 d:/software/yuyin/qiqiyinqiluntai/riscv-nuclei-elf-gcc-9.2.0.0/gcc_fix_raissrc/bin/../lib/gcc/riscv-nuclei-elf/9.2.0/../../../../riscv-nuclei-elf/lib/rv32imafc/ilp32f\libgloss_nano.a(sys_read.o)
 .data          0x0000000000000000        0x0 d:/software/yuyin/qiqiyinqiluntai/riscv-nuclei-elf-gcc-9.2.0.0/gcc_fix_raissrc/bin/../lib/gcc/riscv-nuclei-elf/9.2.0/../../../../riscv-nuclei-elf/lib/rv32imafc/ilp32f\libgloss_nano.a(sys_read.o)
 .bss           0x0000000000000000        0x0 d:/software/yuyin/qiqiyinqiluntai/riscv-nuclei-elf-gcc-9.2.0.0/gcc_fix_raissrc/bin/../lib/gcc/riscv-nuclei-elf/9.2.0/../../../../riscv-nuclei-elf/lib/rv32imafc/ilp32f\libgloss_nano.a(sys_read.o)
 .text          0x0000000000000000        0x0 d:/software/yuyin/qiqiyinqiluntai/riscv-nuclei-elf-gcc-9.2.0.0/gcc_fix_raissrc/bin/../lib/gcc/riscv-nuclei-elf/9.2.0/../../../../riscv-nuclei-elf/lib/rv32imafc/ilp32f\libgloss_nano.a(sys_write.o)
 .data          0x0000000000000000        0x0 d:/software/yuyin/qiqiyinqiluntai/riscv-nuclei-elf-gcc-9.2.0.0/gcc_fix_raissrc/bin/../lib/gcc/riscv-nuclei-elf/9.2.0/../../../../riscv-nuclei-elf/lib/rv32imafc/ilp32f\libgloss_nano.a(sys_write.o)
 .bss           0x0000000000000000        0x0 d:/software/yuyin/qiqiyinqiluntai/riscv-nuclei-elf-gcc-9.2.0.0/gcc_fix_raissrc/bin/../lib/gcc/riscv-nuclei-elf/9.2.0/../../../../riscv-nuclei-elf/lib/rv32imafc/ilp32f\libgloss_nano.a(sys_write.o)
 .text          0x0000000000000000        0x0 d:/software/yuyin/qiqiyinqiluntai/riscv-nuclei-elf-gcc-9.2.0.0/gcc_fix_raissrc/bin/../lib/gcc/riscv-nuclei-elf/9.2.0/../../../../riscv-nuclei-elf/lib/rv32imafc/ilp32f\libgloss_nano.a(sys_conv_stat.o)
 .data          0x0000000000000000        0x0 d:/software/yuyin/qiqiyinqiluntai/riscv-nuclei-elf-gcc-9.2.0.0/gcc_fix_raissrc/bin/../lib/gcc/riscv-nuclei-elf/9.2.0/../../../../riscv-nuclei-elf/lib/rv32imafc/ilp32f\libgloss_nano.a(sys_conv_stat.o)
 .bss           0x0000000000000000        0x0 d:/software/yuyin/qiqiyinqiluntai/riscv-nuclei-elf-gcc-9.2.0.0/gcc_fix_raissrc/bin/../lib/gcc/riscv-nuclei-elf/9.2.0/../../../../riscv-nuclei-elf/lib/rv32imafc/ilp32f\libgloss_nano.a(sys_conv_stat.o)
 .text          0x0000000000000000        0x0 d:/software/yuyin/qiqiyinqiluntai/riscv-nuclei-elf-gcc-9.2.0.0/gcc_fix_raissrc/bin/../lib/gcc/riscv-nuclei-elf/9.2.0/../../../../riscv-nuclei-elf/lib/rv32imafc/ilp32f\libc_nano.a(lib_a-errno.o)
 .data          0x0000000000000000        0x0 d:/software/yuyin/qiqiyinqiluntai/riscv-nuclei-elf-gcc-9.2.0.0/gcc_fix_raissrc/bin/../lib/gcc/riscv-nuclei-elf/9.2.0/../../../../riscv-nuclei-elf/lib/rv32imafc/ilp32f\libc_nano.a(lib_a-errno.o)
 .bss           0x0000000000000000        0x0 d:/software/yuyin/qiqiyinqiluntai/riscv-nuclei-elf-gcc-9.2.0.0/gcc_fix_raissrc/bin/../lib/gcc/riscv-nuclei-elf/9.2.0/../../../../riscv-nuclei-elf/lib/rv32imafc/ilp32f\libc_nano.a(lib_a-errno.o)
 .data          0x0000000000000000        0x0 d:/software/yuyin/qiqiyinqiluntai/riscv-nuclei-elf-gcc-9.2.0.0/gcc_fix_raissrc/bin/../lib/gcc/riscv-nuclei-elf/9.2.0/../../../../riscv-nuclei-elf/lib/rv32imafc/ilp32f\libm.a(lib_a-s_floor.o)
 .bss           0x0000000000000000        0x0 d:/software/yuyin/qiqiyinqiluntai/riscv-nuclei-elf-gcc-9.2.0.0/gcc_fix_raissrc/bin/../lib/gcc/riscv-nuclei-elf/9.2.0/../../../../riscv-nuclei-elf/lib/rv32imafc/ilp32f\libm.a(lib_a-s_floor.o)
 .data          0x0000000000000000        0x0 d:/software/yuyin/qiqiyinqiluntai/riscv-nuclei-elf-gcc-9.2.0.0/gcc_fix_raissrc/bin/../lib/gcc/riscv-nuclei-elf/9.2.0/../../../../riscv-nuclei-elf/lib/rv32imafc/ilp32f\libm.a(lib_a-w_acos.o)
 .bss           0x0000000000000000        0x0 d:/software/yuyin/qiqiyinqiluntai/riscv-nuclei-elf-gcc-9.2.0.0/gcc_fix_raissrc/bin/../lib/gcc/riscv-nuclei-elf/9.2.0/../../../../riscv-nuclei-elf/lib/rv32imafc/ilp32f\libm.a(lib_a-w_acos.o)
 .data          0x0000000000000000        0x0 d:/software/yuyin/qiqiyinqiluntai/riscv-nuclei-elf-gcc-9.2.0.0/gcc_fix_raissrc/bin/../lib/gcc/riscv-nuclei-elf/9.2.0/../../../../riscv-nuclei-elf/lib/rv32imafc/ilp32f\libm.a(lib_a-w_exp.o)
 .bss           0x0000000000000000        0x0 d:/software/yuyin/qiqiyinqiluntai/riscv-nuclei-elf-gcc-9.2.0.0/gcc_fix_raissrc/bin/../lib/gcc/riscv-nuclei-elf/9.2.0/../../../../riscv-nuclei-elf/lib/rv32imafc/ilp32f\libm.a(lib_a-w_exp.o)
 .data          0x0000000000000000        0x0 d:/software/yuyin/qiqiyinqiluntai/riscv-nuclei-elf-gcc-9.2.0.0/gcc_fix_raissrc/bin/../lib/gcc/riscv-nuclei-elf/9.2.0/../../../../riscv-nuclei-elf/lib/rv32imafc/ilp32f\libm.a(lib_a-wf_pow.o)
 .bss           0x0000000000000000        0x0 d:/software/yuyin/qiqiyinqiluntai/riscv-nuclei-elf-gcc-9.2.0.0/gcc_fix_raissrc/bin/../lib/gcc/riscv-nuclei-elf/9.2.0/../../../../riscv-nuclei-elf/lib/rv32imafc/ilp32f\libm.a(lib_a-wf_pow.o)
 .data          0x0000000000000000        0x0 d:/software/yuyin/qiqiyinqiluntai/riscv-nuclei-elf-gcc-9.2.0.0/gcc_fix_raissrc/bin/../lib/gcc/riscv-nuclei-elf/9.2.0/../../../../riscv-nuclei-elf/lib/rv32imafc/ilp32f\libm.a(lib_a-w_log.o)
 .bss           0x0000000000000000        0x0 d:/software/yuyin/qiqiyinqiluntai/riscv-nuclei-elf-gcc-9.2.0.0/gcc_fix_raissrc/bin/../lib/gcc/riscv-nuclei-elf/9.2.0/../../../../riscv-nuclei-elf/lib/rv32imafc/ilp32f\libm.a(lib_a-w_log.o)
 .data          0x0000000000000000        0x0 d:/software/yuyin/qiqiyinqiluntai/riscv-nuclei-elf-gcc-9.2.0.0/gcc_fix_raissrc/bin/../lib/gcc/riscv-nuclei-elf/9.2.0/../../../../riscv-nuclei-elf/lib/rv32imafc/ilp32f\libm.a(lib_a-w_sqrt.o)
 .bss           0x0000000000000000        0x0 d:/software/yuyin/qiqiyinqiluntai/riscv-nuclei-elf-gcc-9.2.0.0/gcc_fix_raissrc/bin/../lib/gcc/riscv-nuclei-elf/9.2.0/../../../../riscv-nuclei-elf/lib/rv32imafc/ilp32f\libm.a(lib_a-w_sqrt.o)
 .data          0x0000000000000000        0x0 d:/software/yuyin/qiqiyinqiluntai/riscv-nuclei-elf-gcc-9.2.0.0/gcc_fix_raissrc/bin/../lib/gcc/riscv-nuclei-elf/9.2.0/../../../../riscv-nuclei-elf/lib/rv32imafc/ilp32f\libm.a(lib_a-e_acos.o)
 .bss           0x0000000000000000        0x0 d:/software/yuyin/qiqiyinqiluntai/riscv-nuclei-elf-gcc-9.2.0.0/gcc_fix_raissrc/bin/../lib/gcc/riscv-nuclei-elf/9.2.0/../../../../riscv-nuclei-elf/lib/rv32imafc/ilp32f\libm.a(lib_a-e_acos.o)
 .data          0x0000000000000000        0x0 d:/software/yuyin/qiqiyinqiluntai/riscv-nuclei-elf-gcc-9.2.0.0/gcc_fix_raissrc/bin/../lib/gcc/riscv-nuclei-elf/9.2.0/../../../../riscv-nuclei-elf/lib/rv32imafc/ilp32f\libm.a(lib_a-e_exp.o)
 .bss           0x0000000000000000        0x0 d:/software/yuyin/qiqiyinqiluntai/riscv-nuclei-elf-gcc-9.2.0.0/gcc_fix_raissrc/bin/../lib/gcc/riscv-nuclei-elf/9.2.0/../../../../riscv-nuclei-elf/lib/rv32imafc/ilp32f\libm.a(lib_a-e_exp.o)
 .data          0x0000000000000000        0x0 d:/software/yuyin/qiqiyinqiluntai/riscv-nuclei-elf-gcc-9.2.0.0/gcc_fix_raissrc/bin/../lib/gcc/riscv-nuclei-elf/9.2.0/../../../../riscv-nuclei-elf/lib/rv32imafc/ilp32f\libm.a(lib_a-ef_pow.o)
 .bss           0x0000000000000000        0x0 d:/software/yuyin/qiqiyinqiluntai/riscv-nuclei-elf-gcc-9.2.0.0/gcc_fix_raissrc/bin/../lib/gcc/riscv-nuclei-elf/9.2.0/../../../../riscv-nuclei-elf/lib/rv32imafc/ilp32f\libm.a(lib_a-ef_pow.o)
 .data          0x0000000000000000        0x0 d:/software/yuyin/qiqiyinqiluntai/riscv-nuclei-elf-gcc-9.2.0.0/gcc_fix_raissrc/bin/../lib/gcc/riscv-nuclei-elf/9.2.0/../../../../riscv-nuclei-elf/lib/rv32imafc/ilp32f\libm.a(lib_a-ef_sqrt.o)
 .bss           0x0000000000000000        0x0 d:/software/yuyin/qiqiyinqiluntai/riscv-nuclei-elf-gcc-9.2.0.0/gcc_fix_raissrc/bin/../lib/gcc/riscv-nuclei-elf/9.2.0/../../../../riscv-nuclei-elf/lib/rv32imafc/ilp32f\libm.a(lib_a-ef_sqrt.o)
 .data          0x0000000000000000        0x0 d:/software/yuyin/qiqiyinqiluntai/riscv-nuclei-elf-gcc-9.2.0.0/gcc_fix_raissrc/bin/../lib/gcc/riscv-nuclei-elf/9.2.0/../../../../riscv-nuclei-elf/lib/rv32imafc/ilp32f\libm.a(lib_a-e_log.o)
 .bss           0x0000000000000000        0x0 d:/software/yuyin/qiqiyinqiluntai/riscv-nuclei-elf-gcc-9.2.0.0/gcc_fix_raissrc/bin/../lib/gcc/riscv-nuclei-elf/9.2.0/../../../../riscv-nuclei-elf/lib/rv32imafc/ilp32f\libm.a(lib_a-e_log.o)
 .data          0x0000000000000000        0x0 d:/software/yuyin/qiqiyinqiluntai/riscv-nuclei-elf-gcc-9.2.0.0/gcc_fix_raissrc/bin/../lib/gcc/riscv-nuclei-elf/9.2.0/../../../../riscv-nuclei-elf/lib/rv32imafc/ilp32f\libm.a(lib_a-e_sqrt.o)
 .bss           0x0000000000000000        0x0 d:/software/yuyin/qiqiyinqiluntai/riscv-nuclei-elf-gcc-9.2.0.0/gcc_fix_raissrc/bin/../lib/gcc/riscv-nuclei-elf/9.2.0/../../../../riscv-nuclei-elf/lib/rv32imafc/ilp32f\libm.a(lib_a-e_sqrt.o)
 .data          0x0000000000000000        0x0 d:/software/yuyin/qiqiyinqiluntai/riscv-nuclei-elf-gcc-9.2.0.0/gcc_fix_raissrc/bin/../lib/gcc/riscv-nuclei-elf/9.2.0/../../../../riscv-nuclei-elf/lib/rv32imafc/ilp32f\libm.a(lib_a-s_fabs.o)
 .bss           0x0000000000000000        0x0 d:/software/yuyin/qiqiyinqiluntai/riscv-nuclei-elf-gcc-9.2.0.0/gcc_fix_raissrc/bin/../lib/gcc/riscv-nuclei-elf/9.2.0/../../../../riscv-nuclei-elf/lib/rv32imafc/ilp32f\libm.a(lib_a-s_fabs.o)
 .data          0x0000000000000000        0x0 d:/software/yuyin/qiqiyinqiluntai/riscv-nuclei-elf-gcc-9.2.0.0/gcc_fix_raissrc/bin/../lib/gcc/riscv-nuclei-elf/9.2.0/../../../../riscv-nuclei-elf/lib/rv32imafc/ilp32f\libm.a(lib_a-sf_finite.o)
 .bss           0x0000000000000000        0x0 d:/software/yuyin/qiqiyinqiluntai/riscv-nuclei-elf-gcc-9.2.0.0/gcc_fix_raissrc/bin/../lib/gcc/riscv-nuclei-elf/9.2.0/../../../../riscv-nuclei-elf/lib/rv32imafc/ilp32f\libm.a(lib_a-sf_finite.o)
 .data          0x0000000000000000        0x0 d:/software/yuyin/qiqiyinqiluntai/riscv-nuclei-elf-gcc-9.2.0.0/gcc_fix_raissrc/bin/../lib/gcc/riscv-nuclei-elf/9.2.0/../../../../riscv-nuclei-elf/lib/rv32imafc/ilp32f\libm.a(lib_a-s_finite.o)
 .bss           0x0000000000000000        0x0 d:/software/yuyin/qiqiyinqiluntai/riscv-nuclei-elf-gcc-9.2.0.0/gcc_fix_raissrc/bin/../lib/gcc/riscv-nuclei-elf/9.2.0/../../../../riscv-nuclei-elf/lib/rv32imafc/ilp32f\libm.a(lib_a-s_finite.o)
 .data          0x0000000000000000        0x0 d:/software/yuyin/qiqiyinqiluntai/riscv-nuclei-elf-gcc-9.2.0.0/gcc_fix_raissrc/bin/../lib/gcc/riscv-nuclei-elf/9.2.0/../../../../riscv-nuclei-elf/lib/rv32imafc/ilp32f\libm.a(lib_a-sf_nan.o)
 .bss           0x0000000000000000        0x0 d:/software/yuyin/qiqiyinqiluntai/riscv-nuclei-elf-gcc-9.2.0.0/gcc_fix_raissrc/bin/../lib/gcc/riscv-nuclei-elf/9.2.0/../../../../riscv-nuclei-elf/lib/rv32imafc/ilp32f\libm.a(lib_a-sf_nan.o)
 .data          0x0000000000000000        0x0 d:/software/yuyin/qiqiyinqiluntai/riscv-nuclei-elf-gcc-9.2.0.0/gcc_fix_raissrc/bin/../lib/gcc/riscv-nuclei-elf/9.2.0/../../../../riscv-nuclei-elf/lib/rv32imafc/ilp32f\libm.a(lib_a-sf_rint.o)
 .bss           0x0000000000000000        0x0 d:/software/yuyin/qiqiyinqiluntai/riscv-nuclei-elf-gcc-9.2.0.0/gcc_fix_raissrc/bin/../lib/gcc/riscv-nuclei-elf/9.2.0/../../../../riscv-nuclei-elf/lib/rv32imafc/ilp32f\libm.a(lib_a-sf_rint.o)
 .data          0x0000000000000000        0x0 d:/software/yuyin/qiqiyinqiluntai/riscv-nuclei-elf-gcc-9.2.0.0/gcc_fix_raissrc/bin/../lib/gcc/riscv-nuclei-elf/9.2.0/../../../../riscv-nuclei-elf/lib/rv32imafc/ilp32f\libm.a(lib_a-sf_scalbn.o)
 .bss           0x0000000000000000        0x0 d:/software/yuyin/qiqiyinqiluntai/riscv-nuclei-elf-gcc-9.2.0.0/gcc_fix_raissrc/bin/../lib/gcc/riscv-nuclei-elf/9.2.0/../../../../riscv-nuclei-elf/lib/rv32imafc/ilp32f\libm.a(lib_a-sf_scalbn.o)
 .text          0x0000000000000000        0x0 d:/software/yuyin/qiqiyinqiluntai/riscv-nuclei-elf-gcc-9.2.0.0/gcc_fix_raissrc/bin/../lib/gcc/riscv-nuclei-elf/9.2.0/../../../../riscv-nuclei-elf/lib/rv32imafc/ilp32f\libm.a(lib_a-s_lib_ver.o)
 .data          0x0000000000000000        0x0 d:/software/yuyin/qiqiyinqiluntai/riscv-nuclei-elf-gcc-9.2.0.0/gcc_fix_raissrc/bin/../lib/gcc/riscv-nuclei-elf/9.2.0/../../../../riscv-nuclei-elf/lib/rv32imafc/ilp32f\libm.a(lib_a-s_lib_ver.o)
 .bss           0x0000000000000000        0x0 d:/software/yuyin/qiqiyinqiluntai/riscv-nuclei-elf-gcc-9.2.0.0/gcc_fix_raissrc/bin/../lib/gcc/riscv-nuclei-elf/9.2.0/../../../../riscv-nuclei-elf/lib/rv32imafc/ilp32f\libm.a(lib_a-s_lib_ver.o)
 .data          0x0000000000000000        0x0 d:/software/yuyin/qiqiyinqiluntai/riscv-nuclei-elf-gcc-9.2.0.0/gcc_fix_raissrc/bin/../lib/gcc/riscv-nuclei-elf/9.2.0/../../../../riscv-nuclei-elf/lib/rv32imafc/ilp32f\libm.a(lib_a-s_matherr.o)
 .bss           0x0000000000000000        0x0 d:/software/yuyin/qiqiyinqiluntai/riscv-nuclei-elf-gcc-9.2.0.0/gcc_fix_raissrc/bin/../lib/gcc/riscv-nuclei-elf/9.2.0/../../../../riscv-nuclei-elf/lib/rv32imafc/ilp32f\libm.a(lib_a-s_matherr.o)
 .data          0x0000000000000000        0x0 d:/software/yuyin/qiqiyinqiluntai/riscv-nuclei-elf-gcc-9.2.0.0/gcc_fix_raissrc/bin/../lib/gcc/riscv-nuclei-elf/9.2.0/../../../../riscv-nuclei-elf/lib/rv32imafc/ilp32f\libm.a(lib_a-s_nan.o)
 .bss           0x0000000000000000        0x0 d:/software/yuyin/qiqiyinqiluntai/riscv-nuclei-elf-gcc-9.2.0.0/gcc_fix_raissrc/bin/../lib/gcc/riscv-nuclei-elf/9.2.0/../../../../riscv-nuclei-elf/lib/rv32imafc/ilp32f\libm.a(lib_a-s_nan.o)
 .data          0x0000000000000000        0x0 d:/software/yuyin/qiqiyinqiluntai/riscv-nuclei-elf-gcc-9.2.0.0/gcc_fix_raissrc/bin/../lib/gcc/riscv-nuclei-elf/9.2.0/../../../../riscv-nuclei-elf/lib/rv32imafc/ilp32f\libm.a(lib_a-sf_copysign.o)
 .bss           0x0000000000000000        0x0 d:/software/yuyin/qiqiyinqiluntai/riscv-nuclei-elf-gcc-9.2.0.0/gcc_fix_raissrc/bin/../lib/gcc/riscv-nuclei-elf/9.2.0/../../../../riscv-nuclei-elf/lib/rv32imafc/ilp32f\libm.a(lib_a-sf_copysign.o)

Memory Configuration

Name             Origin             Length             Attributes
BOOT_PARAMETER   0x000000001ff50a00 0x0000000000000200
SHARE_SRAM       0x000000001ff50c00 0x0000000000000400
SRAM             0x000000001ff51000 0x0000000000087000 xrw
*default*        0x0000000000000000 0xffffffffffffffff

Linker script and memory map

LOAD C:\TMP\nn_denoise_rtc_sample.elf.UaA6UP.ltrans0.ltrans.o
LOAD C:\TMP\nn_denoise_rtc_sample.elf.UaA6UP.ltrans1.ltrans.o
LOAD C:\TMP\cctaoPDg.debug.temp.o
LOAD C:\TMP\ccCToAL5.debug.temp.o
LOAD C:\TMP\ccz04okV.debug.temp.o
LOAD C:\TMP\cc6vsEGK.debug.temp.o
LOAD C:\TMP\ccjlrN7y.debug.temp.o
LOAD C:\TMP\ccky5ZZn.debug.temp.o
LOAD C:\TMP\ccXGdyWc.debug.temp.o
LOAD C:\TMP\cca66GJ1.debug.temp.o
LOAD C:\TMP\ccFAmeNP.debug.temp.o
LOAD C:\TMP\ccKRTuHD.debug.temp.o
LOAD C:\TMP\ccBXiG2r.debug.temp.o
LOAD C:\TMP\ccs58sqf.debug.temp.o
LOAD C:\TMP\ccHdpmJ2.debug.temp.o
LOAD C:\TMP\ccKJkjtQ.debug.temp.o
LOAD C:\TMP\ccn4Qw8D.debug.temp.o
LOAD C:\TMP\ccmasFKv.debug.temp.o
LOAD C:\TMP\ccTZ3wdn.debug.temp.o
LOAD C:\TMP\ccggCs7e.debug.temp.o
LOAD C:\TMP\ccPqa1p6.debug.temp.o
LOAD C:\TMP\ccWkJizX.debug.temp.o
LOAD C:\TMP\ccnnVYYN.debug.temp.o
LOAD C:\TMP\ccivKHaE.debug.temp.o
LOAD C:\TMP\cc10euNu.debug.temp.o
LOAD C:\TMP\ccigKZgl.debug.temp.o
LOAD C:\TMP\ccR44K0a.debug.temp.o
LOAD C:\TMP\ccYCqfB0.debug.temp.o
LOAD C:\TMP\ccHMzaHQ.debug.temp.o
LOAD C:\TMP\cc0I0ODG.debug.temp.o
LOAD C:\TMP\ccDnfoxA.debug.temp.o
LOAD C:\TMP\ccQOLGhu.debug.temp.o
LOAD C:\TMP\ccTIxAxo.debug.temp.o
LOAD C:\TMP\ccYH15Ph.debug.temp.o
LOAD C:\TMP\cczRIbZa.debug.temp.o
LOAD C:\TMP\ccYo5kz4.debug.temp.o
LOAD C:\TMP\ccVFsd0X.debug.temp.o
LOAD C:\TMP\ccawFlHQ.debug.temp.o
LOAD C:\TMP\ccZ89cfJ.debug.temp.o
LOAD C:\TMP\ccA627dC.debug.temp.o
LOAD C:\TMP\ccJhqD3u.debug.temp.o
LOAD C:\TMP\ccwryuXn.debug.temp.o
LOAD C:\TMP\ccDJjK7f.debug.temp.o
LOAD C:\TMP\ccgciA87.debug.temp.o
LOAD C:\TMP\ccH2VtA0.debug.temp.o
LOAD C:\TMP\ccGCA6SS.debug.temp.o
LOAD C:\TMP\cc1XjE8O.debug.temp.o
LOAD C:\TMP\ccU23UeL.debug.temp.o
LOAD C:\TMP\ccjsysyH.debug.temp.o
LOAD C:\TMP\cc2ZFo8C.debug.temp.o
LOAD C:\TMP\ccjNAsDy.debug.temp.o
LOAD C:\TMP\ccmVTzzu.debug.temp.o
LOAD C:\TMP\ccZPuqmq.debug.temp.o
LOAD C:\TMP\ccK6Q2tl.debug.temp.o
LOAD C:\TMP\ccdkiSng.debug.temp.o
LOAD C:\TMP\cckcO8Mb.debug.temp.o
LOAD C:\TMP\cc1QB826.debug.temp.o
LOAD C:\TMP\ccaOP0u1.debug.temp.o
LOAD C:\TMP\ccRu4BNV.debug.temp.o
LOAD C:\TMP\cc8Hw6wQ.debug.temp.o
LOAD C:\TMP\ccfcoYkL.debug.temp.o
LOAD C:\TMP\ccWsxzZF.debug.temp.o
LOAD C:\TMP\ccXru5AE.debug.temp.o
LOAD C:\TMP\ccwask3C.debug.temp.o
LOAD C:\TMP\ccVjmDWB.debug.temp.o
LOAD C:\TMP\ccQDtwGA.debug.temp.o
LOAD C:\TMP\ccfPOqCy.debug.temp.o
LOAD C:\TMP\ccceEVow.debug.temp.o
LOAD C:\TMP\ccTUAtCu.debug.temp.o
LOAD C:\TMP\ccaoPKGs.debug.temp.o
LOAD C:\TMP\ccNyKP5p.debug.temp.o
LOAD C:\TMP\ccetkqzn.debug.temp.o
LOAD C:\TMP\ccdBoBTk.debug.temp.o
LOAD C:\TMP\cc067PEi.debug.temp.o
LOAD C:\TMP\ccvzWhcg.debug.temp.o
LOAD C:\TMP\ccQOGfOd.debug.temp.o
LOAD C:\TMP\cctDgtGa.debug.temp.o
LOAD C:\TMP\ccOUr2k7.debug.temp.o
LOAD C:\TMP\ccX3Lwq4.debug.temp.o
LOAD C:\TMP\ccEW6Jm1.debug.temp.o
LOAD C:\TMP\ccJ9j1f2.debug.temp.o
LOAD C:\TMP\ccEDWFd3.debug.temp.o
LOAD C:\TMP\cc5LZvX3.debug.temp.o
LOAD C:\TMP\ccgGDg84.debug.temp.o
LOAD C:\TMP\cc1mzK95.debug.temp.o
LOAD C:\TMP\ccCkUBf7.debug.temp.o
LOAD C:\TMP\ccxqSRB7.debug.temp.o
LOAD C:\TMP\cc8pEkK7.debug.temp.o
LOAD C:\TMP\ccjYWdo8.debug.temp.o
LOAD C:\TMP\cc6lOQS8.debug.temp.o
LOAD C:\TMP\ccdSiSD8.debug.temp.o
LOAD C:\TMP\ccOvJtf8.debug.temp.o
LOAD C:\TMP\ccfCpGm8.debug.temp.o
LOAD C:\TMP\cciyECk8.debug.temp.o
LOAD C:\TMP\ccNMjru7.debug.temp.o
LOAD C:\TMP\ccOHIYu6.debug.temp.o
LOAD C:\TMP\ccHWNTz5.debug.temp.o
LOAD C:\TMP\cckt0R54.debug.temp.o
LOAD C:\TMP\ccxgYqs4.debug.temp.o
LOAD C:\TMP\cci7oGH7.debug.temp.o
LOAD C:\TMP\ccN1xXNa.debug.temp.o
LOAD C:\TMP\ccY7fhle.debug.temp.o
LOAD C:\TMP\ccZunYWh.debug.temp.o
LOAD C:\TMP\ccIk60kl.debug.temp.o
LOAD C:\TMP\ccJJEjZn.debug.temp.o
LOAD C:\TMP\ccCYp8Hq.debug.temp.o
LOAD C:\TMP\ccb7Y9ct.debug.temp.o
LOAD C:\TMP\ccoejxMv.debug.temp.o
LOAD C:\TMP\ccnavPMy.debug.temp.o
LOAD C:\TMP\ccUPHQDB.debug.temp.o
LOAD C:\TMP\ccJAggLD.debug.temp.o
LOAD C:\TMP\ccilbTEF.debug.temp.o
LOAD C:\TMP\ccFjeTCH.debug.temp.o
LOAD C:\TMP\ccSIdX1J.debug.temp.o
LOAD C:\TMP\ccJYJddM.debug.temp.o
LOAD C:\TMP\ccUmTSEN.debug.temp.o
LOAD C:\TMP\ccV1rVaP.debug.temp.o
LOAD C:\TMP\ccE9BjtQ.debug.temp.o
LOAD C:\TMP\ccb9UCcS.debug.temp.o
LOAD C:\TMP\cck05cRT.debug.temp.o
LOAD C:\TMP\ccP8RQsZ.debug.temp.o
LOAD C:\TMP\ccay3R84.debug.temp.o
LOAD C:\TMP\ccbR25Aa.debug.temp.o
LOAD C:\TMP\cc2AYnug.debug.temp.o
LOAD C:\TMP\ccr4Uoem.debug.temp.o
LOAD C:\TMP\cc86GFer.debug.temp.o
LOAD C:\TMP\cclQcF5v.debug.temp.o
LOAD C:\TMP\ccoQ710A.debug.temp.o
LOAD C:\TMP\cchhZsnG.debug.temp.o
LOAD C:\TMP\ccMFLQQK.debug.temp.o
LOAD C:\TMP\ccPh2OaP.debug.temp.o
LOAD C:\TMP\ccIkfRVT.debug.temp.o
LOAD C:\TMP\cc73bCxY.debug.temp.o
LOAD C:\TMP\ccOmYCp2.debug.temp.o
LOAD C:\TMP\cc1ZuUu6.debug.temp.o
LOAD C:\TMP\ccAAaiva.debug.temp.o
LOAD C:\TMP\ccxvIJsi.debug.temp.o
LOAD C:\TMP\cc4eRrlq.debug.temp.o
LOAD C:\TMP\ccpQ84Ey.debug.temp.o
LOAD C:\TMP\cckeIrPG.debug.temp.o
LOAD C:\TMP\ccxHDcgO.debug.temp.o
LOAD C:\TMP\ccglMxxV.debug.temp.o
LOAD build/objs/ci130x_vtable.o
LOAD build/objs/ci130x_startup.o
LOAD ../../../libs\libasr.a
LOAD ../../../libs\libeq.a
LOAD ../../../libs\libdrc.a
LOAD ../../../libs\libnewlib_port.a
LOAD ../../../libs\libfreertos_port.a
LOAD ../../../libs\libdsu.a
LOAD ../../../libs\libflash_encrypt.a
LOAD d:/software/yuyin/qiqiyinqiluntai/riscv-nuclei-elf-gcc-9.2.0.0/gcc_fix_raissrc/bin/../lib/gcc/riscv-nuclei-elf/9.2.0/../../../../riscv-nuclei-elf/lib/rv32imafc/ilp32f\libstdc++.a
LOAD d:/software/yuyin/qiqiyinqiluntai/riscv-nuclei-elf-gcc-9.2.0.0/gcc_fix_raissrc/bin/../lib/gcc/riscv-nuclei-elf/9.2.0/../../../../riscv-nuclei-elf/lib/rv32imafc/ilp32f\libm.a
LOAD d:/software/yuyin/qiqiyinqiluntai/riscv-nuclei-elf-gcc-9.2.0.0/gcc_fix_raissrc/bin/../lib/gcc/riscv-nuclei-elf/9.2.0/rv32imafc/ilp32f\libgcc.a
LOAD d:/software/yuyin/qiqiyinqiluntai/riscv-nuclei-elf-gcc-9.2.0.0/gcc_fix_raissrc/bin/../lib/gcc/riscv-nuclei-elf/9.2.0/../../../../riscv-nuclei-elf/lib/rv32imafc/ilp32f\libg_nano.a
LOAD d:/software/yuyin/qiqiyinqiluntai/riscv-nuclei-elf-gcc-9.2.0.0/gcc_fix_raissrc/bin/../lib/gcc/riscv-nuclei-elf/9.2.0/../../../../riscv-nuclei-elf/lib/rv32imafc/ilp32f\libc_nano.a
LOAD d:/software/yuyin/qiqiyinqiluntai/riscv-nuclei-elf-gcc-9.2.0.0/gcc_fix_raissrc/bin/../lib/gcc/riscv-nuclei-elf/9.2.0/rv32imafc/ilp32f\libgcc.a
START GROUP
LOAD d:/software/yuyin/qiqiyinqiluntai/riscv-nuclei-elf-gcc-9.2.0.0/gcc_fix_raissrc/bin/../lib/gcc/riscv-nuclei-elf/9.2.0/rv32imafc/ilp32f\libgcc.a
LOAD d:/software/yuyin/qiqiyinqiluntai/riscv-nuclei-elf-gcc-9.2.0.0/gcc_fix_raissrc/bin/../lib/gcc/riscv-nuclei-elf/9.2.0/../../../../riscv-nuclei-elf/lib/rv32imafc/ilp32f\libc_nano.a
LOAD d:/software/yuyin/qiqiyinqiluntai/riscv-nuclei-elf-gcc-9.2.0.0/gcc_fix_raissrc/bin/../lib/gcc/riscv-nuclei-elf/9.2.0/../../../../riscv-nuclei-elf/lib/rv32imafc/ilp32f\libgloss_nano.a
END GROUP
                0x0000000000000c00                STACK_SIZE = 0xc00
                0x000000001ffd2000                SRAM_HOST_END_ADDR = 0x1ffd2000
                0x000000001ffd2000                SRAM_HOST_END_ADDR_VPR = 0x1ffd2000
                0x000000001ffd0000                SRAM_HOST_END_ADDR_SED = 0x1ffd0000
                0x000000001ffcc000                SRAM_HOST_END_ADDR_OFFLINE_DUAL_MIC = 0x1ffcc000
                0x000000001ffd7000                SRAM_HOST_END_ADDR_AIOT_DUAL_MIC = 0x1ffd7000
                0x000000001ffcc000                SRAM_HOST_END_ADDR_NN_DENOISE_ASR = 0x1ffcc000
                0x000000001ffd8000                SRAM_HOST_END_ADDR_NN_DENOISE_RTC = 0x1ffd8000
                0x000000001ff50a00                BOOT_PARAMETER_ADDR = 0x1ff50a00
                0x0000000000000200                BOOT_PARAMETER_SIZE = 0x200
                0x000000001ff50c00                SHARE_SRAM_ADDR = 0x1ff50c00
                0x0000000000000400                SHARE_SRAM_SIZE = 0x400
                0x000000001ff51000                SRAM_START_ADDR = 0x1ff51000
                0x000000001ffd8000                SRAM_END_ADDR = SRAM_HOST_END_ADDR_NN_DENOISE_RTC
                0x0000000000087000                SRAM_SIZE = (SRAM_END_ADDR - SRAM_START_ADDR)
                0x0000000000037000                SYS_HEAP_SIZE = 0x37000
                0x0000000000000c00                __stack_size = STACK_SIZE
                0x0000000000000c00                __int_stack_size = STACK_SIZE
                0x0000000000000c00                __stack_size = DEFINED (__stack_size)?__stack_size:0x800
                0x0000000000000c00                __int_stack_size = DEFINED (__int_stack_size)?__int_stack_size:0x400

.boot_parameter
                0x000000001ff50a00      0x116
 *.(boot_parameter)
 .boot_parameter
                0x000000001ff50a00      0x116 C:\TMP\nn_denoise_rtc_sample.elf.UaA6UP.ltrans1.ltrans.o

.share_memory   0x000000001ff50c00       0xb0
 *(.share_mem)
 .share_mem     0x000000001ff50c00       0xb0 C:\TMP\nn_denoise_rtc_sample.elf.UaA6UP.ltrans0.ltrans.o
                0x000000001ff50c00                status_list.lto_priv.0

.init           0x000000001ff51000      0x272
 *(.vtable)
 .vtable        0x000000001ff51000      0x100 build/objs/ci130x_vtable.o
                0x000000001ff51000                vector_base
 *(.load_addr)
 .load_addr     0x000000001ff51100       0x3c build/objs/ci130x_startup.o
 *(SORT_NONE(.init))
 .init          0x000000001ff5113c      0x136 build/objs/ci130x_startup.o
                0x000000001ff5113c                _start
                0x000000001ff51162                _virtual_start
                0x000000001ff51250                disable_mcycle_minstret
                0x000000001ff51256                enable_mcycle_minstret
                0x000000001ff5125c                core_wfe_asm

.ilalign        0x000000001ff51272        0x2
                0x000000001ff51274                . = ALIGN (0x4)
 *fill*         0x000000001ff51272        0x2 
                0x000000001ff51274                PROVIDE (_ilm_lma = .)

.ialign         0x000000001ff51274        0x0
                0x000000001ff51274                PROVIDE (_ilm = .)

.text           0x000000001ff51280    0x165a2
 *(.text.unlikely .text.unlikely.*)
 *(.text.startup .text.startup.*)
 .text.startup.main
                0x000000001ff51280      0x556 C:\TMP\nn_denoise_rtc_sample.elf.UaA6UP.ltrans1.ltrans.o
                0x000000001ff51280                main
 *(.text .text.*)
 .text.filter_mem16.constprop.0
                0x000000001ff517d6       0x84 C:\TMP\nn_denoise_rtc_sample.elf.UaA6UP.ltrans0.ltrans.o
 .text.iir_mem16.constprop.0
                0x000000001ff5185a       0x66 C:\TMP\nn_denoise_rtc_sample.elf.UaA6UP.ltrans0.ltrans.o
 .text.vq_nbest.constprop.0
                0x000000001ff518c0       0xc0 C:\TMP\nn_denoise_rtc_sample.elf.UaA6UP.ltrans0.ltrans.o
 .text.vq_nbest_sign.constprop.0
                0x000000001ff51980       0xf0 C:\TMP\nn_denoise_rtc_sample.elf.UaA6UP.ltrans0.ltrans.o
 .text.fir_mem16.constprop.0
                0x000000001ff51a70       0x62 C:\TMP\nn_denoise_rtc_sample.elf.UaA6UP.ltrans0.ltrans.o
 .text.highpass.constprop.0
                0x000000001ff51ad2       0x8e C:\TMP\nn_denoise_rtc_sample.elf.UaA6UP.ltrans0.ltrans.o
 .text.qmf_synth.constprop.0
                0x000000001ff51b60      0x172 C:\TMP\nn_denoise_rtc_sample.elf.UaA6UP.ltrans0.ltrans.o
 .text.lsp_quant.constprop.0
                0x000000001ff51cd2       0x86 C:\TMP\nn_denoise_rtc_sample.elf.UaA6UP.ltrans0.ltrans.o
 .text.lsp_weight_quant.constprop.0
                0x000000001ff51d58       0x92 C:\TMP\nn_denoise_rtc_sample.elf.UaA6UP.ltrans0.ltrans.o
 .text.rc_callee_alg_aes_addr
                0x000000001ff51dea        0x8 C:\TMP\nn_denoise_rtc_sample.elf.UaA6UP.ltrans0.ltrans.o
                0x000000001ff51dea                rc_callee_alg_aes_addr
 .text.rc_callee_print_doa_angle_in_host
                0x000000001ff51df2        0x2 C:\TMP\nn_denoise_rtc_sample.elf.UaA6UP.ltrans0.ltrans.o
                0x000000001ff51df2                rc_callee_print_doa_angle_in_host
 .text.rc_callee_sed_rslt_cb
                0x000000001ff51df4        0x2 C:\TMP\nn_denoise_rtc_sample.elf.UaA6UP.ltrans0.ltrans.o
                0x000000001ff51df4                rc_callee_sed_rslt_cb
 .text.rc_callee_deal_one_frm_fft_rslt_callback
                0x000000001ff51df6        0x2 C:\TMP\nn_denoise_rtc_sample.elf.UaA6UP.ltrans0.ltrans.o
                0x000000001ff51df6                rc_callee_deal_one_frm_fft_rslt_callback
 .text.rc_callee_audio_deal_one_frm_callback
                0x000000001ff51df8        0x2 C:\TMP\nn_denoise_rtc_sample.elf.UaA6UP.ltrans0.ltrans.o
                0x000000001ff51df8                rc_callee_audio_deal_one_frm_callback
 .text.efuse_check_int_state
                0x000000001ff51dfa       0x14 C:\TMP\nn_denoise_rtc_sample.elf.UaA6UP.ltrans0.ltrans.o
 .text.efuse_int_clear
                0x000000001ff51e0e       0x12 C:\TMP\nn_denoise_rtc_sample.elf.UaA6UP.ltrans0.ltrans.o
 .text.prvTaskExitError
                0x000000001ff51e20       0x16 C:\TMP\nn_denoise_rtc_sample.elf.UaA6UP.ltrans0.ltrans.o
 .text.compute_quant_weights
                0x000000001ff51e36       0xba C:\TMP\nn_denoise_rtc_sample.elf.UaA6UP.ltrans0.ltrans.o
 .text.forced_pitch_unquant
                0x000000001ff51ef0       0x78 C:\TMP\nn_denoise_rtc_sample.elf.UaA6UP.ltrans0.ltrans.o
                0x000000001ff51ef0                forced_pitch_unquant
 .text.inner_prod
                0x000000001ff51f68       0x48 C:\TMP\nn_denoise_rtc_sample.elf.UaA6UP.ltrans0.ltrans.o
 .text.interp_pitch.constprop.0
                0x000000001ff51fb0      0x122 C:\TMP\nn_denoise_rtc_sample.elf.UaA6UP.ltrans0.ltrans.o
 .text.cheb_poly_eva.isra.0
                0x000000001ff520d2       0xa2 C:\TMP\nn_denoise_rtc_sample.elf.UaA6UP.ltrans0.ltrans.o
 .text.lsp_interpolate
                0x000000001ff52174       0xf6 C:\TMP\nn_denoise_rtc_sample.elf.UaA6UP.ltrans0.ltrans.o
 .text.lsp_to_lpc
                0x000000001ff5226a      0x1bc C:\TMP\nn_denoise_rtc_sample.elf.UaA6UP.ltrans0.ltrans.o
 .text._spx_autocorr
                0x000000001ff52426       0x46 C:\TMP\nn_denoise_rtc_sample.elf.UaA6UP.ltrans0.ltrans.o
 .text._spx_lpc
                0x000000001ff5246c       0xca C:\TMP\nn_denoise_rtc_sample.elf.UaA6UP.ltrans0.ltrans.o
 .text.compute_impulse_response
                0x000000001ff52536      0x118 C:\TMP\nn_denoise_rtc_sample.elf.UaA6UP.ltrans0.ltrans.o
 .text.syn_percep_zero16
                0x000000001ff5264e       0x60 C:\TMP\nn_denoise_rtc_sample.elf.UaA6UP.ltrans0.ltrans.o
 .text.forced_pitch_quant
                0x000000001ff526ae       0xe8 C:\TMP\nn_denoise_rtc_sample.elf.UaA6UP.ltrans0.ltrans.o
                0x000000001ff526ae                forced_pitch_quant
 .text.signal_mul
                0x000000001ff52796       0x1e C:\TMP\nn_denoise_rtc_sample.elf.UaA6UP.ltrans0.ltrans.o
 .text.bw_lpc   0x000000001ff527b4       0x26 C:\TMP\nn_denoise_rtc_sample.elf.UaA6UP.ltrans0.ltrans.o
 .text.sb_decode_lost
                0x000000001ff527da      0x122 C:\TMP\nn_denoise_rtc_sample.elf.UaA6UP.ltrans0.ltrans.o
 .text.compute_weighted_codebook.isra.0
                0x000000001ff528fc       0x8e C:\TMP\nn_denoise_rtc_sample.elf.UaA6UP.ltrans0.ltrans.o
 .text.noise_codebook_unquant
                0x000000001ff5298a       0x86 C:\TMP\nn_denoise_rtc_sample.elf.UaA6UP.ltrans0.ltrans.o
                0x000000001ff5298a                noise_codebook_unquant
 .text.prvCopyDataToQueue.constprop.0
                0x000000001ff52a10       0x94 C:\TMP\nn_denoise_rtc_sample.elf.UaA6UP.ltrans0.ltrans.o
 .text.lsp_quant_high
                0x000000001ff52aa4      0x152 C:\TMP\nn_denoise_rtc_sample.elf.UaA6UP.ltrans0.ltrans.o
                0x000000001ff52aa4                lsp_quant_high
 .text.lsp_quant_lbr
                0x000000001ff52bf6      0x168 C:\TMP\nn_denoise_rtc_sample.elf.UaA6UP.ltrans0.ltrans.o
                0x000000001ff52bf6                lsp_quant_lbr
 .text.lsp_quant_nb
                0x000000001ff52d5e      0x1ca C:\TMP\nn_denoise_rtc_sample.elf.UaA6UP.ltrans0.ltrans.o
                0x000000001ff52d5e                lsp_quant_nb
 .text.split_cb_search_shape_sign
                0x000000001ff52f28      0x91c C:\TMP\nn_denoise_rtc_sample.elf.UaA6UP.ltrans0.ltrans.o
                0x000000001ff52f28                split_cb_search_shape_sign
 .text.open_loop_nbest_pitch
                0x000000001ff53844      0x29e C:\TMP\nn_denoise_rtc_sample.elf.UaA6UP.ltrans0.ltrans.o
 .text.compute_rms
                0x000000001ff53ae2       0x46 C:\TMP\nn_denoise_rtc_sample.elf.UaA6UP.ltrans0.ltrans.o
 .text.multicomb.constprop.0
                0x000000001ff53b28      0x2e6 C:\TMP\nn_denoise_rtc_sample.elf.UaA6UP.ltrans0.ltrans.o
 .text.lpc_to_lsp.constprop.0
                0x000000001ff53e0e      0x266 C:\TMP\nn_denoise_rtc_sample.elf.UaA6UP.ltrans0.ltrans.o
 .text.speex_warning_int.lto_priv.0
                0x000000001ff54074       0x1e C:\TMP\nn_denoise_rtc_sample.elf.UaA6UP.ltrans0.ltrans.o
 .text.nb_mode_query
                0x000000001ff54092       0x46 C:\TMP\nn_denoise_rtc_sample.elf.UaA6UP.ltrans0.ltrans.o
                0x000000001ff54092                nb_mode_query
 .text.wb_mode_query
                0x000000001ff540d8       0x48 C:\TMP\nn_denoise_rtc_sample.elf.UaA6UP.ltrans0.ltrans.o
                0x000000001ff540d8                wb_mode_query
 .text._speex_fatal.constprop.0
                0x000000001ff54120       0x28 C:\TMP\nn_denoise_rtc_sample.elf.UaA6UP.ltrans0.ltrans.o
 .text.sb_decoder_destroy
                0x000000001ff54148       0x48 C:\TMP\nn_denoise_rtc_sample.elf.UaA6UP.ltrans0.ltrans.o
                0x000000001ff54148                sb_decoder_destroy
 .text.nb_decoder_destroy
                0x000000001ff54190       0x16 C:\TMP\nn_denoise_rtc_sample.elf.UaA6UP.ltrans0.ltrans.o
                0x000000001ff54190                nb_decoder_destroy
 .text.rc_callee_malloc_in_host
                0x000000001ff541a6        0xe C:\TMP\nn_denoise_rtc_sample.elf.UaA6UP.ltrans0.ltrans.o
                0x000000001ff541a6                rc_callee_malloc_in_host
 .text.rc_callee_get_current_model_addr
                0x000000001ff541b4       0x14 C:\TMP\nn_denoise_rtc_sample.elf.UaA6UP.ltrans0.ltrans.o
                0x000000001ff541b4                rc_callee_get_current_model_addr
 .text.speex_default_user_handler
                0x000000001ff541c8       0x1e C:\TMP\nn_denoise_rtc_sample.elf.UaA6UP.ltrans0.ltrans.o
 .text.lsp_unquant_high
                0x000000001ff541e6      0x11a C:\TMP\nn_denoise_rtc_sample.elf.UaA6UP.ltrans0.ltrans.o
                0x000000001ff541e6                lsp_unquant_high
 .text.lsp_unquant_lbr
                0x000000001ff54300      0x166 C:\TMP\nn_denoise_rtc_sample.elf.UaA6UP.ltrans0.ltrans.o
                0x000000001ff54300                lsp_unquant_lbr
 .text.lsp_unquant_nb
                0x000000001ff54466      0x21e C:\TMP\nn_denoise_rtc_sample.elf.UaA6UP.ltrans0.ltrans.o
                0x000000001ff54466                lsp_unquant_nb
 .text.split_cb_shape_sign_unquant
                0x000000001ff54684      0x12e C:\TMP\nn_denoise_rtc_sample.elf.UaA6UP.ltrans0.ltrans.o
                0x000000001ff54684                split_cb_shape_sign_unquant
 .text.noise_codebook_quant
                0x000000001ff547b2       0xa4 C:\TMP\nn_denoise_rtc_sample.elf.UaA6UP.ltrans0.ltrans.o
                0x000000001ff547b2                noise_codebook_quant
 .text.pitch_unquant_3tap
                0x000000001ff54856      0x270 C:\TMP\nn_denoise_rtc_sample.elf.UaA6UP.ltrans0.ltrans.o
                0x000000001ff54856                pitch_unquant_3tap
 .text.pitch_search_3tap
                0x000000001ff54ac6      0x73a C:\TMP\nn_denoise_rtc_sample.elf.UaA6UP.ltrans0.ltrans.o
                0x000000001ff54ac6                pitch_search_3tap
 .text.nb_decoder_ctl
                0x000000001ff55200      0x22e C:\TMP\nn_denoise_rtc_sample.elf.UaA6UP.ltrans0.ltrans.o
                0x000000001ff55200                nb_decoder_ctl
 .text.nb_encode
                0x000000001ff5542e      0xcba C:\TMP\nn_denoise_rtc_sample.elf.UaA6UP.ltrans0.ltrans.o
                0x000000001ff5542e                nb_encode
 .text.eclic_set_irq_priority.constprop.0
                0x000000001ff560e8       0x3a C:\TMP\nn_denoise_rtc_sample.elf.UaA6UP.ltrans0.ltrans.o
                0x000000001ff560e8                eclic_set_irq_priority.constprop.0
 .text.find_id.constprop.0
                0x000000001ff56122       0x46 C:\TMP\nn_denoise_rtc_sample.elf.UaA6UP.ltrans0.ltrans.o
                0x000000001ff56122                find_id.constprop.0
 .text.ci_eq_deal.constprop.0
                0x000000001ff56168      0x4de C:\TMP\nn_denoise_rtc_sample.elf.UaA6UP.ltrans0.ltrans.o
                0x000000001ff56168                ci_eq_deal.constprop.0
 .text.cias_speex_compressed_data.constprop.0
                0x000000001ff56646       0xf2 C:\TMP\nn_denoise_rtc_sample.elf.UaA6UP.ltrans0.ltrans.o
                0x000000001ff56646                cias_speex_compressed_data.constprop.0
 .text.dpmu_unlock_cfg_config
                0x000000001ff56738       0x12 C:\TMP\nn_denoise_rtc_sample.elf.UaA6UP.ltrans0.ltrans.o
                0x000000001ff56738                dpmu_unlock_cfg_config
 .text.dpmu_config_update_en
                0x000000001ff5674a       0x3c C:\TMP\nn_denoise_rtc_sample.elf.UaA6UP.ltrans0.ltrans.o
                0x000000001ff5674a                dpmu_config_update_en
 .text.dpmu_ldo3_lv_set
                0x000000001ff56786       0x34 C:\TMP\nn_denoise_rtc_sample.elf.UaA6UP.ltrans0.ltrans.o
                0x000000001ff56786                dpmu_ldo3_lv_set
 .text.dpmu_ldo2_lv_set
                0x000000001ff567ba       0x30 C:\TMP\nn_denoise_rtc_sample.elf.UaA6UP.ltrans0.ltrans.o
                0x000000001ff567ba                dpmu_ldo2_lv_set
 .text.dpmu_ldo1_lv_set
                0x000000001ff567ea       0x2a C:\TMP\nn_denoise_rtc_sample.elf.UaA6UP.ltrans0.ltrans.o
                0x000000001ff567ea                dpmu_ldo1_lv_set
 .text.dpmu_set_pmu_trim_value
                0x000000001ff56814       0x34 C:\TMP\nn_denoise_rtc_sample.elf.UaA6UP.ltrans0.ltrans.o
                0x000000001ff56814                dpmu_set_pmu_trim_value
 .text.dpmu_set_io_pull
                0x000000001ff56848       0x7a C:\TMP\nn_denoise_rtc_sample.elf.UaA6UP.ltrans0.ltrans.o
                0x000000001ff56848                dpmu_set_io_pull
 .text.dpmu_set_io_reuse
                0x000000001ff568c2      0x130 C:\TMP\nn_denoise_rtc_sample.elf.UaA6UP.ltrans0.ltrans.o
                0x000000001ff568c2                dpmu_set_io_reuse
 .text.dpmu_software_reset_system_config
                0x000000001ff569f2       0x2e C:\TMP\nn_denoise_rtc_sample.elf.UaA6UP.ltrans0.ltrans.o
                0x000000001ff569f2                dpmu_software_reset_system_config
 .text.dpmu_get_pll_frequency
                0x000000001ff56a20       0x3e C:\TMP\nn_denoise_rtc_sample.elf.UaA6UP.ltrans0.ltrans.o
                0x000000001ff56a20                dpmu_get_pll_frequency
 .text.efuse_read_data
                0x000000001ff56a5e        0xe C:\TMP\nn_denoise_rtc_sample.elf.UaA6UP.ltrans0.ltrans.o
                0x000000001ff56a5e                efuse_read_data
 .text.AON_EFUSE_IRQHandler
                0x000000001ff56a6c       0x72 C:\TMP\nn_denoise_rtc_sample.elf.UaA6UP.ltrans0.ltrans.o
                0x000000001ff56a6c                AON_EFUSE_IRQHandler
 .text.efuse_check_idle
                0x000000001ff56ade        0xe C:\TMP\nn_denoise_rtc_sample.elf.UaA6UP.ltrans0.ltrans.o
                0x000000001ff56ade                efuse_check_idle
 .text.efuse_read_start
                0x000000001ff56aec        0xe C:\TMP\nn_denoise_rtc_sample.elf.UaA6UP.ltrans0.ltrans.o
                0x000000001ff56aec                efuse_read_start
 .text.efuse_clk_freq_sel
                0x000000001ff56afa       0x10 C:\TMP\nn_denoise_rtc_sample.elf.UaA6UP.ltrans0.ltrans.o
                0x000000001ff56afa                efuse_clk_freq_sel
 .text.scu_unlock_reset_config
                0x000000001ff56b0a       0x12 C:\TMP\nn_denoise_rtc_sample.elf.UaA6UP.ltrans0.ltrans.o
                0x000000001ff56b0a                scu_unlock_reset_config
 .text.scu_set_device_reset_release
                0x000000001ff56b1c      0x146 C:\TMP\nn_denoise_rtc_sample.elf.UaA6UP.ltrans0.ltrans.o
                0x000000001ff56b1c                scu_set_device_reset_release
 .text.scu_set_device_reset
                0x000000001ff56c62      0x150 C:\TMP\nn_denoise_rtc_sample.elf.UaA6UP.ltrans0.ltrans.o
                0x000000001ff56c62                scu_set_device_reset
 .text.scu_unlock_clk_config
                0x000000001ff56db2       0x12 C:\TMP\nn_denoise_rtc_sample.elf.UaA6UP.ltrans0.ltrans.o
                0x000000001ff56db2                scu_unlock_clk_config
 .text.scu_iis_codec_mclk_config
                0x000000001ff56dc4       0x8e C:\TMP\nn_denoise_rtc_sample.elf.UaA6UP.ltrans0.ltrans.o
                0x000000001ff56dc4                scu_iis_codec_mclk_config
 .text.scu_iis_pad_mclk_config
                0x000000001ff56e52       0x74 C:\TMP\nn_denoise_rtc_sample.elf.UaA6UP.ltrans0.ltrans.o
                0x000000001ff56e52                scu_iis_pad_mclk_config
 .text.scu_iis_pad_clk_config
                0x000000001ff56ec6       0x74 C:\TMP\nn_denoise_rtc_sample.elf.UaA6UP.ltrans0.ltrans.o
                0x000000001ff56ec6                scu_iis_pad_clk_config
 .text.scu_iis_clk_config
                0x000000001ff56f3a       0xb2 C:\TMP\nn_denoise_rtc_sample.elf.UaA6UP.ltrans0.ltrans.o
                0x000000001ff56f3a                scu_iis_clk_config
 .text.scu_iis_mclk_Config
                0x000000001ff56fec       0x92 C:\TMP\nn_denoise_rtc_sample.elf.UaA6UP.ltrans0.ltrans.o
                0x000000001ff56fec                scu_iis_mclk_Config
 .text.scu_set_device_gate
                0x000000001ff5707e      0x1de C:\TMP\nn_denoise_rtc_sample.elf.UaA6UP.ltrans0.ltrans.o
                0x000000001ff5707e                scu_set_device_gate
 .text.scu_unlock_system_config
                0x000000001ff5725c       0x12 C:\TMP\nn_denoise_rtc_sample.elf.UaA6UP.ltrans0.ltrans.o
                0x000000001ff5725c                scu_unlock_system_config
 .text.dpmu_pll_config.constprop.0
                0x000000001ff5726e      0x15c C:\TMP\nn_denoise_rtc_sample.elf.UaA6UP.ltrans0.ltrans.o
                0x000000001ff5726e                dpmu_pll_config.constprop.0
 .text.MAIL_BOX_IRQHandler
                0x000000001ff573ca       0x52 C:\TMP\nn_denoise_rtc_sample.elf.UaA6UP.ltrans0.ltrans.o
                0x000000001ff573ca                MAIL_BOX_IRQHandler
 .text.xPortSetInterruptMask
                0x000000001ff5741c       0x1e C:\TMP\nn_denoise_rtc_sample.elf.UaA6UP.ltrans0.ltrans.o
                0x000000001ff5741c                xPortSetInterruptMask
 .text.xQueueGenericSendFromISR.constprop.0
                0x000000001ff5743a       0x70 C:\TMP\nn_denoise_rtc_sample.elf.UaA6UP.ltrans0.ltrans.o
                0x000000001ff5743a                xQueueGenericSendFromISR.constprop.0
 .text.vPortExitCritical
                0x000000001ff574aa       0x1a C:\TMP\nn_denoise_rtc_sample.elf.UaA6UP.ltrans0.ltrans.o
                0x000000001ff574aa                vPortExitCritical
 .text.vPortEnterCritical
                0x000000001ff574c4       0x24 C:\TMP\nn_denoise_rtc_sample.elf.UaA6UP.ltrans0.ltrans.o
                0x000000001ff574c4                vPortEnterCritical
 .text.vPortSetup
                0x000000001ff574e8       0x9e C:\TMP\nn_denoise_rtc_sample.elf.UaA6UP.ltrans0.ltrans.o
                0x000000001ff574e8                vPortSetup
 .text.vDoTaskSwitchContext
                0x000000001ff57586       0x76 C:\TMP\nn_denoise_rtc_sample.elf.UaA6UP.ltrans0.ltrans.o
                0x000000001ff57586                vDoTaskSwitchContext
 .text.taskswitch
                0x000000001ff575fc       0x14 C:\TMP\nn_denoise_rtc_sample.elf.UaA6UP.ltrans0.ltrans.o
                0x000000001ff575fc                taskswitch
 .text.vPortClearMSIPInt
                0x000000001ff57610       0x12 C:\TMP\nn_denoise_rtc_sample.elf.UaA6UP.ltrans0.ltrans.o
                0x000000001ff57610                vPortClearMSIPInt
 .text.vPortSetMSIPInt
                0x000000001ff57622       0x1a C:\TMP\nn_denoise_rtc_sample.elf.UaA6UP.ltrans0.ltrans.o
                0x000000001ff57622                vPortSetMSIPInt
 .text.xTaskGenericNotify.constprop.0
                0x000000001ff5763c       0x64 C:\TMP\nn_denoise_rtc_sample.elf.UaA6UP.ltrans0.ltrans.o
                0x000000001ff5763c                xTaskGenericNotify.constprop.0
 .text.xTaskNotifyWait.constprop.0
                0x000000001ff576a0       0x6e C:\TMP\nn_denoise_rtc_sample.elf.UaA6UP.ltrans0.ltrans.o
                0x000000001ff576a0                xTaskNotifyWait.constprop.0
 .text.xTaskCreate.constprop.0
                0x000000001ff5770e      0x1fc C:\TMP\nn_denoise_rtc_sample.elf.UaA6UP.ltrans0.ltrans.o
                0x000000001ff5770e                xTaskCreate.constprop.0
 .text.vPortSysTickHandler
                0x000000001ff5790a       0x60 C:\TMP\nn_denoise_rtc_sample.elf.UaA6UP.ltrans0.ltrans.o
                0x000000001ff5790a                vPortSysTickHandler
 .text.flash_manage_give_op_done_sem
                0x000000001ff5796a       0x4c C:\TMP\nn_denoise_rtc_sample.elf.UaA6UP.ltrans0.ltrans.o
 .text.flash_manage_nuclear_com_outside_serve_cb.lto_priv.0
                0x000000001ff579b6       0x42 C:\TMP\nn_denoise_rtc_sample.elf.UaA6UP.ltrans0.ltrans.o
                0x000000001ff579b6                flash_manage_nuclear_com_outside_serve_cb.lto_priv.0
 .text.speex_decoder_ctl
                0x000000001ff579f8        0xe C:\TMP\nn_denoise_rtc_sample.elf.UaA6UP.ltrans0.ltrans.o
                0x000000001ff579f8                speex_decoder_ctl
 .text.speex_decode_int.constprop.0
                0x000000001ff57a06       0xfe C:\TMP\nn_denoise_rtc_sample.elf.UaA6UP.ltrans0.ltrans.o
                0x000000001ff57a06                speex_decode_int.constprop.0
 .text.sb_decoder_ctl
                0x000000001ff57b04      0x1bc C:\TMP\nn_denoise_rtc_sample.elf.UaA6UP.ltrans0.ltrans.o
                0x000000001ff57b04                sb_decoder_ctl
 .text.speex_encoder_ctl
                0x000000001ff57cc0        0xe C:\TMP\nn_denoise_rtc_sample.elf.UaA6UP.ltrans0.ltrans.o
                0x000000001ff57cc0                speex_encoder_ctl
 .text.sb_encode
                0x000000001ff57cce      0xa6c C:\TMP\nn_denoise_rtc_sample.elf.UaA6UP.ltrans0.ltrans.o
                0x000000001ff57cce                sb_encode
 .text.sb_encoder_ctl
                0x000000001ff5873a      0x232 C:\TMP\nn_denoise_rtc_sample.elf.UaA6UP.ltrans0.ltrans.o
                0x000000001ff5873a                sb_encoder_ctl
 .text.nb_encoder_ctl
                0x000000001ff5896c      0x26c C:\TMP\nn_denoise_rtc_sample.elf.UaA6UP.ltrans0.ltrans.o
                0x000000001ff5896c                nb_encoder_ctl
 .text.speex_notify.lto_priv.0.lto_priv.0
                0x000000001ff58bd8       0x1c C:\TMP\nn_denoise_rtc_sample.elf.UaA6UP.ltrans0.ltrans.o
                0x000000001ff58bd8                speex_notify.lto_priv.0.lto_priv.0
 .text.sb_decode
                0x000000001ff58bf4      0x5e2 C:\TMP\nn_denoise_rtc_sample.elf.UaA6UP.ltrans0.ltrans.o
                0x000000001ff58bf4                sb_decode
 .text.nb_decode
                0x000000001ff591d6      0xeb0 C:\TMP\nn_denoise_rtc_sample.elf.UaA6UP.ltrans0.ltrans.o
                0x000000001ff591d6                nb_decode
 .text.speex_alloc.lto_priv.0.lto_priv.0
                0x000000001ff5a086        0xe C:\TMP\nn_denoise_rtc_sample.elf.UaA6UP.ltrans0.ltrans.o
                0x000000001ff5a086                speex_alloc.lto_priv.0.lto_priv.0
 .text.sb_decoder_init
                0x000000001ff5a094       0xde C:\TMP\nn_denoise_rtc_sample.elf.UaA6UP.ltrans0.ltrans.o
                0x000000001ff5a094                sb_decoder_init
 .text.nb_decoder_init
                0x000000001ff5a172       0xd2 C:\TMP\nn_denoise_rtc_sample.elf.UaA6UP.ltrans0.ltrans.o
                0x000000001ff5a172                nb_decoder_init
 .text.xQueueGenericSend.constprop.0
                0x000000001ff5a244       0xe8 C:\TMP\nn_denoise_rtc_sample.elf.UaA6UP.ltrans0.ltrans.o
                0x000000001ff5a244                xQueueGenericSend.constprop.0
 .text.xQueueCreateMutex.constprop.0
                0x000000001ff5a32c       0x2c C:\TMP\nn_denoise_rtc_sample.elf.UaA6UP.ltrans0.ltrans.o
                0x000000001ff5a32c                xQueueCreateMutex.constprop.0
 .text.xTimerGenericCommand.constprop.0
                0x000000001ff5a358       0x2c C:\TMP\nn_denoise_rtc_sample.elf.UaA6UP.ltrans0.ltrans.o
                0x000000001ff5a358                xTimerGenericCommand.constprop.0
 .text.prompt_play_by_cmd_string.constprop.0
                0x000000001ff5a384       0x8c C:\TMP\nn_denoise_rtc_sample.elf.UaA6UP.ltrans0.ltrans.o
 .text.give_flash_sem.lto_priv.0
                0x000000001ff5a410       0x1c C:\TMP\nn_denoise_rtc_sample.elf.UaA6UP.ltrans0.ltrans.o
                0x000000001ff5a410                give_flash_sem.lto_priv.0
 .text.xStreamBufferReceive.constprop.0
                0x000000001ff5a42c       0xc6 C:\TMP\nn_denoise_rtc_sample.elf.UaA6UP.ltrans0.ltrans.o
                0x000000001ff5a42c                xStreamBufferReceive.constprop.0
 .text.IISDMA_ChannelIntENConfig.constprop.0
                0x000000001ff5a4f2       0x58 C:\TMP\nn_denoise_rtc_sample.elf.UaA6UP.ltrans0.ltrans.o
                0x000000001ff5a4f2                IISDMA_ChannelIntENConfig.constprop.0
 .text.cm_get_pcm_buffer.constprop.0
                0x000000001ff5a54a       0x80 C:\TMP\nn_denoise_rtc_sample.elf.UaA6UP.ltrans0.ltrans.o
                0x000000001ff5a54a                cm_get_pcm_buffer.constprop.0
 .text.iis_audio_choose.constprop.0
                0x000000001ff5a5ca       0x98 C:\TMP\nn_denoise_rtc_sample.elf.UaA6UP.ltrans0.ltrans.o
                0x000000001ff5a5ca                iis_audio_choose.constprop.0
 .text.rc_callee_alg_aes_type_tip
                0x000000001ff5a662       0x1e C:\TMP\nn_denoise_rtc_sample.elf.UaA6UP.ltrans0.ltrans.o
                0x000000001ff5a662                rc_callee_alg_aes_type_tip
 .text.rc_callee_npu_ifft_data_handle_in_host
                0x000000001ff5a680       0x8a C:\TMP\nn_denoise_rtc_sample.elf.UaA6UP.ltrans0.ltrans.o
                0x000000001ff5a680                rc_callee_npu_ifft_data_handle_in_host
 .text.rc_callee_free_in_host
                0x000000001ff5a70a       0x40 C:\TMP\nn_denoise_rtc_sample.elf.UaA6UP.ltrans0.ltrans.o
                0x000000001ff5a70a                rc_callee_free_in_host
 .text.mailbox_send_msg
                0x000000001ff5a74a       0xb8 C:\TMP\nn_denoise_rtc_sample.elf.UaA6UP.ltrans0.ltrans.o
                0x000000001ff5a74a                mailbox_send_msg
 .text.nuclear_com_send.constprop.0
                0x000000001ff5a802       0xb8 C:\TMP\nn_denoise_rtc_sample.elf.UaA6UP.ltrans0.ltrans.o
 .text.send_voice_info_to_audio_in_manage.constprop.0
                0x000000001ff5a8ba       0x3a C:\TMP\nn_denoise_rtc_sample.elf.UaA6UP.ltrans0.ltrans.o
                0x000000001ff5a8ba                send_voice_info_to_audio_in_manage.constprop.0
 .text.flash_manage_ept_cal_serve_rpmsg.lto_priv.0
                0x000000001ff5a8f4       0x1c C:\TMP\nn_denoise_rtc_sample.elf.UaA6UP.ltrans0.ltrans.o
                0x000000001ff5a8f4                flash_manage_ept_cal_serve_rpmsg.lto_priv.0
 .text.remote_call_task.lto_priv.0
                0x000000001ff5a910       0xfe C:\TMP\nn_denoise_rtc_sample.elf.UaA6UP.ltrans0.ltrans.o
                0x000000001ff5a910                remote_call_task.lto_priv.0
 .text.nuclear_com_irq_handler
                0x000000001ff5aa0e      0x176 C:\TMP\nn_denoise_rtc_sample.elf.UaA6UP.ltrans0.ltrans.o
                0x000000001ff5aa0e                nuclear_com_irq_handler
 .text.ulSynchTrap
                0x000000001ff5ab84      0x110 C:\TMP\nn_denoise_rtc_sample.elf.UaA6UP.ltrans0.ltrans.o
                0x000000001ff5ab84                ulSynchTrap
 .text.flash_manage_req_wait_op_done_sem
                0x000000001ff5ac94       0xca C:\TMP\nn_denoise_rtc_sample.elf.UaA6UP.ltrans0.ltrans.o
 .text.wait_flash_sem
                0x000000001ff5ad5e       0x3e C:\TMP\nn_denoise_rtc_sample.elf.UaA6UP.ltrans0.ltrans.o
 .text.post_erase_flash.constprop.0
                0x000000001ff5ad9c       0x70 C:\TMP\nn_denoise_rtc_sample.elf.UaA6UP.ltrans0.ltrans.o
                0x000000001ff5ad9c                post_erase_flash.constprop.0
 .text.post_spic_read_unique_id
                0x000000001ff5ae0c       0x36 C:\TMP\nn_denoise_rtc_sample.elf.UaA6UP.ltrans0.ltrans.o
 .text.post_write_flash
                0x000000001ff5ae42       0x3e C:\TMP\nn_denoise_rtc_sample.elf.UaA6UP.ltrans0.ltrans.o
                0x000000001ff5ae42                post_write_flash
 .text.post_read_flash
                0x000000001ff5ae80       0x94 C:\TMP\nn_denoise_rtc_sample.elf.UaA6UP.ltrans0.ltrans.o
                0x000000001ff5ae80                post_read_flash
 .text.write_item.constprop.0
                0x000000001ff5af14      0x11c C:\TMP\nn_denoise_rtc_sample.elf.UaA6UP.ltrans0.ltrans.o
 .text.init_item.constprop.0
                0x000000001ff5b030       0xba C:\TMP\nn_denoise_rtc_sample.elf.UaA6UP.ltrans0.ltrans.o
                0x000000001ff5b030                init_item.constprop.0
 .text.rc_callee_flash_get_en_data
                0x000000001ff5b0ea       0x1c C:\TMP\nn_denoise_rtc_sample.elf.UaA6UP.ltrans0.ltrans.o
                0x000000001ff5b0ea                rc_callee_flash_get_en_data
 .text.decoder_rpmsg_serve_cb
                0x000000001ff5b106      0x2a4 C:\TMP\nn_denoise_rtc_sample.elf.UaA6UP.ltrans0.ltrans.o
                0x000000001ff5b106                decoder_rpmsg_serve_cb
 .text.asr_top_outside_serve_cb
                0x000000001ff5b3aa       0x76 C:\TMP\nn_denoise_rtc_sample.elf.UaA6UP.ltrans0.ltrans.o
                0x000000001ff5b3aa                asr_top_outside_serve_cb
 .text.sb_encoder_destroy
                0x000000001ff5b420       0x6c C:\TMP\nn_denoise_rtc_sample.elf.UaA6UP.ltrans0.ltrans.o
                0x000000001ff5b420                sb_encoder_destroy
 .text.sb_encoder_init
                0x000000001ff5b48c      0x166 C:\TMP\nn_denoise_rtc_sample.elf.UaA6UP.ltrans0.ltrans.o
                0x000000001ff5b48c                sb_encoder_init
 .text.nb_encoder_destroy
                0x000000001ff5b5f2       0x2e C:\TMP\nn_denoise_rtc_sample.elf.UaA6UP.ltrans0.ltrans.o
                0x000000001ff5b5f2                nb_encoder_destroy
 .text.nb_encoder_init
                0x000000001ff5b620       0xe8 C:\TMP\nn_denoise_rtc_sample.elf.UaA6UP.ltrans0.ltrans.o
                0x000000001ff5b620                nb_encoder_init
 .text.other_func_serve_cb
                0x000000001ff5b708       0x1a C:\TMP\nn_denoise_rtc_sample.elf.UaA6UP.ltrans1.ltrans.o
 .text.icodec_config
                0x000000001ff5b722      0x112 C:\TMP\nn_denoise_rtc_sample.elf.UaA6UP.ltrans1.ltrans.o
 .text.icodec_stop
                0x000000001ff5b834       0x20 C:\TMP\nn_denoise_rtc_sample.elf.UaA6UP.ltrans1.ltrans.o
 .text.inner_codec_adc_dig_gain_set
                0x000000001ff5b854       0x44 C:\TMP\nn_denoise_rtc_sample.elf.UaA6UP.ltrans1.ltrans.o
 .text.get_pga_gain_reg_data_from_db
                0x000000001ff5b898       0x3a C:\TMP\nn_denoise_rtc_sample.elf.UaA6UP.ltrans1.ltrans.o
 .text.icodec_ioctl
                0x000000001ff5b8d2       0xfe C:\TMP\nn_denoise_rtc_sample.elf.UaA6UP.ltrans1.ltrans.o
 .text.convert_left_and_right
                0x000000001ff5b9d0        0x6 C:\TMP\nn_denoise_rtc_sample.elf.UaA6UP.ltrans1.ltrans.o
 .text.uart_dma_read_irq_callback
                0x000000001ff5b9d6        0x8 C:\TMP\nn_denoise_rtc_sample.elf.UaA6UP.ltrans1.ltrans.o
 .text.prvInsertBlockIntoFreeList
                0x000000001ff5b9de       0x42 C:\TMP\nn_denoise_rtc_sample.elf.UaA6UP.ltrans1.ltrans.o
 .text.prvResetNextTaskUnblockTime
                0x000000001ff5ba20       0x1e C:\TMP\nn_denoise_rtc_sample.elf.UaA6UP.ltrans1.ltrans.o
 .text.prvWriteBytesToBuffer
                0x000000001ff5ba3e       0x58 C:\TMP\nn_denoise_rtc_sample.elf.UaA6UP.ltrans1.ltrans.o
 .text.prvCopyDataFromQueue
                0x000000001ff5ba96       0x2c C:\TMP\nn_denoise_rtc_sample.elf.UaA6UP.ltrans1.ltrans.o
 .text.vListInsert
                0x000000001ff5bac2       0x2e C:\TMP\nn_denoise_rtc_sample.elf.UaA6UP.ltrans1.ltrans.o
 .text.prvInsertTimerInActiveList
                0x000000001ff5baf0       0x3e C:\TMP\nn_denoise_rtc_sample.elf.UaA6UP.ltrans1.ltrans.o
 .text.speex_bits_init
                0x000000001ff5bb2e       0x34 C:\TMP\nn_denoise_rtc_sample.elf.UaA6UP.ltrans1.ltrans.o
 .text.speex_warning
                0x000000001ff5bb62       0x1c C:\TMP\nn_denoise_rtc_sample.elf.UaA6UP.ltrans1.ltrans.o
 .text.iis_clk_gate
                0x000000001ff5bb7e       0x50 C:\TMP\nn_denoise_rtc_sample.elf.UaA6UP.ltrans1.ltrans.o
 .text.pad_config_for_uart.part.0
                0x000000001ff5bbce       0x20 C:\TMP\nn_denoise_rtc_sample.elf.UaA6UP.ltrans1.ltrans.o
 .text.pad_config_for_uart
                0x000000001ff5bbee       0x54 C:\TMP\nn_denoise_rtc_sample.elf.UaA6UP.ltrans1.ltrans.o
 .text.audio_pre_rslt_write_data_from_uart
                0x000000001ff5bc42      0x17a C:\TMP\nn_denoise_rtc_sample.elf.UaA6UP.ltrans1.ltrans.o
 .text.speex_bits_remaining
                0x000000001ff5bdbc       0x16 C:\TMP\nn_denoise_rtc_sample.elf.UaA6UP.ltrans1.ltrans.o
                0x000000001ff5bdbc                speex_bits_remaining
 .text.speex_bits_advance
                0x000000001ff5bdd2       0x2c C:\TMP\nn_denoise_rtc_sample.elf.UaA6UP.ltrans1.ltrans.o
                0x000000001ff5bdd2                speex_bits_advance
 .text.speex_bits_unpack_unsigned
                0x000000001ff5bdfe       0x58 C:\TMP\nn_denoise_rtc_sample.elf.UaA6UP.ltrans1.ltrans.o
                0x000000001ff5bdfe                speex_bits_unpack_unsigned
 .text.speex_bits_pack
                0x000000001ff5be56       0xae C:\TMP\nn_denoise_rtc_sample.elf.UaA6UP.ltrans1.ltrans.o
                0x000000001ff5be56                speex_bits_pack
 .text.UART0_IRQHandler
                0x000000001ff5bf04       0x80 C:\TMP\nn_denoise_rtc_sample.elf.UaA6UP.ltrans1.ltrans.o
                0x000000001ff5bf04                UART0_IRQHandler
 .text.get_src_clk
                0x000000001ff5bf84        0xc C:\TMP\nn_denoise_rtc_sample.elf.UaA6UP.ltrans1.ltrans.o
                0x000000001ff5bf84                get_src_clk
 .text.check_curr_trap
                0x000000001ff5bf90        0xe C:\TMP\nn_denoise_rtc_sample.elf.UaA6UP.ltrans1.ltrans.o
                0x000000001ff5bf90                check_curr_trap
 .text.eclic_set_irq_lvl_abs.lto_priv.0
                0x000000001ff5bf9e       0x4a C:\TMP\nn_denoise_rtc_sample.elf.UaA6UP.ltrans1.ltrans.o
                0x000000001ff5bf9e                eclic_set_irq_lvl_abs.lto_priv.0
 .text.init_irq_pri
                0x000000001ff5bfe8       0x22 C:\TMP\nn_denoise_rtc_sample.elf.UaA6UP.ltrans1.ltrans.o
 .text.write_feb_status.lto_priv.0
                0x000000001ff5c00a       0x4e C:\TMP\nn_denoise_rtc_sample.elf.UaA6UP.ltrans1.ltrans.o
                0x000000001ff5c00a                write_feb_status.lto_priv.0
 .text.write_item_status.lto_priv.0
                0x000000001ff5c058       0x7c C:\TMP\nn_denoise_rtc_sample.elf.UaA6UP.ltrans1.ltrans.o
                0x000000001ff5c058                write_item_status.lto_priv.0
 .text.hotid_update.lto_priv.0
                0x000000001ff5c0d4       0x1c C:\TMP\nn_denoise_rtc_sample.elf.UaA6UP.ltrans1.ltrans.o
                0x000000001ff5c0d4                hotid_update.lto_priv.0
 .text.traverse_feb.lto_priv.0
                0x000000001ff5c0f0      0x25a C:\TMP\nn_denoise_rtc_sample.elf.UaA6UP.ltrans1.ltrans.o
                0x000000001ff5c0f0                traverse_feb.lto_priv.0
 .text.find_item.lto_priv.0
                0x000000001ff5c34a       0x54 C:\TMP\nn_denoise_rtc_sample.elf.UaA6UP.ltrans1.ltrans.o
                0x000000001ff5c34a                find_item.lto_priv.0
 .text.erase_feb.lto_priv.0
                0x000000001ff5c39e       0x2e C:\TMP\nn_denoise_rtc_sample.elf.UaA6UP.ltrans1.ltrans.o
                0x000000001ff5c39e                erase_feb.lto_priv.0
 .text.ciss_set
                0x000000001ff5c3cc       0x16 C:\TMP\nn_denoise_rtc_sample.elf.UaA6UP.ltrans1.ltrans.o
                0x000000001ff5c3cc                ciss_set
 .text._printf  0x000000001ff5c3e2       0x76 C:\TMP\nn_denoise_rtc_sample.elf.UaA6UP.ltrans1.ltrans.o
                0x000000001ff5c3e2                _printf
 .text.UART2_IRQHandler
                0x000000001ff5c458       0xb0 C:\TMP\nn_denoise_rtc_sample.elf.UaA6UP.ltrans1.ltrans.o
                0x000000001ff5c458                UART2_IRQHandler
 .text.IIC0_IRQHandler
                0x000000001ff5c508      0x27a C:\TMP\nn_denoise_rtc_sample.elf.UaA6UP.ltrans1.ltrans.o
                0x000000001ff5c508                IIC0_IRQHandler
 .text.iis_wait_load_ctrl
                0x000000001ff5c782       0x38 C:\TMP\nn_denoise_rtc_sample.elf.UaA6UP.ltrans1.ltrans.o
 .text.IISxDMA_TADDR0.part.0
                0x000000001ff5c7ba       0x2c C:\TMP\nn_denoise_rtc_sample.elf.UaA6UP.ltrans1.ltrans.o
 .text.IISDMA_ADDRRollBackINT.part.0
                0x000000001ff5c7e6       0x2c C:\TMP\nn_denoise_rtc_sample.elf.UaA6UP.ltrans1.ltrans.o
 .text.cm_write_codec
                0x000000001ff5c812       0x90 C:\TMP\nn_denoise_rtc_sample.elf.UaA6UP.ltrans1.ltrans.o
 .text.get_iis_dma_channel
                0x000000001ff5c8a2       0x58 C:\TMP\nn_denoise_rtc_sample.elf.UaA6UP.ltrans1.ltrans.o
 .text.init_iis.isra.0
                0x000000001ff5c8fa       0x8a C:\TMP\nn_denoise_rtc_sample.elf.UaA6UP.ltrans1.ltrans.o
 .text.cm_reg_codec.part.0
                0x000000001ff5c984      0x172 C:\TMP\nn_denoise_rtc_sample.elf.UaA6UP.ltrans1.ltrans.o
 .text.xTaskGetSchedulerState
                0x000000001ff5caf6       0x14 C:\TMP\nn_denoise_rtc_sample.elf.UaA6UP.ltrans1.ltrans.o
                0x000000001ff5caf6                xTaskGetSchedulerState
 .text.cinv_port_mutex_give
                0x000000001ff5cb0a       0x34 C:\TMP\nn_denoise_rtc_sample.elf.UaA6UP.ltrans1.ltrans.o
 .text.xTaskCheckForTimeOut
                0x000000001ff5cb3e       0x60 C:\TMP\nn_denoise_rtc_sample.elf.UaA6UP.ltrans1.ltrans.o
                0x000000001ff5cb3e                xTaskCheckForTimeOut
 .text.vTaskSuspendAll
                0x000000001ff5cb9e        0xc C:\TMP\nn_denoise_rtc_sample.elf.UaA6UP.ltrans1.ltrans.o
                0x000000001ff5cb9e                vTaskSuspendAll
 .text.prvBytesInBuffer.lto_priv.0
                0x000000001ff5cbaa       0x14 C:\TMP\nn_denoise_rtc_sample.elf.UaA6UP.ltrans1.ltrans.o
                0x000000001ff5cbaa                prvBytesInBuffer.lto_priv.0
 .text.prvReadBytesFromBuffer.lto_priv.0
                0x000000001ff5cbbe       0x5e C:\TMP\nn_denoise_rtc_sample.elf.UaA6UP.ltrans1.ltrans.o
                0x000000001ff5cbbe                prvReadBytesFromBuffer.lto_priv.0
 .text.uxListRemove
                0x000000001ff5cc1c       0x20 C:\TMP\nn_denoise_rtc_sample.elf.UaA6UP.ltrans1.ltrans.o
                0x000000001ff5cc1c                uxListRemove
 .text.prvSwitchTimerLists
                0x000000001ff5cc3c       0x62 C:\TMP\nn_denoise_rtc_sample.elf.UaA6UP.ltrans1.ltrans.o
 .text.vListInsertEnd
                0x000000001ff5cc9e       0x18 C:\TMP\nn_denoise_rtc_sample.elf.UaA6UP.ltrans1.ltrans.o
                0x000000001ff5cc9e                vListInsertEnd
 .text.prvAddCurrentTaskToDelayedList.lto_priv.0
                0x000000001ff5ccb6       0x70 C:\TMP\nn_denoise_rtc_sample.elf.UaA6UP.ltrans1.ltrans.o
                0x000000001ff5ccb6                prvAddCurrentTaskToDelayedList.lto_priv.0
 .text.vTaskPlaceOnEventList
                0x000000001ff5cd26       0x1c C:\TMP\nn_denoise_rtc_sample.elf.UaA6UP.ltrans1.ltrans.o
                0x000000001ff5cd26                vTaskPlaceOnEventList
 .text.xTaskRemoveFromEventList
                0x000000001ff5cd42       0x70 C:\TMP\nn_denoise_rtc_sample.elf.UaA6UP.ltrans1.ltrans.o
                0x000000001ff5cd42                xTaskRemoveFromEventList
 .text.prvUnlockQueue.lto_priv.0
                0x000000001ff5cdb2       0x7a C:\TMP\nn_denoise_rtc_sample.elf.UaA6UP.ltrans1.ltrans.o
                0x000000001ff5cdb2                prvUnlockQueue.lto_priv.0
 .text.xQueueReceiveFromISR
                0x000000001ff5ce2c       0x72 C:\TMP\nn_denoise_rtc_sample.elf.UaA6UP.ltrans1.ltrans.o
                0x000000001ff5ce2c                xQueueReceiveFromISR
 .text.cm_output_interrupt_handler
                0x000000001ff5ce9e      0x100 C:\TMP\nn_denoise_rtc_sample.elf.UaA6UP.ltrans1.ltrans.o
 .text.xQueueGiveFromISR
                0x000000001ff5cf9e       0x60 C:\TMP\nn_denoise_rtc_sample.elf.UaA6UP.ltrans1.ltrans.o
                0x000000001ff5cf9e                xQueueGiveFromISR
 .text.cm_input_interrupt_handler
                0x000000001ff5cffe       0x7c C:\TMP\nn_denoise_rtc_sample.elf.UaA6UP.ltrans1.ltrans.o
 .text.IIS_DMA_IRQHandler
                0x000000001ff5d07a      0x112 C:\TMP\nn_denoise_rtc_sample.elf.UaA6UP.ltrans1.ltrans.o
                0x000000001ff5d07a                IIS_DMA_IRQHandler
 .text.xTaskIncrementTick
                0x000000001ff5d18c       0xea C:\TMP\nn_denoise_rtc_sample.elf.UaA6UP.ltrans1.ltrans.o
                0x000000001ff5d18c                xTaskIncrementTick
 .text.xTaskResumeAll
                0x000000001ff5d276       0xbe C:\TMP\nn_denoise_rtc_sample.elf.UaA6UP.ltrans1.ltrans.o
                0x000000001ff5d276                xTaskResumeAll
 .text.vPortFree
                0x000000001ff5d334       0x4a C:\TMP\nn_denoise_rtc_sample.elf.UaA6UP.ltrans1.ltrans.o
                0x000000001ff5d334                vPortFree
 .text.prvIdleTask
                0x000000001ff5d37e       0x60 C:\TMP\nn_denoise_rtc_sample.elf.UaA6UP.ltrans1.ltrans.o
 .text.vQueueDelete
                0x000000001ff5d3de       0x38 C:\TMP\nn_denoise_rtc_sample.elf.UaA6UP.ltrans1.ltrans.o
 .text.pvPortMalloc
                0x000000001ff5d416       0xf2 C:\TMP\nn_denoise_rtc_sample.elf.UaA6UP.ltrans1.ltrans.o
                0x000000001ff5d416                pvPortMalloc
 .text.realloc_buffer
                0x000000001ff5d508       0x3a C:\TMP\nn_denoise_rtc_sample.elf.UaA6UP.ltrans1.ltrans.o
 .text.get_file_addr
                0x000000001ff5d542       0xd2 C:\TMP\nn_denoise_rtc_sample.elf.UaA6UP.ltrans1.ltrans.o
 .text.get_current_model_addr
                0x000000001ff5d614       0x8e C:\TMP\nn_denoise_rtc_sample.elf.UaA6UP.ltrans1.ltrans.o
                0x000000001ff5d614                get_current_model_addr
 .text.flash_control_inner_serve_cb
                0x000000001ff5d6a2       0x76 C:\TMP\nn_denoise_rtc_sample.elf.UaA6UP.ltrans1.ltrans.o
 .text.prvListTasksWithinSingleList
                0x000000001ff5d718       0xca C:\TMP\nn_denoise_rtc_sample.elf.UaA6UP.ltrans1.ltrans.o
 .text.vTaskDelay
                0x000000001ff5d7e2       0x24 C:\TMP\nn_denoise_rtc_sample.elf.UaA6UP.ltrans1.ltrans.o
 .text.speex_record_data_task
                0x000000001ff5d806       0xbe C:\TMP\nn_denoise_rtc_sample.elf.UaA6UP.ltrans1.ltrans.o
 .text.xStreamBufferSend
                0x000000001ff5d8c4      0x104 C:\TMP\nn_denoise_rtc_sample.elf.UaA6UP.ltrans1.ltrans.o
 .text.xQueueReceive
                0x000000001ff5d9c8       0xec C:\TMP\nn_denoise_rtc_sample.elf.UaA6UP.ltrans1.ltrans.o
                0x000000001ff5d9c8                xQueueReceive
 .text.prvTimerTask
                0x000000001ff5dab4      0x1a8 C:\TMP\nn_denoise_rtc_sample.elf.UaA6UP.ltrans1.ltrans.o
 .text.xQueueSemaphoreTake
                0x000000001ff5dc5c      0x222 C:\TMP\nn_denoise_rtc_sample.elf.UaA6UP.ltrans1.ltrans.o
                0x000000001ff5dc5c                xQueueSemaphoreTake
 .text.cm_start_codec
                0x000000001ff5de7e      0x1da C:\TMP\nn_denoise_rtc_sample.elf.UaA6UP.ltrans1.ltrans.o
 .text.speex_play_data_task
                0x000000001ff5e058       0xf2 C:\TMP\nn_denoise_rtc_sample.elf.UaA6UP.ltrans1.ltrans.o
 .text.audio_pre_rslt_write_data
                0x000000001ff5e14a      0x1ac C:\TMP\nn_denoise_rtc_sample.elf.UaA6UP.ltrans1.ltrans.o
 .text.ifft_data_handle_task_rtc
                0x000000001ff5e2f6       0xae C:\TMP\nn_denoise_rtc_sample.elf.UaA6UP.ltrans1.ltrans.o
 .text.codec_manage_inner_serve_cb
                0x000000001ff5e3a4       0x9c C:\TMP\nn_denoise_rtc_sample.elf.UaA6UP.ltrans1.ltrans.o
 .text.cinv_port_mutex_take
                0x000000001ff5e440       0x32 C:\TMP\nn_denoise_rtc_sample.elf.UaA6UP.ltrans1.ltrans.o
 .text.uart_eq_param_cfg_task
                0x000000001ff5e472      0x5ea C:\TMP\nn_denoise_rtc_sample.elf.UaA6UP.ltrans1.ltrans.o
 .text.vListInitialise
                0x000000001ff5ea5c       0x14 C:\TMP\nn_denoise_rtc_sample.elf.UaA6UP.ltrans1.ltrans.o
                0x000000001ff5ea5c                vListInitialise
 .text.xQueueGenericCreate
                0x000000001ff5ea70       0x74 C:\TMP\nn_denoise_rtc_sample.elf.UaA6UP.ltrans1.ltrans.o
                0x000000001ff5ea70                xQueueGenericCreate
 .text.cm_config_pcm_buffer.part.0
                0x000000001ff5eae4       0xfe C:\TMP\nn_denoise_rtc_sample.elf.UaA6UP.ltrans1.ltrans.o
 .text.xEventGroupSetBits
                0x000000001ff5ebe2       0xbc C:\TMP\nn_denoise_rtc_sample.elf.UaA6UP.ltrans1.ltrans.o
                0x000000001ff5ebe2                xEventGroupSetBits
 .text.vEventGroupSetBitsCallback
                0x000000001ff5ec9e        0xc C:\TMP\nn_denoise_rtc_sample.elf.UaA6UP.ltrans1.ltrans.o
                0x000000001ff5ec9e                vEventGroupSetBitsCallback
 .text.handle_trap
                0x000000001ff5ecaa      0x11a C:\TMP\nn_denoise_rtc_sample.elf.UaA6UP.ltrans1.ltrans.o
                0x000000001ff5ecaa                handle_trap
 .text._delay_10us_240M
                0x000000001ff5edc4       0x2e C:\TMP\nn_denoise_rtc_sample.elf.UaA6UP.ltrans1.ltrans.o
                0x000000001ff5edc4                _delay_10us_240M
 .text.UART_BAUDRATEConfig
                0x000000001ff5edf2      0x45e C:\TMP\nn_denoise_rtc_sample.elf.UaA6UP.ltrans1.ltrans.o
 .text.speex_recv_data_task
                0x000000001ff5f250      0x214 C:\TMP\nn_denoise_rtc_sample.elf.UaA6UP.ltrans1.ltrans.o
 .text.GPIO_IRQ_Default_proc
                0x000000001ff5f464       0xc0 C:\TMP\nn_denoise_rtc_sample.elf.UaA6UP.ltrans1.ltrans.o
 .text.AON_PC_IRQHandler
                0x000000001ff5f524       0x12 C:\TMP\nn_denoise_rtc_sample.elf.UaA6UP.ltrans1.ltrans.o
                0x000000001ff5f524                AON_PC_IRQHandler
 .text.PB_IRQHandler
                0x000000001ff5f536       0x12 C:\TMP\nn_denoise_rtc_sample.elf.UaA6UP.ltrans1.ltrans.o
                0x000000001ff5f536                PB_IRQHandler
 .text.PA_IRQHandler
                0x000000001ff5f548       0x12 C:\TMP\nn_denoise_rtc_sample.elf.UaA6UP.ltrans1.ltrans.o
                0x000000001ff5f548                PA_IRQHandler
 .text.inner_codec_dac_enable
                0x000000001ff5f55a       0xa2 C:\TMP\nn_denoise_rtc_sample.elf.UaA6UP.ltrans1.ltrans.o
 .text.icodec_start
                0x000000001ff5f5fc       0x1a C:\TMP\nn_denoise_rtc_sample.elf.UaA6UP.ltrans1.ltrans.o
 .text.icodec_init
                0x000000001ff5f616      0x318 C:\TMP\nn_denoise_rtc_sample.elf.UaA6UP.ltrans1.ltrans.o
 .text.cm_config_codec.part.0
                0x000000001ff5f92e      0x6b6 C:\TMP\nn_denoise_rtc_sample.elf.UaA6UP.ltrans1.ltrans.o
 .text.task_init
                0x000000001ff5ffe4     0x13cc C:\TMP\nn_denoise_rtc_sample.elf.UaA6UP.ltrans1.ltrans.o
 .text.audio_pre_rslt_out_play_card_init
                0x000000001ff613b0      0x17c C:\TMP\nn_denoise_rtc_sample.elf.UaA6UP.ltrans1.ltrans.o
 .text.audio_in_manage_inner_task_rtc
                0x000000001ff6152c       0xc2 C:\TMP\nn_denoise_rtc_sample.elf.UaA6UP.ltrans1.ltrans.o
 .text.AON_TIM_INT1_IRQHandler
                0x000000001ff615ee        0x2 C:\TMP\nn_denoise_rtc_sample.elf.UaA6UP.ltrans1.ltrans.o
                0x000000001ff615ee                AON_TIM_INT1_IRQHandler
 .text.IWDG_IRQHandler
                0x000000001ff615f0        0x2 C:\TMP\nn_denoise_rtc_sample.elf.UaA6UP.ltrans1.ltrans.o
                0x000000001ff615f0                IWDG_IRQHandler
 .text.AON_TIM_INT0_IRQHandler
                0x000000001ff615f2        0x2 C:\TMP\nn_denoise_rtc_sample.elf.UaA6UP.ltrans1.ltrans.o
                0x000000001ff615f2                AON_TIM_INT0_IRQHandler
 .text.EXT1_IRQHandler
                0x000000001ff615f4        0x2 C:\TMP\nn_denoise_rtc_sample.elf.UaA6UP.ltrans1.ltrans.o
                0x000000001ff615f4                EXT1_IRQHandler
 .text.EXT0_IRQHandler
                0x000000001ff615f6        0x2 C:\TMP\nn_denoise_rtc_sample.elf.UaA6UP.ltrans1.ltrans.o
                0x000000001ff615f6                EXT0_IRQHandler
 .text.VDT_IRQHandler
                0x000000001ff615f8        0x2 C:\TMP\nn_denoise_rtc_sample.elf.UaA6UP.ltrans1.ltrans.o
                0x000000001ff615f8                VDT_IRQHandler
 .text.V11_OK_IRQHandler
                0x000000001ff615fa        0x2 C:\TMP\nn_denoise_rtc_sample.elf.UaA6UP.ltrans1.ltrans.o
                0x000000001ff615fa                V11_OK_IRQHandler
 .text.DTR_IRQHandler
                0x000000001ff615fc        0x2 C:\TMP\nn_denoise_rtc_sample.elf.UaA6UP.ltrans1.ltrans.o
                0x000000001ff615fc                DTR_IRQHandler
 .text.PDM_IRQHandler
                0x000000001ff615fe        0x2 C:\TMP\nn_denoise_rtc_sample.elf.UaA6UP.ltrans1.ltrans.o
                0x000000001ff615fe                PDM_IRQHandler
 .text.ALC_IRQHandler
                0x000000001ff61600        0x2 C:\TMP\nn_denoise_rtc_sample.elf.UaA6UP.ltrans1.ltrans.o
                0x000000001ff61600                ALC_IRQHandler
 .text.IIS2_IRQHandler
                0x000000001ff61602        0x2 C:\TMP\nn_denoise_rtc_sample.elf.UaA6UP.ltrans1.ltrans.o
                0x000000001ff61602                IIS2_IRQHandler
 .text.IIS1_IRQHandler
                0x000000001ff61604        0x2 C:\TMP\nn_denoise_rtc_sample.elf.UaA6UP.ltrans1.ltrans.o
                0x000000001ff61604                IIS1_IRQHandler
 .text.IIS0_IRQHandler
                0x000000001ff61606        0x2 C:\TMP\nn_denoise_rtc_sample.elf.UaA6UP.ltrans1.ltrans.o
                0x000000001ff61606                IIS0_IRQHandler
 .text.UART1_IRQHandler
                0x000000001ff61608        0x2 C:\TMP\nn_denoise_rtc_sample.elf.UaA6UP.ltrans1.ltrans.o
                0x000000001ff61608                UART1_IRQHandler
 .text.TIMER3_IRQHandler
                0x000000001ff6160a        0x2 C:\TMP\nn_denoise_rtc_sample.elf.UaA6UP.ltrans1.ltrans.o
                0x000000001ff6160a                TIMER3_IRQHandler
 .text.TIMER2_IRQHandler
                0x000000001ff6160c        0x2 C:\TMP\nn_denoise_rtc_sample.elf.UaA6UP.ltrans1.ltrans.o
                0x000000001ff6160c                TIMER2_IRQHandler
 .text.TIMER1_IRQHandler
                0x000000001ff6160e        0x2 C:\TMP\nn_denoise_rtc_sample.elf.UaA6UP.ltrans1.ltrans.o
                0x000000001ff6160e                TIMER1_IRQHandler
 .text.TIMER0_IRQHandler
                0x000000001ff61610        0x2 C:\TMP\nn_denoise_rtc_sample.elf.UaA6UP.ltrans1.ltrans.o
                0x000000001ff61610                TIMER0_IRQHandler
 .text.DMA_IRQHandler
                0x000000001ff61612       0x40 C:\TMP\nn_denoise_rtc_sample.elf.UaA6UP.ltrans1.ltrans.o
                0x000000001ff61612                DMA_IRQHandler
 .text.ADC_IRQHandler
                0x000000001ff61652        0x2 C:\TMP\nn_denoise_rtc_sample.elf.UaA6UP.ltrans1.ltrans.o
                0x000000001ff61652                ADC_IRQHandler
 .text.NPU_IRQHandler
                0x000000001ff61654        0x2 C:\TMP\nn_denoise_rtc_sample.elf.UaA6UP.ltrans1.ltrans.o
                0x000000001ff61654                NPU_IRQHandler
 .text.SCU_IRQHandler
                0x000000001ff61656        0x2 C:\TMP\nn_denoise_rtc_sample.elf.UaA6UP.ltrans1.ltrans.o
                0x000000001ff61656                SCU_IRQHandler
 .text.TWDG_IRQHandler
                0x000000001ff61658        0x2 C:\TMP\nn_denoise_rtc_sample.elf.UaA6UP.ltrans1.ltrans.o
                0x000000001ff61658                TWDG_IRQHandler
 .text._fini    0x000000001ff6165a        0x2 C:\TMP\nn_denoise_rtc_sample.elf.UaA6UP.ltrans1.ltrans.o
                0x000000001ff6165a                _fini
 .text._init    0x000000001ff6165c       0xc0 C:\TMP\nn_denoise_rtc_sample.elf.UaA6UP.ltrans1.ltrans.o
                0x000000001ff6165c                _init
 .text.sbrk     0x000000001ff6171c       0x6e ../../../libs\libnewlib_port.a(sbrk.o)
                0x000000001ff6171c                sbrk
 .text.get_heap_bytes_remaining_size
                0x000000001ff6178a        0x6 ../../../libs\libnewlib_port.a(sbrk.o)
                0x000000001ff6178a                get_heap_bytes_remaining_size
 .text._sbrk    0x000000001ff61790        0xa ../../../libs\libnewlib_port.a(sbrk.o)
                0x000000001ff61790                _sbrk
 .text.__malloc_lock
                0x000000001ff6179a        0xa ../../../libs\libnewlib_port.a(sbrk.o)
                0x000000001ff6179a                __malloc_lock
 .text.__malloc_unlock
                0x000000001ff617a4        0xa ../../../libs\libnewlib_port.a(sbrk.o)
                0x000000001ff617a4                __malloc_unlock
 .text.__wrap_memcmp
                0x000000001ff617ae        0xe ../../../libs\libnewlib_port.a(sbrk.o)
                0x000000001ff617ae                __wrap_memcmp
 .text.__wrap_memcpy
                0x000000001ff617bc        0xe ../../../libs\libnewlib_port.a(sbrk.o)
                0x000000001ff617bc                __wrap_memcpy
 .text.__wrap_memmove
                0x000000001ff617ca        0xe ../../../libs\libnewlib_port.a(sbrk.o)
                0x000000001ff617ca                __wrap_memmove
 .text.__wrap_memset
                0x000000001ff617d8        0xe ../../../libs\libnewlib_port.a(sbrk.o)
                0x000000001ff617d8                __wrap_memset
 .text.__wrap_strcmp
                0x000000001ff617e6        0xe ../../../libs\libnewlib_port.a(sbrk.o)
                0x000000001ff617e6                __wrap_strcmp
 .text.__wrap_malloc
                0x000000001ff617f4       0x10 ../../../libs\libnewlib_port.a(sbrk.o)
                0x000000001ff617f4                __wrap_malloc
 .text.__wrap_free
                0x000000001ff61804       0x10 ../../../libs\libnewlib_port.a(sbrk.o)
                0x000000001ff61804                __wrap_free
 .text.__wrap_fabsf
                0x000000001ff61814       0x10 ../../../libs\libnewlib_port.a(sbrk.o)
                0x000000001ff61814                __wrap_fabsf
 *fill*         0x000000001ff61824       0x1c 
 .text.entry    0x000000001ff61840      0x5f4 ../../../libs\libfreertos_port.a(portasm.o)
                0x000000001ff61840                trap_entry
                0x000000001ff61930                irq_entry
                0x000000001ff61aa4                eclic_mtip_handler
                0x000000001ff61b64                eclic_msip_handler
                0x000000001ff61c40                vPortYield_from_ulSynchTrap
                0x000000001ff61c80                vPortYield
                0x000000001ff61db0                xPortStartScheduler
                0x000000001ff61e20                vPortEndScheduler
 .text          0x000000001ff61e34       0x60 d:/software/yuyin/qiqiyinqiluntai/riscv-nuclei-elf-gcc-9.2.0.0/gcc_fix_raissrc/bin/../lib/gcc/riscv-nuclei-elf/9.2.0/rv32imafc/ilp32f\libgcc.a(save-restore.o)
                0x000000001ff61e34                __riscv_save_12
                0x000000001ff61e3c                __riscv_save_9
                0x000000001ff61e3c                __riscv_save_11
                0x000000001ff61e3c                __riscv_save_10
                0x000000001ff61e3c                __riscv_save_8
                0x000000001ff61e4a                __riscv_save_4
                0x000000001ff61e4a                __riscv_save_6
                0x000000001ff61e4a                __riscv_save_5
                0x000000001ff61e4a                __riscv_save_7
                0x000000001ff61e64                __riscv_save_3
                0x000000001ff61e64                __riscv_save_2
                0x000000001ff61e64                __riscv_save_1
                0x000000001ff61e64                __riscv_save_0
                0x000000001ff61e70                __riscv_restore_12
                0x000000001ff61e74                __riscv_restore_11
                0x000000001ff61e74                __riscv_restore_9
                0x000000001ff61e74                __riscv_restore_10
                0x000000001ff61e74                __riscv_restore_8
                0x000000001ff61e7e                __riscv_restore_5
                0x000000001ff61e7e                __riscv_restore_7
                0x000000001ff61e7e                __riscv_restore_6
                0x000000001ff61e7e                __riscv_restore_4
                0x000000001ff61e88                __riscv_restore_3
                0x000000001ff61e88                __riscv_restore_0
                0x000000001ff61e88                __riscv_restore_2
                0x000000001ff61e88                __riscv_restore_1
 .text          0x000000001ff61e94      0x8a8 d:/software/yuyin/qiqiyinqiluntai/riscv-nuclei-elf-gcc-9.2.0.0/gcc_fix_raissrc/bin/../lib/gcc/riscv-nuclei-elf/9.2.0/rv32imafc/ilp32f\libgcc.a(adddf3.o)
                0x000000001ff61e94                __adddf3
 .text          0x000000001ff6273c      0x694 d:/software/yuyin/qiqiyinqiluntai/riscv-nuclei-elf-gcc-9.2.0.0/gcc_fix_raissrc/bin/../lib/gcc/riscv-nuclei-elf/9.2.0/rv32imafc/ilp32f\libgcc.a(divdf3.o)
                0x000000001ff6273c                __divdf3
 .text          0x000000001ff62dd0       0xa2 d:/software/yuyin/qiqiyinqiluntai/riscv-nuclei-elf-gcc-9.2.0.0/gcc_fix_raissrc/bin/../lib/gcc/riscv-nuclei-elf/9.2.0/rv32imafc/ilp32f\libgcc.a(eqdf2.o)
                0x000000001ff62dd0                __nedf2
                0x000000001ff62dd0                __eqdf2
 .text          0x000000001ff62e72       0xae d:/software/yuyin/qiqiyinqiluntai/riscv-nuclei-elf-gcc-9.2.0.0/gcc_fix_raissrc/bin/../lib/gcc/riscv-nuclei-elf/9.2.0/rv32imafc/ilp32f\libgcc.a(gedf2.o)
                0x000000001ff62e72                __gedf2
                0x000000001ff62e72                __gtdf2
 .text          0x000000001ff62f20       0xae d:/software/yuyin/qiqiyinqiluntai/riscv-nuclei-elf-gcc-9.2.0.0/gcc_fix_raissrc/bin/../lib/gcc/riscv-nuclei-elf/9.2.0/rv32imafc/ilp32f\libgcc.a(ledf2.o)
                0x000000001ff62f20                __ledf2
                0x000000001ff62f20                __ltdf2
 .text          0x000000001ff62fce      0x5a4 d:/software/yuyin/qiqiyinqiluntai/riscv-nuclei-elf-gcc-9.2.0.0/gcc_fix_raissrc/bin/../lib/gcc/riscv-nuclei-elf/9.2.0/rv32imafc/ilp32f\libgcc.a(muldf3.o)
                0x000000001ff62fce                __muldf3
 .text          0x000000001ff63572      0x8c4 d:/software/yuyin/qiqiyinqiluntai/riscv-nuclei-elf-gcc-9.2.0.0/gcc_fix_raissrc/bin/../lib/gcc/riscv-nuclei-elf/9.2.0/rv32imafc/ilp32f\libgcc.a(subdf3.o)
                0x000000001ff63572                __subdf3
 .text          0x000000001ff63e36       0x76 d:/software/yuyin/qiqiyinqiluntai/riscv-nuclei-elf-gcc-9.2.0.0/gcc_fix_raissrc/bin/../lib/gcc/riscv-nuclei-elf/9.2.0/rv32imafc/ilp32f\libgcc.a(unorddf2.o)
                0x000000001ff63e36                __unorddf2
 .text          0x000000001ff63eac       0xc4 d:/software/yuyin/qiqiyinqiluntai/riscv-nuclei-elf-gcc-9.2.0.0/gcc_fix_raissrc/bin/../lib/gcc/riscv-nuclei-elf/9.2.0/rv32imafc/ilp32f\libgcc.a(fixdfsi.o)
                0x000000001ff63eac                __fixdfsi
 .text          0x000000001ff63f70       0x68 d:/software/yuyin/qiqiyinqiluntai/riscv-nuclei-elf-gcc-9.2.0.0/gcc_fix_raissrc/bin/../lib/gcc/riscv-nuclei-elf/9.2.0/rv32imafc/ilp32f\libgcc.a(floatsidf.o)
                0x000000001ff63f70                __floatsidf
 .text          0x000000001ff63fd8       0xbc d:/software/yuyin/qiqiyinqiluntai/riscv-nuclei-elf-gcc-9.2.0.0/gcc_fix_raissrc/bin/../lib/gcc/riscv-nuclei-elf/9.2.0/rv32imafc/ilp32f\libgcc.a(extendsfdf2.o)
                0x000000001ff63fd8                __extendsfdf2
 .text          0x000000001ff64094      0x20e d:/software/yuyin/qiqiyinqiluntai/riscv-nuclei-elf-gcc-9.2.0.0/gcc_fix_raissrc/bin/../lib/gcc/riscv-nuclei-elf/9.2.0/rv32imafc/ilp32f\libgcc.a(truncdfsf2.o)
                0x000000001ff64094                __truncdfsf2
 .text          0x000000001ff642a2       0x3c d:/software/yuyin/qiqiyinqiluntai/riscv-nuclei-elf-gcc-9.2.0.0/gcc_fix_raissrc/bin/../lib/gcc/riscv-nuclei-elf/9.2.0/rv32imafc/ilp32f\libgcc.a(_clzsi2.o)
                0x000000001ff642a2                __clzsi2
 .text.atexit   0x000000001ff642de        0xa d:/software/yuyin/qiqiyinqiluntai/riscv-nuclei-elf-gcc-9.2.0.0/gcc_fix_raissrc/bin/../lib/gcc/riscv-nuclei-elf/9.2.0/../../../../riscv-nuclei-elf/lib/rv32imafc/ilp32f\libg_nano.a(lib_a-atexit.o)
                0x000000001ff642de                atexit
 .text.exit     0x000000001ff642e8       0x26 d:/software/yuyin/qiqiyinqiluntai/riscv-nuclei-elf-gcc-9.2.0.0/gcc_fix_raissrc/bin/../lib/gcc/riscv-nuclei-elf/9.2.0/../../../../riscv-nuclei-elf/lib/rv32imafc/ilp32f\libg_nano.a(lib_a-exit.o)
                0x000000001ff642e8                exit
 .text.__libc_fini_array
                0x000000001ff6430e       0x3a d:/software/yuyin/qiqiyinqiluntai/riscv-nuclei-elf-gcc-9.2.0.0/gcc_fix_raissrc/bin/../lib/gcc/riscv-nuclei-elf/9.2.0/../../../../riscv-nuclei-elf/lib/rv32imafc/ilp32f\libg_nano.a(lib_a-fini.o)
                0x000000001ff6430e                __libc_fini_array
 .text.__libc_init_array
                0x000000001ff64348       0x6e d:/software/yuyin/qiqiyinqiluntai/riscv-nuclei-elf-gcc-9.2.0.0/gcc_fix_raissrc/bin/../lib/gcc/riscv-nuclei-elf/9.2.0/../../../../riscv-nuclei-elf/lib/rv32imafc/ilp32f\libg_nano.a(lib_a-init.o)
                0x000000001ff64348                __libc_init_array
 .text.__register_exitproc
                0x000000001ff643b6       0x7c d:/software/yuyin/qiqiyinqiluntai/riscv-nuclei-elf-gcc-9.2.0.0/gcc_fix_raissrc/bin/../lib/gcc/riscv-nuclei-elf/9.2.0/../../../../riscv-nuclei-elf/lib/rv32imafc/ilp32f\libg_nano.a(lib_a-__atexit.o)
                0x000000001ff643b6                __register_exitproc
 .text.__call_exitprocs
                0x000000001ff64432       0xc4 d:/software/yuyin/qiqiyinqiluntai/riscv-nuclei-elf-gcc-9.2.0.0/gcc_fix_raissrc/bin/../lib/gcc/riscv-nuclei-elf/9.2.0/../../../../riscv-nuclei-elf/lib/rv32imafc/ilp32f\libg_nano.a(lib_a-__call_atexit.o)
                0x000000001ff64432                __call_exitprocs
 .text.calloc   0x000000001ff644f6        0xa d:/software/yuyin/qiqiyinqiluntai/riscv-nuclei-elf-gcc-9.2.0.0/gcc_fix_raissrc/bin/../lib/gcc/riscv-nuclei-elf/9.2.0/../../../../riscv-nuclei-elf/lib/rv32imafc/ilp32f\libg_nano.a(lib_a-calloc.o)
                0x000000001ff644f6                calloc
 .text.fprintf  0x000000001ff64500       0x24 d:/software/yuyin/qiqiyinqiluntai/riscv-nuclei-elf-gcc-9.2.0.0/gcc_fix_raissrc/bin/../lib/gcc/riscv-nuclei-elf/9.2.0/../../../../riscv-nuclei-elf/lib/rv32imafc/ilp32f\libg_nano.a(lib_a-fprintf.o)
                0x000000001ff64500                fiprintf
                0x000000001ff64500                fprintf
 .text._calloc_r
                0x000000001ff64524       0x26 d:/software/yuyin/qiqiyinqiluntai/riscv-nuclei-elf-gcc-9.2.0.0/gcc_fix_raissrc/bin/../lib/gcc/riscv-nuclei-elf/9.2.0/../../../../riscv-nuclei-elf/lib/rv32imafc/ilp32f\libg_nano.a(lib_a-nano-callocr.o)
                0x000000001ff64524                _calloc_r
 .text._malloc_r
                0x000000001ff6454a       0xd8 d:/software/yuyin/qiqiyinqiluntai/riscv-nuclei-elf-gcc-9.2.0.0/gcc_fix_raissrc/bin/../lib/gcc/riscv-nuclei-elf/9.2.0/../../../../riscv-nuclei-elf/lib/rv32imafc/ilp32f\libg_nano.a(lib_a-nano-mallocr.o)
                0x000000001ff6454a                _malloc_r
 .text.__sfputc_r
                0x000000001ff64622       0x28 d:/software/yuyin/qiqiyinqiluntai/riscv-nuclei-elf-gcc-9.2.0.0/gcc_fix_raissrc/bin/../lib/gcc/riscv-nuclei-elf/9.2.0/../../../../riscv-nuclei-elf/lib/rv32imafc/ilp32f\libg_nano.a(lib_a-nano-vfprintf.o)
 .text.__sfputs_r
                0x000000001ff6464a       0x44 d:/software/yuyin/qiqiyinqiluntai/riscv-nuclei-elf-gcc-9.2.0.0/gcc_fix_raissrc/bin/../lib/gcc/riscv-nuclei-elf/9.2.0/../../../../riscv-nuclei-elf/lib/rv32imafc/ilp32f\libg_nano.a(lib_a-nano-vfprintf.o)
                0x000000001ff6464a                __sfputs_r
 .text._vfprintf_r
                0x000000001ff6468e      0x2a0 d:/software/yuyin/qiqiyinqiluntai/riscv-nuclei-elf-gcc-9.2.0.0/gcc_fix_raissrc/bin/../lib/gcc/riscv-nuclei-elf/9.2.0/../../../../riscv-nuclei-elf/lib/rv32imafc/ilp32f\libg_nano.a(lib_a-nano-vfprintf.o)
                0x000000001ff6468e                _vfprintf_r
                0x000000001ff6468e                _vfiprintf_r
 .text.realloc  0x000000001ff6492e        0xc d:/software/yuyin/qiqiyinqiluntai/riscv-nuclei-elf-gcc-9.2.0.0/gcc_fix_raissrc/bin/../lib/gcc/riscv-nuclei-elf/9.2.0/../../../../riscv-nuclei-elf/lib/rv32imafc/ilp32f\libg_nano.a(lib_a-realloc.o)
                0x000000001ff6492e                realloc
 .text._sbrk_r  0x000000001ff6493a       0x30 d:/software/yuyin/qiqiyinqiluntai/riscv-nuclei-elf-gcc-9.2.0.0/gcc_fix_raissrc/bin/../lib/gcc/riscv-nuclei-elf/9.2.0/../../../../riscv-nuclei-elf/lib/rv32imafc/ilp32f\libg_nano.a(lib_a-sbrkr.o)
                0x000000001ff6493a                _sbrk_r
 .text.__swbuf_r
                0x000000001ff6496a       0xc0 d:/software/yuyin/qiqiyinqiluntai/riscv-nuclei-elf-gcc-9.2.0.0/gcc_fix_raissrc/bin/../lib/gcc/riscv-nuclei-elf/9.2.0/../../../../riscv-nuclei-elf/lib/rv32imafc/ilp32f\libg_nano.a(lib_a-wbuf.o)
                0x000000001ff6496a                __swbuf_r
 .text.__swsetup_r
                0x000000001ff64a2a      0x106 d:/software/yuyin/qiqiyinqiluntai/riscv-nuclei-elf-gcc-9.2.0.0/gcc_fix_raissrc/bin/../lib/gcc/riscv-nuclei-elf/9.2.0/../../../../riscv-nuclei-elf/lib/rv32imafc/ilp32f\libg_nano.a(lib_a-wsetup.o)
                0x000000001ff64a2a                __swsetup_r
 .text.__sflush_r
                0x000000001ff64b30      0x14a d:/software/yuyin/qiqiyinqiluntai/riscv-nuclei-elf-gcc-9.2.0.0/gcc_fix_raissrc/bin/../lib/gcc/riscv-nuclei-elf/9.2.0/../../../../riscv-nuclei-elf/lib/rv32imafc/ilp32f\libg_nano.a(lib_a-fflush.o)
                0x000000001ff64b30                __sflush_r
 .text._fflush_r
                0x000000001ff64c7a       0x66 d:/software/yuyin/qiqiyinqiluntai/riscv-nuclei-elf-gcc-9.2.0.0/gcc_fix_raissrc/bin/../lib/gcc/riscv-nuclei-elf/9.2.0/../../../../riscv-nuclei-elf/lib/rv32imafc/ilp32f\libg_nano.a(lib_a-fflush.o)
                0x000000001ff64c7a                _fflush_r
 .text.std      0x000000001ff64ce0       0x6a d:/software/yuyin/qiqiyinqiluntai/riscv-nuclei-elf-gcc-9.2.0.0/gcc_fix_raissrc/bin/../lib/gcc/riscv-nuclei-elf/9.2.0/../../../../riscv-nuclei-elf/lib/rv32imafc/ilp32f\libg_nano.a(lib_a-findfp.o)
 .text._cleanup_r
                0x000000001ff64d4a        0xa d:/software/yuyin/qiqiyinqiluntai/riscv-nuclei-elf-gcc-9.2.0.0/gcc_fix_raissrc/bin/../lib/gcc/riscv-nuclei-elf/9.2.0/../../../../riscv-nuclei-elf/lib/rv32imafc/ilp32f\libg_nano.a(lib_a-findfp.o)
                0x000000001ff64d4a                _cleanup_r
 .text.__sfmoreglue
                0x000000001ff64d54       0x48 d:/software/yuyin/qiqiyinqiluntai/riscv-nuclei-elf-gcc-9.2.0.0/gcc_fix_raissrc/bin/../lib/gcc/riscv-nuclei-elf/9.2.0/../../../../riscv-nuclei-elf/lib/rv32imafc/ilp32f\libg_nano.a(lib_a-findfp.o)
                0x000000001ff64d54                __sfmoreglue
 .text.__sinit  0x000000001ff64d9c       0x6c d:/software/yuyin/qiqiyinqiluntai/riscv-nuclei-elf-gcc-9.2.0.0/gcc_fix_raissrc/bin/../lib/gcc/riscv-nuclei-elf/9.2.0/../../../../riscv-nuclei-elf/lib/rv32imafc/ilp32f\libg_nano.a(lib_a-findfp.o)
                0x000000001ff64d9c                __sinit
 .text.__sfp    0x000000001ff64e08       0x9e d:/software/yuyin/qiqiyinqiluntai/riscv-nuclei-elf-gcc-9.2.0.0/gcc_fix_raissrc/bin/../lib/gcc/riscv-nuclei-elf/9.2.0/../../../../riscv-nuclei-elf/lib/rv32imafc/ilp32f\libg_nano.a(lib_a-findfp.o)
                0x000000001ff64e08                __sfp
 .text._fwalk_reent
                0x000000001ff64ea6       0x6a d:/software/yuyin/qiqiyinqiluntai/riscv-nuclei-elf-gcc-9.2.0.0/gcc_fix_raissrc/bin/../lib/gcc/riscv-nuclei-elf/9.2.0/../../../../riscv-nuclei-elf/lib/rv32imafc/ilp32f\libg_nano.a(lib_a-fwalk.o)
                0x000000001ff64ea6                _fwalk_reent
 .text.__swhatbuf_r
                0x000000001ff64f10       0x5a d:/software/yuyin/qiqiyinqiluntai/riscv-nuclei-elf-gcc-9.2.0.0/gcc_fix_raissrc/bin/../lib/gcc/riscv-nuclei-elf/9.2.0/../../../../riscv-nuclei-elf/lib/rv32imafc/ilp32f\libg_nano.a(lib_a-makebuf.o)
                0x000000001ff64f10                __swhatbuf_r
 .text.__smakebuf_r
                0x000000001ff64f6a       0xa0 d:/software/yuyin/qiqiyinqiluntai/riscv-nuclei-elf-gcc-9.2.0.0/gcc_fix_raissrc/bin/../lib/gcc/riscv-nuclei-elf/9.2.0/../../../../riscv-nuclei-elf/lib/rv32imafc/ilp32f\libg_nano.a(lib_a-makebuf.o)
                0x000000001ff64f6a                __smakebuf_r
 .text.memchr   0x000000001ff6500a       0x1a d:/software/yuyin/qiqiyinqiluntai/riscv-nuclei-elf-gcc-9.2.0.0/gcc_fix_raissrc/bin/../lib/gcc/riscv-nuclei-elf/9.2.0/../../../../riscv-nuclei-elf/lib/rv32imafc/ilp32f\libg_nano.a(lib_a-memchr.o)
                0x000000001ff6500a                memchr
 .text._free_r  0x000000001ff65024       0xa6 d:/software/yuyin/qiqiyinqiluntai/riscv-nuclei-elf-gcc-9.2.0.0/gcc_fix_raissrc/bin/../lib/gcc/riscv-nuclei-elf/9.2.0/../../../../riscv-nuclei-elf/lib/rv32imafc/ilp32f\libg_nano.a(lib_a-nano-freer.o)
                0x000000001ff65024                _free_r
 .text._realloc_r
                0x000000001ff650ca       0x64 d:/software/yuyin/qiqiyinqiluntai/riscv-nuclei-elf-gcc-9.2.0.0/gcc_fix_raissrc/bin/../lib/gcc/riscv-nuclei-elf/9.2.0/../../../../riscv-nuclei-elf/lib/rv32imafc/ilp32f\libg_nano.a(lib_a-nano-reallocr.o)
                0x000000001ff650ca                _realloc_r
 .text._printf_common
                0x000000001ff6512e      0x10c d:/software/yuyin/qiqiyinqiluntai/riscv-nuclei-elf-gcc-9.2.0.0/gcc_fix_raissrc/bin/../lib/gcc/riscv-nuclei-elf/9.2.0/../../../../riscv-nuclei-elf/lib/rv32imafc/ilp32f\libg_nano.a(lib_a-nano-vfprintf_i.o)
                0x000000001ff6512e                _printf_common
 .text._printf_i
                0x000000001ff6523a      0x276 d:/software/yuyin/qiqiyinqiluntai/riscv-nuclei-elf-gcc-9.2.0.0/gcc_fix_raissrc/bin/../lib/gcc/riscv-nuclei-elf/9.2.0/../../../../riscv-nuclei-elf/lib/rv32imafc/ilp32f\libg_nano.a(lib_a-nano-vfprintf_i.o)
                0x000000001ff6523a                _printf_i
 .text.__sread  0x000000001ff654b0       0x30 d:/software/yuyin/qiqiyinqiluntai/riscv-nuclei-elf-gcc-9.2.0.0/gcc_fix_raissrc/bin/../lib/gcc/riscv-nuclei-elf/9.2.0/../../../../riscv-nuclei-elf/lib/rv32imafc/ilp32f\libg_nano.a(lib_a-stdio.o)
                0x000000001ff654b0                __sread
 .text.__swrite
                0x000000001ff654e0       0x4e d:/software/yuyin/qiqiyinqiluntai/riscv-nuclei-elf-gcc-9.2.0.0/gcc_fix_raissrc/bin/../lib/gcc/riscv-nuclei-elf/9.2.0/../../../../riscv-nuclei-elf/lib/rv32imafc/ilp32f\libg_nano.a(lib_a-stdio.o)
                0x000000001ff654e0                __swrite
 .text.__sseek  0x000000001ff6552e       0x36 d:/software/yuyin/qiqiyinqiluntai/riscv-nuclei-elf-gcc-9.2.0.0/gcc_fix_raissrc/bin/../lib/gcc/riscv-nuclei-elf/9.2.0/../../../../riscv-nuclei-elf/lib/rv32imafc/ilp32f\libg_nano.a(lib_a-stdio.o)
                0x000000001ff6552e                __sseek
 .text.__sclose
                0x000000001ff65564        0x6 d:/software/yuyin/qiqiyinqiluntai/riscv-nuclei-elf-gcc-9.2.0.0/gcc_fix_raissrc/bin/../lib/gcc/riscv-nuclei-elf/9.2.0/../../../../riscv-nuclei-elf/lib/rv32imafc/ilp32f\libg_nano.a(lib_a-stdio.o)
                0x000000001ff65564                __sclose
 .text._write_r
                0x000000001ff6556a       0x32 d:/software/yuyin/qiqiyinqiluntai/riscv-nuclei-elf-gcc-9.2.0.0/gcc_fix_raissrc/bin/../lib/gcc/riscv-nuclei-elf/9.2.0/../../../../riscv-nuclei-elf/lib/rv32imafc/ilp32f\libg_nano.a(lib_a-writer.o)
                0x000000001ff6556a                _write_r
 .text._close_r
                0x000000001ff6559c       0x2e d:/software/yuyin/qiqiyinqiluntai/riscv-nuclei-elf-gcc-9.2.0.0/gcc_fix_raissrc/bin/../lib/gcc/riscv-nuclei-elf/9.2.0/../../../../riscv-nuclei-elf/lib/rv32imafc/ilp32f\libg_nano.a(lib_a-closer.o)
                0x000000001ff6559c                _close_r
 .text._fstat_r
                0x000000001ff655ca       0x30 d:/software/yuyin/qiqiyinqiluntai/riscv-nuclei-elf-gcc-9.2.0.0/gcc_fix_raissrc/bin/../lib/gcc/riscv-nuclei-elf/9.2.0/../../../../riscv-nuclei-elf/lib/rv32imafc/ilp32f\libg_nano.a(lib_a-fstatr.o)
                0x000000001ff655ca                _fstat_r
 .text._isatty_r
                0x000000001ff655fa       0x2e d:/software/yuyin/qiqiyinqiluntai/riscv-nuclei-elf-gcc-9.2.0.0/gcc_fix_raissrc/bin/../lib/gcc/riscv-nuclei-elf/9.2.0/../../../../riscv-nuclei-elf/lib/rv32imafc/ilp32f\libg_nano.a(lib_a-isattyr.o)
                0x000000001ff655fa                _isatty_r
 .text._lseek_r
                0x000000001ff65628       0x32 d:/software/yuyin/qiqiyinqiluntai/riscv-nuclei-elf-gcc-9.2.0.0/gcc_fix_raissrc/bin/../lib/gcc/riscv-nuclei-elf/9.2.0/../../../../riscv-nuclei-elf/lib/rv32imafc/ilp32f\libg_nano.a(lib_a-lseekr.o)
                0x000000001ff65628                _lseek_r
 .text._malloc_usable_size_r
                0x000000001ff6565a       0x14 d:/software/yuyin/qiqiyinqiluntai/riscv-nuclei-elf-gcc-9.2.0.0/gcc_fix_raissrc/bin/../lib/gcc/riscv-nuclei-elf/9.2.0/../../../../riscv-nuclei-elf/lib/rv32imafc/ilp32f\libg_nano.a(lib_a-nano-msizer.o)
                0x000000001ff6565a                _malloc_usable_size_r
 .text._read_r  0x000000001ff6566e       0x32 d:/software/yuyin/qiqiyinqiluntai/riscv-nuclei-elf-gcc-9.2.0.0/gcc_fix_raissrc/bin/../lib/gcc/riscv-nuclei-elf/9.2.0/../../../../riscv-nuclei-elf/lib/rv32imafc/ilp32f\libg_nano.a(lib_a-readr.o)
                0x000000001ff6566e                _read_r
 .text._exit    0x000000001ff656a0       0x2a d:/software/yuyin/qiqiyinqiluntai/riscv-nuclei-elf-gcc-9.2.0.0/gcc_fix_raissrc/bin/../lib/gcc/riscv-nuclei-elf/9.2.0/../../../../riscv-nuclei-elf/lib/rv32imafc/ilp32f\libgloss_nano.a(sys_exit.o)
                0x000000001ff656a0                _exit
 .text._close   0x000000001ff656ca       0x32 d:/software/yuyin/qiqiyinqiluntai/riscv-nuclei-elf-gcc-9.2.0.0/gcc_fix_raissrc/bin/../lib/gcc/riscv-nuclei-elf/9.2.0/../../../../riscv-nuclei-elf/lib/rv32imafc/ilp32f\libgloss_nano.a(sys_close.o)
                0x000000001ff656ca                _close
 .text._fstat   0x000000001ff656fc       0x3e d:/software/yuyin/qiqiyinqiluntai/riscv-nuclei-elf-gcc-9.2.0.0/gcc_fix_raissrc/bin/../lib/gcc/riscv-nuclei-elf/9.2.0/../../../../riscv-nuclei-elf/lib/rv32imafc/ilp32f\libgloss_nano.a(sys_fstat.o)
                0x000000001ff656fc                _fstat
 .text._isatty  0x000000001ff6573a       0x20 d:/software/yuyin/qiqiyinqiluntai/riscv-nuclei-elf-gcc-9.2.0.0/gcc_fix_raissrc/bin/../lib/gcc/riscv-nuclei-elf/9.2.0/../../../../riscv-nuclei-elf/lib/rv32imafc/ilp32f\libgloss_nano.a(sys_isatty.o)
                0x000000001ff6573a                _isatty
 .text._lseek   0x000000001ff6575a       0x2e d:/software/yuyin/qiqiyinqiluntai/riscv-nuclei-elf-gcc-9.2.0.0/gcc_fix_raissrc/bin/../lib/gcc/riscv-nuclei-elf/9.2.0/../../../../riscv-nuclei-elf/lib/rv32imafc/ilp32f\libgloss_nano.a(sys_lseek.o)
                0x000000001ff6575a                _lseek
 .text._read    0x000000001ff65788       0x2e d:/software/yuyin/qiqiyinqiluntai/riscv-nuclei-elf-gcc-9.2.0.0/gcc_fix_raissrc/bin/../lib/gcc/riscv-nuclei-elf/9.2.0/../../../../riscv-nuclei-elf/lib/rv32imafc/ilp32f\libgloss_nano.a(sys_read.o)
                0x000000001ff65788                _read
 .text._write   0x000000001ff657b6       0x2e d:/software/yuyin/qiqiyinqiluntai/riscv-nuclei-elf-gcc-9.2.0.0/gcc_fix_raissrc/bin/../lib/gcc/riscv-nuclei-elf/9.2.0/../../../../riscv-nuclei-elf/lib/rv32imafc/ilp32f\libgloss_nano.a(sys_write.o)
                0x000000001ff657b6                _write
 .text._conv_stat
                0x000000001ff657e4       0x4e d:/software/yuyin/qiqiyinqiluntai/riscv-nuclei-elf-gcc-9.2.0.0/gcc_fix_raissrc/bin/../lib/gcc/riscv-nuclei-elf/9.2.0/../../../../riscv-nuclei-elf/lib/rv32imafc/ilp32f\libgloss_nano.a(sys_conv_stat.o)
                0x000000001ff657e4                _conv_stat
 .text.__errno  0x000000001ff65832        0x6 d:/software/yuyin/qiqiyinqiluntai/riscv-nuclei-elf-gcc-9.2.0.0/gcc_fix_raissrc/bin/../lib/gcc/riscv-nuclei-elf/9.2.0/../../../../riscv-nuclei-elf/lib/rv32imafc/ilp32f\libc_nano.a(lib_a-errno.o)
                0x000000001ff65832                __errno
 .text          0x000000001ff65838      0x158 d:/software/yuyin/qiqiyinqiluntai/riscv-nuclei-elf-gcc-9.2.0.0/gcc_fix_raissrc/bin/../lib/gcc/riscv-nuclei-elf/9.2.0/../../../../riscv-nuclei-elf/lib/rv32imafc/ilp32f\libm.a(lib_a-s_floor.o)
                0x000000001ff65838                floor
 .text          0x000000001ff65990       0xbe d:/software/yuyin/qiqiyinqiluntai/riscv-nuclei-elf-gcc-9.2.0.0/gcc_fix_raissrc/bin/../lib/gcc/riscv-nuclei-elf/9.2.0/../../../../riscv-nuclei-elf/lib/rv32imafc/ilp32f\libm.a(lib_a-w_acos.o)
                0x000000001ff65990                acos
 .text          0x000000001ff65a4e      0x10a d:/software/yuyin/qiqiyinqiluntai/riscv-nuclei-elf-gcc-9.2.0.0/gcc_fix_raissrc/bin/../lib/gcc/riscv-nuclei-elf/9.2.0/../../../../riscv-nuclei-elf/lib/rv32imafc/ilp32f\libm.a(lib_a-w_exp.o)
                0x000000001ff65a4e                exp
 .text          0x000000001ff65b58      0x31e d:/software/yuyin/qiqiyinqiluntai/riscv-nuclei-elf-gcc-9.2.0.0/gcc_fix_raissrc/bin/../lib/gcc/riscv-nuclei-elf/9.2.0/../../../../riscv-nuclei-elf/lib/rv32imafc/ilp32f\libm.a(lib_a-wf_pow.o)
                0x000000001ff65b58                powf
 .text          0x000000001ff65e76      0x112 d:/software/yuyin/qiqiyinqiluntai/riscv-nuclei-elf-gcc-9.2.0.0/gcc_fix_raissrc/bin/../lib/gcc/riscv-nuclei-elf/9.2.0/../../../../riscv-nuclei-elf/lib/rv32imafc/ilp32f\libm.a(lib_a-w_log.o)
                0x000000001ff65e76                log
 .text          0x000000001ff65f88       0xb6 d:/software/yuyin/qiqiyinqiluntai/riscv-nuclei-elf-gcc-9.2.0.0/gcc_fix_raissrc/bin/../lib/gcc/riscv-nuclei-elf/9.2.0/../../../../riscv-nuclei-elf/lib/rv32imafc/ilp32f\libm.a(lib_a-w_sqrt.o)
                0x000000001ff65f88                sqrt
 .text          0x000000001ff6603e      0x4e8 d:/software/yuyin/qiqiyinqiluntai/riscv-nuclei-elf-gcc-9.2.0.0/gcc_fix_raissrc/bin/../lib/gcc/riscv-nuclei-elf/9.2.0/../../../../riscv-nuclei-elf/lib/rv32imafc/ilp32f\libm.a(lib_a-e_acos.o)
                0x000000001ff6603e                __ieee754_acos
 .text          0x000000001ff66526      0x3d4 d:/software/yuyin/qiqiyinqiluntai/riscv-nuclei-elf-gcc-9.2.0.0/gcc_fix_raissrc/bin/../lib/gcc/riscv-nuclei-elf/9.2.0/../../../../riscv-nuclei-elf/lib/rv32imafc/ilp32f\libm.a(lib_a-e_exp.o)
                0x000000001ff66526                __ieee754_exp
 .text          0x000000001ff668fa      0x652 d:/software/yuyin/qiqiyinqiluntai/riscv-nuclei-elf-gcc-9.2.0.0/gcc_fix_raissrc/bin/../lib/gcc/riscv-nuclei-elf/9.2.0/../../../../riscv-nuclei-elf/lib/rv32imafc/ilp32f\libm.a(lib_a-ef_pow.o)
                0x000000001ff668fa                __ieee754_powf
 .text          0x000000001ff66f4c       0xc6 d:/software/yuyin/qiqiyinqiluntai/riscv-nuclei-elf-gcc-9.2.0.0/gcc_fix_raissrc/bin/../lib/gcc/riscv-nuclei-elf/9.2.0/../../../../riscv-nuclei-elf/lib/rv32imafc/ilp32f\libm.a(lib_a-ef_sqrt.o)
                0x000000001ff66f4c                __ieee754_sqrtf
 .text          0x000000001ff67012      0x41e d:/software/yuyin/qiqiyinqiluntai/riscv-nuclei-elf-gcc-9.2.0.0/gcc_fix_raissrc/bin/../lib/gcc/riscv-nuclei-elf/9.2.0/../../../../riscv-nuclei-elf/lib/rv32imafc/ilp32f\libm.a(lib_a-e_log.o)
                0x000000001ff67012                __ieee754_log
 .text          0x000000001ff67430      0x1c4 d:/software/yuyin/qiqiyinqiluntai/riscv-nuclei-elf-gcc-9.2.0.0/gcc_fix_raissrc/bin/../lib/gcc/riscv-nuclei-elf/9.2.0/../../../../riscv-nuclei-elf/lib/rv32imafc/ilp32f\libm.a(lib_a-e_sqrt.o)
                0x000000001ff67430                __ieee754_sqrt
 .text          0x000000001ff675f4        0x6 d:/software/yuyin/qiqiyinqiluntai/riscv-nuclei-elf-gcc-9.2.0.0/gcc_fix_raissrc/bin/../lib/gcc/riscv-nuclei-elf/9.2.0/../../../../riscv-nuclei-elf/lib/rv32imafc/ilp32f\libm.a(lib_a-s_fabs.o)
                0x000000001ff675f4                fabs
 .text          0x000000001ff675fa       0x12 d:/software/yuyin/qiqiyinqiluntai/riscv-nuclei-elf-gcc-9.2.0.0/gcc_fix_raissrc/bin/../lib/gcc/riscv-nuclei-elf/9.2.0/../../../../riscv-nuclei-elf/lib/rv32imafc/ilp32f\libm.a(lib_a-sf_finite.o)
                0x000000001ff675fa                finitef
 .text          0x000000001ff6760c        0xe d:/software/yuyin/qiqiyinqiluntai/riscv-nuclei-elf-gcc-9.2.0.0/gcc_fix_raissrc/bin/../lib/gcc/riscv-nuclei-elf/9.2.0/../../../../riscv-nuclei-elf/lib/rv32imafc/ilp32f\libm.a(lib_a-s_finite.o)
                0x000000001ff6760c                finite
 .text          0x000000001ff6761a        0xa d:/software/yuyin/qiqiyinqiluntai/riscv-nuclei-elf-gcc-9.2.0.0/gcc_fix_raissrc/bin/../lib/gcc/riscv-nuclei-elf/9.2.0/../../../../riscv-nuclei-elf/lib/rv32imafc/ilp32f\libm.a(lib_a-sf_nan.o)
                0x000000001ff6761a                nanf
 .text          0x000000001ff67624       0xd2 d:/software/yuyin/qiqiyinqiluntai/riscv-nuclei-elf-gcc-9.2.0.0/gcc_fix_raissrc/bin/../lib/gcc/riscv-nuclei-elf/9.2.0/../../../../riscv-nuclei-elf/lib/rv32imafc/ilp32f\libm.a(lib_a-sf_rint.o)
                0x000000001ff67624                rintf
 .text          0x000000001ff676f6       0xfe d:/software/yuyin/qiqiyinqiluntai/riscv-nuclei-elf-gcc-9.2.0.0/gcc_fix_raissrc/bin/../lib/gcc/riscv-nuclei-elf/9.2.0/../../../../riscv-nuclei-elf/lib/rv32imafc/ilp32f\libm.a(lib_a-sf_scalbn.o)
                0x000000001ff676f6                scalbnf
 .text          0x000000001ff677f4        0x4 d:/software/yuyin/qiqiyinqiluntai/riscv-nuclei-elf-gcc-9.2.0.0/gcc_fix_raissrc/bin/../lib/gcc/riscv-nuclei-elf/9.2.0/../../../../riscv-nuclei-elf/lib/rv32imafc/ilp32f\libm.a(lib_a-s_matherr.o)
                0x000000001ff677f4                matherr
 .text          0x000000001ff677f8        0xe d:/software/yuyin/qiqiyinqiluntai/riscv-nuclei-elf-gcc-9.2.0.0/gcc_fix_raissrc/bin/../lib/gcc/riscv-nuclei-elf/9.2.0/../../../../riscv-nuclei-elf/lib/rv32imafc/ilp32f\libm.a(lib_a-s_nan.o)
                0x000000001ff677f8                nan
 .text          0x000000001ff67806       0x1c d:/software/yuyin/qiqiyinqiluntai/riscv-nuclei-elf-gcc-9.2.0.0/gcc_fix_raissrc/bin/../lib/gcc/riscv-nuclei-elf/9.2.0/../../../../riscv-nuclei-elf/lib/rv32imafc/ilp32f\libm.a(lib_a-sf_copysign.o)
                0x000000001ff67806                copysignf
 *(.gnu.linkonce.t.*)

.fini
 *(SORT_NONE(.fini))
                0x000000001ff67824                . = ALIGN (0x4)
                [!provide]                        PROVIDE (__etext = .)
                [!provide]                        PROVIDE (_etext = .)
                [!provide]                        PROVIDE (etext = .)
                0x000000001ff67824                PROVIDE (_eilm = .)

.preinit_array  0x000000001ff67822        0x0
                0x000000001ff67822                PROVIDE (__preinit_array_start = .)
 *(.preinit_array)
                0x000000001ff67822                PROVIDE (__preinit_array_end = .)

.init_array     0x000000001ff67822        0x0
                0x000000001ff67822                PROVIDE (__init_array_start = .)
 *(SORT_BY_INIT_PRIORITY(.init_array.*) SORT_BY_INIT_PRIORITY(.ctors.*))
 *(.init_array EXCLUDE_FILE(*crtend?.o *crtend.o *crtbegin?.o *crtbegin.o) .ctors)
                0x000000001ff67822                PROVIDE (__init_array_end = .)

.fini_array     0x000000001ff67822        0x0
                0x000000001ff67822                PROVIDE (__fini_array_start = .)
 *(SORT_BY_INIT_PRIORITY(.fini_array.*) SORT_BY_INIT_PRIORITY(.dtors.*))
 *(.fini_array EXCLUDE_FILE(*crtend?.o *crtend.o *crtbegin?.o *crtbegin.o) .dtors)
                0x000000001ff67822                PROVIDE (__fini_array_end = .)

.ctors
 *crtbegin.o(.ctors)
 *crtbegin?.o(.ctors)
 *(EXCLUDE_FILE(*crtend?.o *crtend.o) .ctors)
 *(SORT_BY_NAME(.ctors.*))
 *(.ctors)

.dtors
 *crtbegin.o(.dtors)
 *crtbegin?.o(.dtors)
 *(EXCLUDE_FILE(*crtend?.o *crtend.o) .dtors)
 *(SORT_BY_NAME(.dtors.*))
 *(.dtors)

.ro_data        0x000000001ff67828     0x5008
 *(.rdata)
 *(.rodata .rodata.*)
 .rodata.speex_warning_int.lto_priv.0.str1.4
                0x000000001ff67828       0x10 C:\TMP\nn_denoise_rtc_sample.elf.UaA6UP.ltrans0.ltrans.o
 .rodata.nb_mode_query.str1.4
                0x000000001ff67838       0x20 C:\TMP\nn_denoise_rtc_sample.elf.UaA6UP.ltrans0.ltrans.o
 .rodata.wb_mode_query.str1.4
                0x000000001ff67858       0x20 C:\TMP\nn_denoise_rtc_sample.elf.UaA6UP.ltrans0.ltrans.o
 .rodata._speex_fatal.constprop.0.str1.4
                0x000000001ff67878       0x5f C:\TMP\nn_denoise_rtc_sample.elf.UaA6UP.ltrans0.ltrans.o
 *fill*         0x000000001ff678d7        0x1 
 .rodata.nb_decoder_ctl.str1.4
                0x000000001ff678d8       0x19 C:\TMP\nn_denoise_rtc_sample.elf.UaA6UP.ltrans0.ltrans.o
 *fill*         0x000000001ff678f1        0x3 
 .rodata.nb_decoder_ctl
                0x000000001ff678f4       0xdc C:\TMP\nn_denoise_rtc_sample.elf.UaA6UP.ltrans0.ltrans.o
 .rodata.nb_encode.str1.4
                0x000000001ff679d0       0x54 C:\TMP\nn_denoise_rtc_sample.elf.UaA6UP.ltrans0.ltrans.o
 .rodata.dpmu_set_io_reuse
                0x000000001ff67a24       0x60 C:\TMP\nn_denoise_rtc_sample.elf.UaA6UP.ltrans0.ltrans.o
 .rodata.sb_decoder_ctl
                0x000000001ff67a84       0xdc C:\TMP\nn_denoise_rtc_sample.elf.UaA6UP.ltrans0.ltrans.o
 .rodata.sb_encoder_ctl
                0x000000001ff67b60       0xc8 C:\TMP\nn_denoise_rtc_sample.elf.UaA6UP.ltrans0.ltrans.o
 .rodata.nb_encoder_ctl
                0x000000001ff67c28       0xc8 C:\TMP\nn_denoise_rtc_sample.elf.UaA6UP.ltrans0.ltrans.o
 .rodata.speex_notify.lto_priv.0.lto_priv.0.str1.4
                0x000000001ff67cf0       0x12 C:\TMP\nn_denoise_rtc_sample.elf.UaA6UP.ltrans0.ltrans.o
 *fill*         0x000000001ff67d02        0x2 
 .rodata.sb_decode.str1.4
                0x000000001ff67d04       0x33 C:\TMP\nn_denoise_rtc_sample.elf.UaA6UP.ltrans0.ltrans.o
 *fill*         0x000000001ff67d37        0x1 
 .rodata.nb_decode.str1.4
                0x000000001ff67d38       0x96 C:\TMP\nn_denoise_rtc_sample.elf.UaA6UP.ltrans0.ltrans.o
 *fill*         0x000000001ff67dce        0x2 
 .rodata.prompt_play_by_cmd_string.constprop.0.str1.4
                0x000000001ff67dd0       0x10 C:\TMP\nn_denoise_rtc_sample.elf.UaA6UP.ltrans0.ltrans.o
 .rodata.IISDMA_ChannelIntENConfig.constprop.0.str1.4
                0x000000001ff67de0       0x1f C:\TMP\nn_denoise_rtc_sample.elf.UaA6UP.ltrans0.ltrans.o
 *fill*         0x000000001ff67dff        0x1 
 .rodata.cm_get_pcm_buffer.constprop.0.str1.4
                0x000000001ff67e00       0x6f C:\TMP\nn_denoise_rtc_sample.elf.UaA6UP.ltrans0.ltrans.o
 *fill*         0x000000001ff67e6f        0x1 
 .rodata.iis_audio_choose.constprop.0.str1.4
                0x000000001ff67e70       0x20 C:\TMP\nn_denoise_rtc_sample.elf.UaA6UP.ltrans0.ltrans.o
 .rodata.iis_audio_choose.constprop.0
                0x000000001ff67e90       0x14 C:\TMP\nn_denoise_rtc_sample.elf.UaA6UP.ltrans0.ltrans.o
 .rodata.rc_callee_alg_aes_type_tip.str1.4
                0x000000001ff67ea4       0x64 C:\TMP\nn_denoise_rtc_sample.elf.UaA6UP.ltrans0.ltrans.o
 .rodata.rc_callee_npu_ifft_data_handle_in_host.str1.4
                0x000000001ff67f08       0x1a C:\TMP\nn_denoise_rtc_sample.elf.UaA6UP.ltrans0.ltrans.o
 *fill*         0x000000001ff67f22        0x2 
 .rodata.rc_callee_free_in_host.str1.4
                0x000000001ff67f24       0x12 C:\TMP\nn_denoise_rtc_sample.elf.UaA6UP.ltrans0.ltrans.o
                                         0x16 (size before relaxing)
 *fill*         0x000000001ff67f36        0x2 
 .rodata.mailbox_send_msg.str1.4
                0x000000001ff67f38       0x27 C:\TMP\nn_denoise_rtc_sample.elf.UaA6UP.ltrans0.ltrans.o
 *fill*         0x000000001ff67f5f        0x1 
 .rodata.nuclear_com_send.constprop.0.str1.4
                0x000000001ff67f60        0xe C:\TMP\nn_denoise_rtc_sample.elf.UaA6UP.ltrans0.ltrans.o
 *fill*         0x000000001ff67f6e        0x2 
 .rodata.nuclear_com_irq_handler.str1.4
                0x000000001ff67f70       0x20 C:\TMP\nn_denoise_rtc_sample.elf.UaA6UP.ltrans0.ltrans.o
 .rodata.flash_manage_req_wait_op_done_sem.str1.4
                0x000000001ff67f90        0xd C:\TMP\nn_denoise_rtc_sample.elf.UaA6UP.ltrans0.ltrans.o
 *fill*         0x000000001ff67f9d        0x3 
 .rodata.post_erase_flash.constprop.0.str1.4
                0x000000001ff67fa0       0x2b C:\TMP\nn_denoise_rtc_sample.elf.UaA6UP.ltrans0.ltrans.o
 *fill*         0x000000001ff67fcb        0x1 
 .rodata.decoder_rpmsg_serve_cb.str1.4
                0x000000001ff67fcc        0xe C:\TMP\nn_denoise_rtc_sample.elf.UaA6UP.ltrans0.ltrans.o
 *fill*         0x000000001ff67fda        0x2 
 .rodata.decoder_rpmsg_serve_cb
                0x000000001ff67fdc       0x50 C:\TMP\nn_denoise_rtc_sample.elf.UaA6UP.ltrans0.ltrans.o
 .rodata.asr_top_outside_serve_cb.str1.4
                0x000000001ff6802c        0xd C:\TMP\nn_denoise_rtc_sample.elf.UaA6UP.ltrans0.ltrans.o
 *fill*         0x000000001ff68039        0x3 
 .rodata.sb_encoder_destroy.str1.4
                0x000000001ff6803c       0x35 C:\TMP\nn_denoise_rtc_sample.elf.UaA6UP.ltrans0.ltrans.o
 *fill*         0x000000001ff68071        0x3 
 .rodata.sb_encoder_init.str1.4
                0x000000001ff68074       0x13 C:\TMP\nn_denoise_rtc_sample.elf.UaA6UP.ltrans0.ltrans.o
 *fill*         0x000000001ff68087        0x1 
 .rodata.nb_encoder_destroy.str1.4
                0x000000001ff68088       0x19 C:\TMP\nn_denoise_rtc_sample.elf.UaA6UP.ltrans0.ltrans.o
 *fill*         0x000000001ff680a1        0x3 
 .rodata.nb_encoder_init.str1.4
                0x000000001ff680a4       0x13 C:\TMP\nn_denoise_rtc_sample.elf.UaA6UP.ltrans0.ltrans.o
 *fill*         0x000000001ff680b7        0x1 
 .rodata        0x000000001ff680b8       0x98 C:\TMP\nn_denoise_rtc_sample.elf.UaA6UP.ltrans0.ltrans.o
 .rodata.__FUNCTION__.5548
                0x000000001ff68150       0x17 C:\TMP\nn_denoise_rtc_sample.elf.UaA6UP.ltrans0.ltrans.o
 *fill*         0x000000001ff68167        0x1 
 .rodata.__FUNCTION__.5769
                0x000000001ff68168       0x11 C:\TMP\nn_denoise_rtc_sample.elf.UaA6UP.ltrans0.ltrans.o
 *fill*         0x000000001ff68179        0x3 
 .rodata.attenuation
                0x000000001ff6817c       0x28 C:\TMP\nn_denoise_rtc_sample.elf.UaA6UP.ltrans0.ltrans.o
 .rodata.cdbk_nb
                0x000000001ff681a4      0x280 C:\TMP\nn_denoise_rtc_sample.elf.UaA6UP.ltrans0.ltrans.o
 .rodata.cdbk_nb_high1
                0x000000001ff68424      0x140 C:\TMP\nn_denoise_rtc_sample.elf.UaA6UP.ltrans0.ltrans.o
 .rodata.cdbk_nb_high2
                0x000000001ff68564      0x140 C:\TMP\nn_denoise_rtc_sample.elf.UaA6UP.ltrans0.ltrans.o
 .rodata.cdbk_nb_low1
                0x000000001ff686a4      0x140 C:\TMP\nn_denoise_rtc_sample.elf.UaA6UP.ltrans0.ltrans.o
 .rodata.cdbk_nb_low2
                0x000000001ff687e4      0x140 C:\TMP\nn_denoise_rtc_sample.elf.UaA6UP.ltrans0.ltrans.o
 .rodata.exc_gain_quant_scal3
                0x000000001ff68924       0x20 C:\TMP\nn_denoise_rtc_sample.elf.UaA6UP.ltrans0.ltrans.o
 .rodata.exc_gain_quant_scal3_bound
                0x000000001ff68944       0x1c C:\TMP\nn_denoise_rtc_sample.elf.UaA6UP.ltrans0.ltrans.o
 .rodata.fold_quant_bound
                0x000000001ff68960       0x80 C:\TMP\nn_denoise_rtc_sample.elf.UaA6UP.ltrans0.ltrans.o
 .rodata.gc_quant_bound
                0x000000001ff689e0       0x40 C:\TMP\nn_denoise_rtc_sample.elf.UaA6UP.ltrans0.ltrans.o
 .rodata.h0     0x000000001ff68a20      0x100 C:\TMP\nn_denoise_rtc_sample.elf.UaA6UP.ltrans0.ltrans.o
 .rodata.high_lsp_cdbk
                0x000000001ff68b20      0x200 C:\TMP\nn_denoise_rtc_sample.elf.UaA6UP.ltrans0.ltrans.o
 .rodata.high_lsp_cdbk2
                0x000000001ff68d20      0x200 C:\TMP\nn_denoise_rtc_sample.elf.UaA6UP.ltrans0.ltrans.o
 .rodata.lag_window
                0x000000001ff68f20       0x2c C:\TMP\nn_denoise_rtc_sample.elf.UaA6UP.ltrans0.ltrans.o
 .rodata.lpc_window
                0x000000001ff68f4c      0x320 C:\TMP\nn_denoise_rtc_sample.elf.UaA6UP.ltrans0.ltrans.o
 .rodata.shift_filt
                0x000000001ff6926c       0x54 C:\TMP\nn_denoise_rtc_sample.elf.UaA6UP.ltrans0.ltrans.o
 .rodata.wb_skip_table
                0x000000001ff692c0       0x20 C:\TMP\nn_denoise_rtc_sample.elf.UaA6UP.ltrans0.ltrans.o
 .rodata.speex_warning.str1.4
                0x000000001ff692e0        0xd C:\TMP\nn_denoise_rtc_sample.elf.UaA6UP.ltrans1.ltrans.o
 *fill*         0x000000001ff692ed        0x3 
 .rodata.speex_bits_pack.str1.4
                0x000000001ff692f0       0x71 C:\TMP\nn_denoise_rtc_sample.elf.UaA6UP.ltrans1.ltrans.o
 *fill*         0x000000001ff69361        0x3 
 .rodata.UART2_IRQHandler.str1.4
                0x000000001ff69364       0x1a C:\TMP\nn_denoise_rtc_sample.elf.UaA6UP.ltrans1.ltrans.o
 *fill*         0x000000001ff6937e        0x2 
 .rodata.IIC0_IRQHandler.str1.4
                0x000000001ff69380       0x1a C:\TMP\nn_denoise_rtc_sample.elf.UaA6UP.ltrans1.ltrans.o
 *fill*         0x000000001ff6939a        0x2 
 .rodata.iis_wait_load_ctrl.str1.4
                0x000000001ff6939c       0x18 C:\TMP\nn_denoise_rtc_sample.elf.UaA6UP.ltrans1.ltrans.o
 .rodata.IISxDMA_TADDR1.part.0.str1.4
                0x000000001ff693b4       0x1f C:\TMP\nn_denoise_rtc_sample.elf.UaA6UP.ltrans1.ltrans.o
 .rodata.IISDMA_ADDRRollBackINT.part.0.str1.4
                0x000000001ff693b4       0x1d C:\TMP\nn_denoise_rtc_sample.elf.UaA6UP.ltrans1.ltrans.o
 *fill*         0x000000001ff693d1        0x3 
 .rodata.cm_write_codec.str1.4
                0x000000001ff693d4       0x12 C:\TMP\nn_denoise_rtc_sample.elf.UaA6UP.ltrans1.ltrans.o
                                         0x72 (size before relaxing)
 .rodata.get_iis_dma_channel.str1.4
                0x000000001ff693e6       0x16 C:\TMP\nn_denoise_rtc_sample.elf.UaA6UP.ltrans1.ltrans.o
 *fill*         0x000000001ff693e6        0x2 
 .rodata.cm_reg_codec.part.0.str1.4
                0x000000001ff693e8       0x11 C:\TMP\nn_denoise_rtc_sample.elf.UaA6UP.ltrans1.ltrans.o
 *fill*         0x000000001ff693f9        0x3 
 .rodata.cinv_port_mutex_give.str1.4
                0x000000001ff693fc        0xb C:\TMP\nn_denoise_rtc_sample.elf.UaA6UP.ltrans1.ltrans.o
 *fill*         0x000000001ff69407        0x1 
 .rodata.cm_input_interrupt_handler.str1.4
                0x000000001ff69408       0x19 C:\TMP\nn_denoise_rtc_sample.elf.UaA6UP.ltrans1.ltrans.o
 *fill*         0x000000001ff69421        0x3 
 .rodata.realloc_buffer.str1.4
                0x000000001ff69424       0x1c C:\TMP\nn_denoise_rtc_sample.elf.UaA6UP.ltrans1.ltrans.o
 .rodata.get_file_addr.str1.4
                0x000000001ff69440       0x1f C:\TMP\nn_denoise_rtc_sample.elf.UaA6UP.ltrans1.ltrans.o
 *fill*         0x000000001ff6945f        0x1 
 .rodata.get_current_model_addr.str1.4
                0x000000001ff69460       0x15 C:\TMP\nn_denoise_rtc_sample.elf.UaA6UP.ltrans1.ltrans.o
 *fill*         0x000000001ff69475        0x3 
 .rodata.flash_control_inner_serve_cb.str1.4
                0x000000001ff69478       0x1d C:\TMP\nn_denoise_rtc_sample.elf.UaA6UP.ltrans1.ltrans.o
 *fill*         0x000000001ff69495        0x3 
 .rodata.speex_record_data_task.str1.4
                0x000000001ff69498       0x51 C:\TMP\nn_denoise_rtc_sample.elf.UaA6UP.ltrans1.ltrans.o
 *fill*         0x000000001ff694e9        0x3 
 .rodata.prvTimerTask
                0x000000001ff694ec       0x28 C:\TMP\nn_denoise_rtc_sample.elf.UaA6UP.ltrans1.ltrans.o
 .rodata.speex_play_data_task.str1.4
                0x000000001ff69514       0x23 C:\TMP\nn_denoise_rtc_sample.elf.UaA6UP.ltrans1.ltrans.o
 *fill*         0x000000001ff69537        0x1 
 .rodata.audio_pre_rslt_write_data.str1.4
                0x000000001ff69538      0x121 C:\TMP\nn_denoise_rtc_sample.elf.UaA6UP.ltrans1.ltrans.o
 *fill*         0x000000001ff69659        0x3 
 .rodata.ifft_data_handle_task_rtc.str1.4
                0x000000001ff6965c       0x20 C:\TMP\nn_denoise_rtc_sample.elf.UaA6UP.ltrans1.ltrans.o
 .rodata.codec_manage_inner_serve_cb
                0x000000001ff6967c       0x14 C:\TMP\nn_denoise_rtc_sample.elf.UaA6UP.ltrans1.ltrans.o
 .rodata.uart_eq_param_cfg_task.str1.4
                0x000000001ff69690      0x2e7 C:\TMP\nn_denoise_rtc_sample.elf.UaA6UP.ltrans1.ltrans.o
                                        0x2eb (size before relaxing)
 *fill*         0x000000001ff69977        0x1 
 .rodata.handle_trap.str1.4
                0x000000001ff69978       0x5d C:\TMP\nn_denoise_rtc_sample.elf.UaA6UP.ltrans1.ltrans.o
 *fill*         0x000000001ff699d5        0x3 
 .rodata.speex_recv_data_task.str1.4
                0x000000001ff699d8       0xf6 C:\TMP\nn_denoise_rtc_sample.elf.UaA6UP.ltrans1.ltrans.o
 *fill*         0x000000001ff69ace        0x2 
 .rodata.main.str1.4
                0x000000001ff69ad0       0xcc C:\TMP\nn_denoise_rtc_sample.elf.UaA6UP.ltrans1.ltrans.o
 .rodata.GPIO_IRQ_Default_proc.str1.4
                0x000000001ff69b9c       0x26 C:\TMP\nn_denoise_rtc_sample.elf.UaA6UP.ltrans1.ltrans.o
 *fill*         0x000000001ff69bc2        0x2 
 .rodata.task_init.str1.4
                0x000000001ff69bc4      0x5eb C:\TMP\nn_denoise_rtc_sample.elf.UaA6UP.ltrans1.ltrans.o
                                        0x62b (size before relaxing)
 *fill*         0x000000001ff6a1af        0x1 
 .rodata.audio_pre_rslt_out_play_card_init.str1.4
                0x000000001ff6a1b0       0x60 C:\TMP\nn_denoise_rtc_sample.elf.UaA6UP.ltrans1.ltrans.o
 .rodata.audio_in_manage_inner_task_rtc.str1.4
                0x000000001ff6a210       0x15 C:\TMP\nn_denoise_rtc_sample.elf.UaA6UP.ltrans1.ltrans.o
 *fill*         0x000000001ff6a225        0x3 
 .rodata.str1.4
                0x000000001ff6a228        0xb C:\TMP\nn_denoise_rtc_sample.elf.UaA6UP.ltrans1.ltrans.o
 *fill*         0x000000001ff6a233        0x1 
 .rodata        0x000000001ff6a234       0xf4 C:\TMP\nn_denoise_rtc_sample.elf.UaA6UP.ltrans1.ltrans.o
 .rodata.CRC_table
                0x000000001ff6a328      0x400 C:\TMP\nn_denoise_rtc_sample.elf.UaA6UP.ltrans1.ltrans.o
 .rodata.__FUNCTION__.3222
                0x000000001ff6a728       0x13 C:\TMP\nn_denoise_rtc_sample.elf.UaA6UP.ltrans1.ltrans.o
 *fill*         0x000000001ff6a73b        0x1 
 .rodata.__FUNCTION__.5447
                0x000000001ff6a73c        0xa C:\TMP\nn_denoise_rtc_sample.elf.UaA6UP.ltrans1.ltrans.o
 *fill*         0x000000001ff6a746        0x2 
 .rodata.__FUNCTION__.6069
                0x000000001ff6a748       0x14 C:\TMP\nn_denoise_rtc_sample.elf.UaA6UP.ltrans1.ltrans.o
 .rodata.__FUNCTION__.6071
                0x000000001ff6a75c        0xf C:\TMP\nn_denoise_rtc_sample.elf.UaA6UP.ltrans1.ltrans.o
 *fill*         0x000000001ff6a76b        0x1 
 .rodata.__FUNCTION__.6113
                0x000000001ff6a76c       0x1e C:\TMP\nn_denoise_rtc_sample.elf.UaA6UP.ltrans1.ltrans.o
 *fill*         0x000000001ff6a78a        0x2 
 .rodata.__FUNCTION__.6120
                0x000000001ff6a78c       0x25 C:\TMP\nn_denoise_rtc_sample.elf.UaA6UP.ltrans1.ltrans.o
 *fill*         0x000000001ff6a7b1        0x3 
 .rodata.__FUNCTION__.6183
                0x000000001ff6a7b4       0x10 C:\TMP\nn_denoise_rtc_sample.elf.UaA6UP.ltrans1.ltrans.o
 .rodata.__FUNCTION__.6668
                0x000000001ff6a7c4       0x22 C:\TMP\nn_denoise_rtc_sample.elf.UaA6UP.ltrans1.ltrans.o
 *fill*         0x000000001ff6a7e6        0x2 
 .rodata.__FUNCTION__.7597
                0x000000001ff6a7e8       0x1f C:\TMP\nn_denoise_rtc_sample.elf.UaA6UP.ltrans1.ltrans.o
 *fill*         0x000000001ff6a807        0x1 
 .rodata.__func__.4151
                0x000000001ff6a808       0x16 C:\TMP\nn_denoise_rtc_sample.elf.UaA6UP.ltrans1.ltrans.o
 *fill*         0x000000001ff6a81e        0x2 
 .rodata.__func__.4155
                0x000000001ff6a820       0x15 C:\TMP\nn_denoise_rtc_sample.elf.UaA6UP.ltrans1.ltrans.o
 *fill*         0x000000001ff6a835        0x3 
 .rodata.__func__.4159
                0x000000001ff6a838       0x15 C:\TMP\nn_denoise_rtc_sample.elf.UaA6UP.ltrans1.ltrans.o
 *fill*         0x000000001ff6a84d        0x3 
 .rodata.aec_config
                0x000000001ff6a850       0x54 C:\TMP\nn_denoise_rtc_sample.elf.UaA6UP.ltrans1.ltrans.o
 .rodata.exc_10_16_table
                0x000000001ff6a8a4       0xa0 C:\TMP\nn_denoise_rtc_sample.elf.UaA6UP.ltrans1.ltrans.o
 .rodata.exc_10_32_table
                0x000000001ff6a944      0x140 C:\TMP\nn_denoise_rtc_sample.elf.UaA6UP.ltrans1.ltrans.o
 .rodata.exc_20_32_table
                0x000000001ff6aa84      0x280 C:\TMP\nn_denoise_rtc_sample.elf.UaA6UP.ltrans1.ltrans.o
 .rodata.exc_5_256_table
                0x000000001ff6ad04      0x500 C:\TMP\nn_denoise_rtc_sample.elf.UaA6UP.ltrans1.ltrans.o
 .rodata.exc_5_64_table
                0x000000001ff6b204      0x140 C:\TMP\nn_denoise_rtc_sample.elf.UaA6UP.ltrans1.ltrans.o
 .rodata.exc_8_128_table
                0x000000001ff6b344      0x400 C:\TMP\nn_denoise_rtc_sample.elf.UaA6UP.ltrans1.ltrans.o
 .rodata.gain_cdbk_lbr
                0x000000001ff6b744       0x80 C:\TMP\nn_denoise_rtc_sample.elf.UaA6UP.ltrans1.ltrans.o
 .rodata.gain_cdbk_nb
                0x000000001ff6b7c4      0x200 C:\TMP\nn_denoise_rtc_sample.elf.UaA6UP.ltrans1.ltrans.o
 .rodata.hexc_10_32_table
                0x000000001ff6b9c4      0x140 C:\TMP\nn_denoise_rtc_sample.elf.UaA6UP.ltrans1.ltrans.o
 .rodata.hexc_table
                0x000000001ff6bb04      0x400 C:\TMP\nn_denoise_rtc_sample.elf.UaA6UP.ltrans1.ltrans.o
 .rodata.host_mic_hw_info
                0x000000001ff6bf04       0x54 C:\TMP\nn_denoise_rtc_sample.elf.UaA6UP.ltrans1.ltrans.o
 .rodata.ltp_params_lbr
                0x000000001ff6bf58        0xc C:\TMP\nn_denoise_rtc_sample.elf.UaA6UP.ltrans1.ltrans.o
 .rodata.ltp_params_med
                0x000000001ff6bf64        0xc C:\TMP\nn_denoise_rtc_sample.elf.UaA6UP.ltrans1.ltrans.o
 .rodata.ltp_params_nb
                0x000000001ff6bf70        0xc C:\TMP\nn_denoise_rtc_sample.elf.UaA6UP.ltrans1.ltrans.o
 .rodata.ltp_params_vlbr
                0x000000001ff6bf7c        0xc C:\TMP\nn_denoise_rtc_sample.elf.UaA6UP.ltrans1.ltrans.o
 .rodata.nb_mode
                0x000000001ff6bf88       0x90 C:\TMP\nn_denoise_rtc_sample.elf.UaA6UP.ltrans1.ltrans.o
 .rodata.nb_submode1
                0x000000001ff6c018       0x38 C:\TMP\nn_denoise_rtc_sample.elf.UaA6UP.ltrans1.ltrans.o
 .rodata.nb_submode2
                0x000000001ff6c050       0x38 C:\TMP\nn_denoise_rtc_sample.elf.UaA6UP.ltrans1.ltrans.o
 .rodata.nb_submode3
                0x000000001ff6c088       0x38 C:\TMP\nn_denoise_rtc_sample.elf.UaA6UP.ltrans1.ltrans.o
 .rodata.nb_submode4
                0x000000001ff6c0c0       0x38 C:\TMP\nn_denoise_rtc_sample.elf.UaA6UP.ltrans1.ltrans.o
 .rodata.nb_submode5
                0x000000001ff6c0f8       0x38 C:\TMP\nn_denoise_rtc_sample.elf.UaA6UP.ltrans1.ltrans.o
 .rodata.nb_submode6
                0x000000001ff6c130       0x38 C:\TMP\nn_denoise_rtc_sample.elf.UaA6UP.ltrans1.ltrans.o
 .rodata.nb_submode7
                0x000000001ff6c168       0x38 C:\TMP\nn_denoise_rtc_sample.elf.UaA6UP.ltrans1.ltrans.o
 .rodata.nb_submode8
                0x000000001ff6c1a0       0x38 C:\TMP\nn_denoise_rtc_sample.elf.UaA6UP.ltrans1.ltrans.o
 .rodata.over_sample_table.6100
                0x000000001ff6c1d8       0x10 C:\TMP\nn_denoise_rtc_sample.elf.UaA6UP.ltrans1.ltrans.o
 .rodata.sb_wb_mode
                0x000000001ff6c1e8       0xa0 C:\TMP\nn_denoise_rtc_sample.elf.UaA6UP.ltrans1.ltrans.o
 .rodata.speex_nb_mode
                0x000000001ff6c288       0x34 C:\TMP\nn_denoise_rtc_sample.elf.UaA6UP.ltrans1.ltrans.o
 .rodata.split_cb_high
                0x000000001ff6c2bc       0x14 C:\TMP\nn_denoise_rtc_sample.elf.UaA6UP.ltrans1.ltrans.o
 .rodata.split_cb_high_lbr
                0x000000001ff6c2d0       0x14 C:\TMP\nn_denoise_rtc_sample.elf.UaA6UP.ltrans1.ltrans.o
 .rodata.split_cb_nb
                0x000000001ff6c2e4       0x14 C:\TMP\nn_denoise_rtc_sample.elf.UaA6UP.ltrans1.ltrans.o
 .rodata.split_cb_nb_lbr
                0x000000001ff6c2f8       0x14 C:\TMP\nn_denoise_rtc_sample.elf.UaA6UP.ltrans1.ltrans.o
 .rodata.split_cb_nb_med
                0x000000001ff6c30c       0x14 C:\TMP\nn_denoise_rtc_sample.elf.UaA6UP.ltrans1.ltrans.o
 .rodata.split_cb_nb_ulbr
                0x000000001ff6c320       0x14 C:\TMP\nn_denoise_rtc_sample.elf.UaA6UP.ltrans1.ltrans.o
 .rodata.split_cb_nb_vlbr
                0x000000001ff6c334       0x14 C:\TMP\nn_denoise_rtc_sample.elf.UaA6UP.ltrans1.ltrans.o
 .rodata.split_cb_sb
                0x000000001ff6c348       0x14 C:\TMP\nn_denoise_rtc_sample.elf.UaA6UP.ltrans1.ltrans.o
 .rodata.stft_istft_config
                0x000000001ff6c35c       0x20 C:\TMP\nn_denoise_rtc_sample.elf.UaA6UP.ltrans1.ltrans.o
 .rodata.table_crc8
                0x000000001ff6c37c      0x100 C:\TMP\nn_denoise_rtc_sample.elf.UaA6UP.ltrans1.ltrans.o
 .rodata.wb_submode1
                0x000000001ff6c47c       0x38 C:\TMP\nn_denoise_rtc_sample.elf.UaA6UP.ltrans1.ltrans.o
 .rodata.wb_submode2
                0x000000001ff6c4b4       0x38 C:\TMP\nn_denoise_rtc_sample.elf.UaA6UP.ltrans1.ltrans.o
 .rodata.wb_submode3
                0x000000001ff6c4ec       0x38 C:\TMP\nn_denoise_rtc_sample.elf.UaA6UP.ltrans1.ltrans.o
 .rodata.wb_submode4
                0x000000001ff6c524       0x38 C:\TMP\nn_denoise_rtc_sample.elf.UaA6UP.ltrans1.ltrans.o
 .rodata.sbrk.str1.4
                0x000000001ff6c55c       0x18 ../../../libs\libnewlib_port.a(sbrk.o)
 .rodata        0x000000001ff6c574       0x3c d:/software/yuyin/qiqiyinqiluntai/riscv-nuclei-elf-gcc-9.2.0.0/gcc_fix_raissrc/bin/../lib/gcc/riscv-nuclei-elf/9.2.0/rv32imafc/ilp32f\libgcc.a(divdf3.o)
 .rodata        0x000000001ff6c5b0       0x3c d:/software/yuyin/qiqiyinqiluntai/riscv-nuclei-elf-gcc-9.2.0.0/gcc_fix_raissrc/bin/../lib/gcc/riscv-nuclei-elf/9.2.0/rv32imafc/ilp32f\libgcc.a(muldf3.o)
 .rodata        0x000000001ff6c5ec      0x100 d:/software/yuyin/qiqiyinqiluntai/riscv-nuclei-elf-gcc-9.2.0.0/gcc_fix_raissrc/bin/../lib/gcc/riscv-nuclei-elf/9.2.0/rv32imafc/ilp32f\libgcc.a(_clz.o)
                0x000000001ff6c5ec                __clz_tab
 .rodata._vfprintf_r.str1.4
                0x000000001ff6c6ec       0x13 d:/software/yuyin/qiqiyinqiluntai/riscv-nuclei-elf-gcc-9.2.0.0/gcc_fix_raissrc/bin/../lib/gcc/riscv-nuclei-elf/9.2.0/../../../../riscv-nuclei-elf/lib/rv32imafc/ilp32f\libg_nano.a(lib_a-nano-vfprintf.o)
 *fill*         0x000000001ff6c6ff        0x1 
 .rodata.__sf_fake_stderr
                0x000000001ff6c700       0x20 d:/software/yuyin/qiqiyinqiluntai/riscv-nuclei-elf-gcc-9.2.0.0/gcc_fix_raissrc/bin/../lib/gcc/riscv-nuclei-elf/9.2.0/../../../../riscv-nuclei-elf/lib/rv32imafc/ilp32f\libg_nano.a(lib_a-findfp.o)
                0x000000001ff6c700                __sf_fake_stderr
 .rodata.__sf_fake_stdin
                0x000000001ff6c720       0x20 d:/software/yuyin/qiqiyinqiluntai/riscv-nuclei-elf-gcc-9.2.0.0/gcc_fix_raissrc/bin/../lib/gcc/riscv-nuclei-elf/9.2.0/../../../../riscv-nuclei-elf/lib/rv32imafc/ilp32f\libg_nano.a(lib_a-findfp.o)
                0x000000001ff6c720                __sf_fake_stdin
 .rodata.__sf_fake_stdout
                0x000000001ff6c740       0x20 d:/software/yuyin/qiqiyinqiluntai/riscv-nuclei-elf-gcc-9.2.0.0/gcc_fix_raissrc/bin/../lib/gcc/riscv-nuclei-elf/9.2.0/../../../../riscv-nuclei-elf/lib/rv32imafc/ilp32f\libg_nano.a(lib_a-findfp.o)
                0x000000001ff6c740                __sf_fake_stdout
 .rodata._printf_i.str1.4
                0x000000001ff6c760       0x28 d:/software/yuyin/qiqiyinqiluntai/riscv-nuclei-elf-gcc-9.2.0.0/gcc_fix_raissrc/bin/../lib/gcc/riscv-nuclei-elf/9.2.0/../../../../riscv-nuclei-elf/lib/rv32imafc/ilp32f\libg_nano.a(lib_a-nano-vfprintf_i.o)
                                         0x25 (size before relaxing)
 .rodata._printf_i
                0x000000001ff6c788       0x58 d:/software/yuyin/qiqiyinqiluntai/riscv-nuclei-elf-gcc-9.2.0.0/gcc_fix_raissrc/bin/../lib/gcc/riscv-nuclei-elf/9.2.0/../../../../riscv-nuclei-elf/lib/rv32imafc/ilp32f\libg_nano.a(lib_a-nano-vfprintf_i.o)
 .rodata.str1.4
                0x000000001ff6c7e0        0x5 d:/software/yuyin/qiqiyinqiluntai/riscv-nuclei-elf-gcc-9.2.0.0/gcc_fix_raissrc/bin/../lib/gcc/riscv-nuclei-elf/9.2.0/../../../../riscv-nuclei-elf/lib/rv32imafc/ilp32f\libm.a(lib_a-w_acos.o)
                                          0x9 (size before relaxing)
 *fill*         0x000000001ff6c7e5        0x3 
 .rodata.str1.4
                0x000000001ff6c7e8        0x4 d:/software/yuyin/qiqiyinqiluntai/riscv-nuclei-elf-gcc-9.2.0.0/gcc_fix_raissrc/bin/../lib/gcc/riscv-nuclei-elf/9.2.0/../../../../riscv-nuclei-elf/lib/rv32imafc/ilp32f\libm.a(lib_a-w_exp.o)
 .rodata.str1.4
                0x000000001ff6c7ec        0x5 d:/software/yuyin/qiqiyinqiluntai/riscv-nuclei-elf-gcc-9.2.0.0/gcc_fix_raissrc/bin/../lib/gcc/riscv-nuclei-elf/9.2.0/../../../../riscv-nuclei-elf/lib/rv32imafc/ilp32f\libm.a(lib_a-wf_pow.o)
 *fill*         0x000000001ff6c7f1        0x3 
 .rodata.str1.4
                0x000000001ff6c7f4        0x4 d:/software/yuyin/qiqiyinqiluntai/riscv-nuclei-elf-gcc-9.2.0.0/gcc_fix_raissrc/bin/../lib/gcc/riscv-nuclei-elf/9.2.0/../../../../riscv-nuclei-elf/lib/rv32imafc/ilp32f\libm.a(lib_a-w_log.o)
                                          0x5 (size before relaxing)
 .rodata.str1.4
                0x000000001ff6c7f8        0x5 d:/software/yuyin/qiqiyinqiluntai/riscv-nuclei-elf-gcc-9.2.0.0/gcc_fix_raissrc/bin/../lib/gcc/riscv-nuclei-elf/9.2.0/../../../../riscv-nuclei-elf/lib/rv32imafc/ilp32f\libm.a(lib_a-w_sqrt.o)
 *fill*         0x000000001ff6c7fd        0x3 
 .rodata        0x000000001ff6c800       0x30 d:/software/yuyin/qiqiyinqiluntai/riscv-nuclei-elf-gcc-9.2.0.0/gcc_fix_raissrc/bin/../lib/gcc/riscv-nuclei-elf/9.2.0/../../../../riscv-nuclei-elf/lib/rv32imafc/ilp32f\libm.a(lib_a-e_exp.o)
 .rodata.str1.4
                0x000000001ff6c830        0x1 d:/software/yuyin/qiqiyinqiluntai/riscv-nuclei-elf-gcc-9.2.0.0/gcc_fix_raissrc/bin/../lib/gcc/riscv-nuclei-elf/9.2.0/../../../../riscv-nuclei-elf/lib/rv32imafc/ilp32f\libm.a(lib_a-ef_pow.o)

.rela.dyn       0x000000001ff6c830        0x0
 .rela.init     0x000000001ff6c830        0x0 build/objs/ci130x_vtable.o
 .rela.load_addr
                0x000000001ff6c830        0x0 build/objs/ci130x_vtable.o
 .rela.text.sbrk
                0x000000001ff6c830        0x0 build/objs/ci130x_vtable.o
 .rela.sdata.currentHeapEnd.5595
                0x000000001ff6c830        0x0 build/objs/ci130x_vtable.o
 .rela.text.entry
                0x000000001ff6c830        0x0 build/objs/ci130x_vtable.o
 .rela.text.__libc_fini_array
                0x000000001ff6c830        0x0 build/objs/ci130x_vtable.o
 .rela.text.__libc_init_array
                0x000000001ff6c830        0x0 build/objs/ci130x_vtable.o
 .rela.text.__register_exitproc
                0x000000001ff6c830        0x0 build/objs/ci130x_vtable.o
 .rela.text.pvPortMalloc
                0x000000001ff6c830        0x0 build/objs/ci130x_vtable.o
 .rela.text.handle_trap
                0x000000001ff6c830        0x0 build/objs/ci130x_vtable.o
 .rela.text.startup.main
                0x000000001ff6c830        0x0 build/objs/ci130x_vtable.o
 .rela.text.task_init
                0x000000001ff6c830        0x0 build/objs/ci130x_vtable.o
 .rela.text._init
                0x000000001ff6c830        0x0 build/objs/ci130x_vtable.o
 .rela.text._vfprintf_r
                0x000000001ff6c830        0x0 build/objs/ci130x_vtable.o
 .rela.text._sbrk_r
                0x000000001ff6c830        0x0 build/objs/ci130x_vtable.o
 .rela.text._write_r
                0x000000001ff6c830        0x0 build/objs/ci130x_vtable.o
 .rela.text._close_r
                0x000000001ff6c830        0x0 build/objs/ci130x_vtable.o
 .rela.text._fstat_r
                0x000000001ff6c830        0x0 build/objs/ci130x_vtable.o
 .rela.text._isatty_r
                0x000000001ff6c830        0x0 build/objs/ci130x_vtable.o
 .rela.text._lseek_r
                0x000000001ff6c830        0x0 build/objs/ci130x_vtable.o
 .rela.text._read_r
                0x000000001ff6c830        0x0 build/objs/ci130x_vtable.o

.lalign         0x000000001ff6c830        0x0
                0x000000001ff6c830                . = ALIGN (0x4)
                0x000000001ff6c830                PROVIDE (_data_lma = .)

.dalign         0x000000001ff6c830        0x0
                0x000000001ff6c830                . = ALIGN (0x4)
                0x000000001ff6c830                PROVIDE (_data = .)

.data           0x000000001ff6c830      0x6e8
 *(.gnu.linkonce.r.*)
 *(.data .data.*)
 .data.audio_capture
                0x000000001ff6c830        0xc C:\TMP\nn_denoise_rtc_sample.elf.UaA6UP.ltrans1.ltrans.o
 .data.audio_pre_tslt_out_info
                0x000000001ff6c83c       0x54 C:\TMP\nn_denoise_rtc_sample.elf.UaA6UP.ltrans1.ltrans.o
 .data.ci_ssp   0x000000001ff6c890       0xe0 C:\TMP\nn_denoise_rtc_sample.elf.UaA6UP.ltrans1.ltrans.o
 .data.eq_config
                0x000000001ff6c970       0x78 C:\TMP\nn_denoise_rtc_sample.elf.UaA6UP.ltrans1.ltrans.o
 .data.impure_data
                0x000000001ff6c9e8       0x60 d:/software/yuyin/qiqiyinqiluntai/riscv-nuclei-elf-gcc-9.2.0.0/gcc_fix_raissrc/bin/../lib/gcc/riscv-nuclei-elf/9.2.0/../../../../riscv-nuclei-elf/lib/rv32imafc/ilp32f\libg_nano.a(lib_a-impure.o)
 *(.gnu.linkonce.d.*)
                0x000000001ff6ca48                . = ALIGN (0x8)
                0x000000001ff6d248                PROVIDE (__global_pointer$ = (. + 0x800))
 *(.sdata .sdata.* .sdata*)
 .sdata.uxCriticalNesting
                0x000000001ff6ca48        0x4 C:\TMP\nn_denoise_rtc_sample.elf.UaA6UP.ltrans0.ltrans.o
 .sdata2.exc_gain_quant_scal1
                0x000000001ff6ca4c        0x8 C:\TMP\nn_denoise_rtc_sample.elf.UaA6UP.ltrans0.ltrans.o
 .sdata2.mailbox_ports
                0x000000001ff6ca54        0x8 C:\TMP\nn_denoise_rtc_sample.elf.UaA6UP.ltrans0.ltrans.o
 .sdata.a0_string
                0x000000001ff6ca5c        0x3 C:\TMP\nn_denoise_rtc_sample.elf.UaA6UP.ltrans1.ltrans.o
 *fill*         0x000000001ff6ca5f        0x1 
 .sdata.a1_string
                0x000000001ff6ca60        0x3 C:\TMP\nn_denoise_rtc_sample.elf.UaA6UP.ltrans1.ltrans.o
 *fill*         0x000000001ff6ca63        0x1 
 .sdata.a2_string
                0x000000001ff6ca64        0x3 C:\TMP\nn_denoise_rtc_sample.elf.UaA6UP.ltrans1.ltrans.o
 *fill*         0x000000001ff6ca67        0x1 
 .sdata.a3_string
                0x000000001ff6ca68        0x3 C:\TMP\nn_denoise_rtc_sample.elf.UaA6UP.ltrans1.ltrans.o
 *fill*         0x000000001ff6ca6b        0x1 
 .sdata.a4_string
                0x000000001ff6ca6c        0x3 C:\TMP\nn_denoise_rtc_sample.elf.UaA6UP.ltrans1.ltrans.o
 *fill*         0x000000001ff6ca6f        0x1 
 .sdata.a5_string
                0x000000001ff6ca70        0x3 C:\TMP\nn_denoise_rtc_sample.elf.UaA6UP.ltrans1.ltrans.o
 *fill*         0x000000001ff6ca73        0x1 
 .sdata.a6_string
                0x000000001ff6ca74        0x3 C:\TMP\nn_denoise_rtc_sample.elf.UaA6UP.ltrans1.ltrans.o
 *fill*         0x000000001ff6ca77        0x1 
 .sdata.a7_string
                0x000000001ff6ca78        0x3 C:\TMP\nn_denoise_rtc_sample.elf.UaA6UP.ltrans1.ltrans.o
 *fill*         0x000000001ff6ca7b        0x1 
 .sdata.ai_denoise_config
                0x000000001ff6ca7c        0x8 C:\TMP\nn_denoise_rtc_sample.elf.UaA6UP.ltrans1.ltrans.o
 .sdata.cmd_file_start_addr_in_flash
                0x000000001ff6ca84        0x4 C:\TMP\nn_denoise_rtc_sample.elf.UaA6UP.ltrans1.ltrans.o
 .sdata.fp_string
                0x000000001ff6ca88        0x3 C:\TMP\nn_denoise_rtc_sample.elf.UaA6UP.ltrans1.ltrans.o
 *fill*         0x000000001ff6ca8b        0x1 
 .sdata.gp_string
                0x000000001ff6ca8c        0x3 C:\TMP\nn_denoise_rtc_sample.elf.UaA6UP.ltrans1.ltrans.o
 *fill*         0x000000001ff6ca8f        0x1 
 .sdata.mcause_string
                0x000000001ff6ca90        0x7 C:\TMP\nn_denoise_rtc_sample.elf.UaA6UP.ltrans1.ltrans.o
 *fill*         0x000000001ff6ca97        0x1 
 .sdata.mepc_string
                0x000000001ff6ca98        0x5 C:\TMP\nn_denoise_rtc_sample.elf.UaA6UP.ltrans1.ltrans.o
 *fill*         0x000000001ff6ca9d        0x3 
 .sdata.mstatus_string
                0x000000001ff6caa0        0x8 C:\TMP\nn_denoise_rtc_sample.elf.UaA6UP.ltrans1.ltrans.o
 .sdata.msubm_string
                0x000000001ff6caa8        0x6 C:\TMP\nn_denoise_rtc_sample.elf.UaA6UP.ltrans1.ltrans.o
 *fill*         0x000000001ff6caae        0x2 
 .sdata.pre_rslt_out_sound_info
                0x000000001ff6cab0        0x8 C:\TMP\nn_denoise_rtc_sample.elf.UaA6UP.ltrans1.ltrans.o
 .sdata.ra_string
                0x000000001ff6cab8        0x3 C:\TMP\nn_denoise_rtc_sample.elf.UaA6UP.ltrans1.ltrans.o
 .sdata.rtc_denoise_func_status.6068
                0x000000001ff6cabb        0x1 C:\TMP\nn_denoise_rtc_sample.elf.UaA6UP.ltrans1.ltrans.o
 .sdata.s10_string
                0x000000001ff6cabc        0x4 C:\TMP\nn_denoise_rtc_sample.elf.UaA6UP.ltrans1.ltrans.o
 .sdata.s11_string
                0x000000001ff6cac0        0x4 C:\TMP\nn_denoise_rtc_sample.elf.UaA6UP.ltrans1.ltrans.o
 .sdata.s1_string
                0x000000001ff6cac4        0x3 C:\TMP\nn_denoise_rtc_sample.elf.UaA6UP.ltrans1.ltrans.o
 *fill*         0x000000001ff6cac7        0x1 
 .sdata.s2_string
                0x000000001ff6cac8        0x3 C:\TMP\nn_denoise_rtc_sample.elf.UaA6UP.ltrans1.ltrans.o
 *fill*         0x000000001ff6cacb        0x1 
 .sdata.s3_string
                0x000000001ff6cacc        0x3 C:\TMP\nn_denoise_rtc_sample.elf.UaA6UP.ltrans1.ltrans.o
 *fill*         0x000000001ff6cacf        0x1 
 .sdata.s4_string
                0x000000001ff6cad0        0x3 C:\TMP\nn_denoise_rtc_sample.elf.UaA6UP.ltrans1.ltrans.o
 *fill*         0x000000001ff6cad3        0x1 
 .sdata.s5_string
                0x000000001ff6cad4        0x3 C:\TMP\nn_denoise_rtc_sample.elf.UaA6UP.ltrans1.ltrans.o
 *fill*         0x000000001ff6cad7        0x1 
 .sdata.s6_string
                0x000000001ff6cad8        0x3 C:\TMP\nn_denoise_rtc_sample.elf.UaA6UP.ltrans1.ltrans.o
 *fill*         0x000000001ff6cadb        0x1 
 .sdata.s7_string
                0x000000001ff6cadc        0x3 C:\TMP\nn_denoise_rtc_sample.elf.UaA6UP.ltrans1.ltrans.o
 *fill*         0x000000001ff6cadf        0x1 
 .sdata.s8_string
                0x000000001ff6cae0        0x3 C:\TMP\nn_denoise_rtc_sample.elf.UaA6UP.ltrans1.ltrans.o
 *fill*         0x000000001ff6cae3        0x1 
 .sdata.s9_string
                0x000000001ff6cae4        0x3 C:\TMP\nn_denoise_rtc_sample.elf.UaA6UP.ltrans1.ltrans.o
 *fill*         0x000000001ff6cae7        0x1 
 .sdata.sp_string
                0x000000001ff6cae8        0x3 C:\TMP\nn_denoise_rtc_sample.elf.UaA6UP.ltrans1.ltrans.o
 *fill*         0x000000001ff6caeb        0x1 
 .sdata.t0_string
                0x000000001ff6caec        0x3 C:\TMP\nn_denoise_rtc_sample.elf.UaA6UP.ltrans1.ltrans.o
 *fill*         0x000000001ff6caef        0x1 
 .sdata.t1_string
                0x000000001ff6caf0        0x3 C:\TMP\nn_denoise_rtc_sample.elf.UaA6UP.ltrans1.ltrans.o
 *fill*         0x000000001ff6caf3        0x1 
 .sdata.t2_string
                0x000000001ff6caf4        0x3 C:\TMP\nn_denoise_rtc_sample.elf.UaA6UP.ltrans1.ltrans.o
 *fill*         0x000000001ff6caf7        0x1 
 .sdata.t3_string
                0x000000001ff6caf8        0x3 C:\TMP\nn_denoise_rtc_sample.elf.UaA6UP.ltrans1.ltrans.o
 *fill*         0x000000001ff6cafb        0x1 
 .sdata.t4_string
                0x000000001ff6cafc        0x3 C:\TMP\nn_denoise_rtc_sample.elf.UaA6UP.ltrans1.ltrans.o
 *fill*         0x000000001ff6caff        0x1 
 .sdata.t5_string
                0x000000001ff6cb00        0x3 C:\TMP\nn_denoise_rtc_sample.elf.UaA6UP.ltrans1.ltrans.o
 *fill*         0x000000001ff6cb03        0x1 
 .sdata.t6_string
                0x000000001ff6cb04        0x3 C:\TMP\nn_denoise_rtc_sample.elf.UaA6UP.ltrans1.ltrans.o
 *fill*         0x000000001ff6cb07        0x1 
 .sdata.tp_string
                0x000000001ff6cb08        0x3 C:\TMP\nn_denoise_rtc_sample.elf.UaA6UP.ltrans1.ltrans.o
 *fill*         0x000000001ff6cb0b        0x1 
 .sdata.trans_blk
                0x000000001ff6cb0c        0x2 C:\TMP\nn_denoise_rtc_sample.elf.UaA6UP.ltrans1.ltrans.o
 .sdata.trans_off
                0x000000001ff6cb0e        0x2 C:\TMP\nn_denoise_rtc_sample.elf.UaA6UP.ltrans1.ltrans.o
 .sdata2.host_mic_sound_info
                0x000000001ff6cb10        0x8 C:\TMP\nn_denoise_rtc_sample.elf.UaA6UP.ltrans1.ltrans.o
 .sdata2.iis_out_audio_config
                0x000000001ff6cb18        0x5 C:\TMP\nn_denoise_rtc_sample.elf.UaA6UP.ltrans1.ltrans.o
 *fill*         0x000000001ff6cb1d        0x3 
 .sdata.currentHeapEnd.5595
                0x000000001ff6cb20        0x4 ../../../libs\libnewlib_port.a(sbrk.o)
 .sdata._impure_ptr
                0x000000001ff6cb24        0x4 d:/software/yuyin/qiqiyinqiluntai/riscv-nuclei-elf-gcc-9.2.0.0/gcc_fix_raissrc/bin/../lib/gcc/riscv-nuclei-elf/9.2.0/../../../../riscv-nuclei-elf/lib/rv32imafc/ilp32f\libg_nano.a(lib_a-impure.o)
                0x000000001ff6cb24                _impure_ptr
 .sdata2._global_impure_ptr
                0x000000001ff6cb28        0x4 d:/software/yuyin/qiqiyinqiluntai/riscv-nuclei-elf-gcc-9.2.0.0/gcc_fix_raissrc/bin/../lib/gcc/riscv-nuclei-elf/9.2.0/../../../../riscv-nuclei-elf/lib/rv32imafc/ilp32f\libg_nano.a(lib_a-impure.o)
                0x000000001ff6cb28                _global_impure_ptr
 .sdata         0x000000001ff6cb2c        0x4 d:/software/yuyin/qiqiyinqiluntai/riscv-nuclei-elf-gcc-9.2.0.0/gcc_fix_raissrc/bin/../lib/gcc/riscv-nuclei-elf/9.2.0/../../../../riscv-nuclei-elf/lib/rv32imafc/ilp32f\libm.a(lib_a-s_lib_ver.o)
                0x000000001ff6cb2c                __fdlib_version
 *(.gnu.linkonce.s.*)
                0x000000001ff6cb30                . = ALIGN (0x8)
 *(.srodata.cst16)
 *(.srodata.cst8)
 .srodata.cst8  0x000000001ff6cb30      0x138 C:\TMP\nn_denoise_rtc_sample.elf.UaA6UP.ltrans0.ltrans.o
 .srodata.cst8  0x000000001ff6cc68        0x8 d:/software/yuyin/qiqiyinqiluntai/riscv-nuclei-elf-gcc-9.2.0.0/gcc_fix_raissrc/bin/../lib/gcc/riscv-nuclei-elf/9.2.0/../../../../riscv-nuclei-elf/lib/rv32imafc/ilp32f\libm.a(lib_a-s_floor.o)
 .srodata.cst8  0x000000001ff6cc70        0x8 d:/software/yuyin/qiqiyinqiluntai/riscv-nuclei-elf-gcc-9.2.0.0/gcc_fix_raissrc/bin/../lib/gcc/riscv-nuclei-elf/9.2.0/../../../../riscv-nuclei-elf/lib/rv32imafc/ilp32f\libm.a(lib_a-w_acos.o)
 .srodata.cst8  0x000000001ff6cc70       0x20 d:/software/yuyin/qiqiyinqiluntai/riscv-nuclei-elf-gcc-9.2.0.0/gcc_fix_raissrc/bin/../lib/gcc/riscv-nuclei-elf/9.2.0/../../../../riscv-nuclei-elf/lib/rv32imafc/ilp32f\libm.a(lib_a-w_exp.o)
 .srodata.cst8  0x000000001ff6cc90       0x10 d:/software/yuyin/qiqiyinqiluntai/riscv-nuclei-elf-gcc-9.2.0.0/gcc_fix_raissrc/bin/../lib/gcc/riscv-nuclei-elf/9.2.0/../../../../riscv-nuclei-elf/lib/rv32imafc/ilp32f\libm.a(lib_a-wf_pow.o)
                                         0x28 (size before relaxing)
 .srodata.cst8  0x000000001ff6cca0       0x10 d:/software/yuyin/qiqiyinqiluntai/riscv-nuclei-elf-gcc-9.2.0.0/gcc_fix_raissrc/bin/../lib/gcc/riscv-nuclei-elf/9.2.0/../../../../riscv-nuclei-elf/lib/rv32imafc/ilp32f\libm.a(lib_a-w_log.o)
 .srodata.cst8  0x000000001ff6cca0       0x60 d:/software/yuyin/qiqiyinqiluntai/riscv-nuclei-elf-gcc-9.2.0.0/gcc_fix_raissrc/bin/../lib/gcc/riscv-nuclei-elf/9.2.0/../../../../riscv-nuclei-elf/lib/rv32imafc/ilp32f\libm.a(lib_a-e_acos.o)
                                         0x78 (size before relaxing)
 .srodata.cst8  0x000000001ff6cd00       0x50 d:/software/yuyin/qiqiyinqiluntai/riscv-nuclei-elf-gcc-9.2.0.0/gcc_fix_raissrc/bin/../lib/gcc/riscv-nuclei-elf/9.2.0/../../../../riscv-nuclei-elf/lib/rv32imafc/ilp32f\libm.a(lib_a-e_exp.o)
                                         0x70 (size before relaxing)
 .srodata.cst8  0x000000001ff6cd50       0x50 d:/software/yuyin/qiqiyinqiluntai/riscv-nuclei-elf-gcc-9.2.0.0/gcc_fix_raissrc/bin/../lib/gcc/riscv-nuclei-elf/9.2.0/../../../../riscv-nuclei-elf/lib/rv32imafc/ilp32f\libm.a(lib_a-e_log.o)
                                         0x78 (size before relaxing)
 .srodata.cst8  0x000000001ff6cda0        0x8 d:/software/yuyin/qiqiyinqiluntai/riscv-nuclei-elf-gcc-9.2.0.0/gcc_fix_raissrc/bin/../lib/gcc/riscv-nuclei-elf/9.2.0/../../../../riscv-nuclei-elf/lib/rv32imafc/ilp32f\libm.a(lib_a-s_nan.o)
 *(.srodata.cst4)
 .srodata.cst4  0x000000001ff6cda8       0xe0 C:\TMP\nn_denoise_rtc_sample.elf.UaA6UP.ltrans0.ltrans.o
 .srodata.cst4  0x000000001ff6ce88       0x10 C:\TMP\nn_denoise_rtc_sample.elf.UaA6UP.ltrans1.ltrans.o
                                         0x1c (size before relaxing)
 .srodata.cst4  0x000000001ff6ce98        0x8 d:/software/yuyin/qiqiyinqiluntai/riscv-nuclei-elf-gcc-9.2.0.0/gcc_fix_raissrc/bin/../lib/gcc/riscv-nuclei-elf/9.2.0/../../../../riscv-nuclei-elf/lib/rv32imafc/ilp32f\libm.a(lib_a-wf_pow.o)
 .srodata.cst4  0x000000001ff6ce98       0x6c d:/software/yuyin/qiqiyinqiluntai/riscv-nuclei-elf-gcc-9.2.0.0/gcc_fix_raissrc/bin/../lib/gcc/riscv-nuclei-elf/9.2.0/../../../../riscv-nuclei-elf/lib/rv32imafc/ilp32f\libm.a(lib_a-ef_pow.o)
                                         0x84 (size before relaxing)
 .srodata.cst4  0x000000001ff6cf04        0x4 d:/software/yuyin/qiqiyinqiluntai/riscv-nuclei-elf-gcc-9.2.0.0/gcc_fix_raissrc/bin/../lib/gcc/riscv-nuclei-elf/9.2.0/../../../../riscv-nuclei-elf/lib/rv32imafc/ilp32f\libm.a(lib_a-sf_nan.o)
 .srodata.cst4  0x000000001ff6cf08        0x8 d:/software/yuyin/qiqiyinqiluntai/riscv-nuclei-elf-gcc-9.2.0.0/gcc_fix_raissrc/bin/../lib/gcc/riscv-nuclei-elf/9.2.0/../../../../riscv-nuclei-elf/lib/rv32imafc/ilp32f\libm.a(lib_a-sf_scalbn.o)
                                         0x10 (size before relaxing)
 *(.srodata.cst2)
 *(.srodata .srodata.*)
 .srodata       0x000000001ff6cf10        0x8 d:/software/yuyin/qiqiyinqiluntai/riscv-nuclei-elf-gcc-9.2.0.0/gcc_fix_raissrc/bin/../lib/gcc/riscv-nuclei-elf/9.2.0/../../../../riscv-nuclei-elf/lib/rv32imafc/ilp32f\libm.a(lib_a-sf_rint.o)
                0x000000001ff6cf18                . = ALIGN (0x4)
                0x000000001ff6cf18                PROVIDE (_edata = .)
                [!provide]                        PROVIDE (edata = .)
                [!provide]                        PROVIDE (_fbss = .)
                0x000000001ff6cf18                PROVIDE (__bss_start = .)

.bss            0x000000001ff6cf18     0x1edc
 *(.sbss*)
 .sbss.asrtop_asr_system_continue_semaphore
                0x000000001ff6cf18        0x4 C:\TMP\nn_denoise_rtc_sample.elf.UaA6UP.ltrans0.ltrans.o
                0x000000001ff6cf18                asrtop_asr_system_continue_semaphore
 .sbss.asrtop_asr_system_create_model_semaphore
                0x000000001ff6cf1c        0x4 C:\TMP\nn_denoise_rtc_sample.elf.UaA6UP.ltrans0.ltrans.o
                0x000000001ff6cf1c                asrtop_asr_system_create_model_semaphore
 .sbss.asrtop_asr_system_pause_semaphore
                0x000000001ff6cf20        0x4 C:\TMP\nn_denoise_rtc_sample.elf.UaA6UP.ltrans0.ltrans.o
                0x000000001ff6cf20                asrtop_asr_system_pause_semaphore
 .sbss.boot_sync_bnpu.lto_priv.0
                0x000000001ff6cf24        0x4 C:\TMP\nn_denoise_rtc_sample.elf.UaA6UP.ltrans0.ltrans.o
                0x000000001ff6cf24                boot_sync_bnpu.lto_priv.0
 .sbss.boot_sync_host.lto_priv.0
                0x000000001ff6cf28        0x4 C:\TMP\nn_denoise_rtc_sample.elf.UaA6UP.ltrans0.ltrans.o
                0x000000001ff6cf28                boot_sync_host.lto_priv.0
 .sbss.cinv_hotid_m.lto_priv.0
                0x000000001ff6cf2c        0x4 C:\TMP\nn_denoise_rtc_sample.elf.UaA6UP.ltrans0.ltrans.o
                0x000000001ff6cf2c                cinv_hotid_m.lto_priv.0
 .sbss.decoder_createmodel_done_flag
                0x000000001ff6cf30        0x1 C:\TMP\nn_denoise_rtc_sample.elf.UaA6UP.ltrans0.ltrans.o
 .sbss.decoder_manage_is_decodeing
                0x000000001ff6cf31        0x1 C:\TMP\nn_denoise_rtc_sample.elf.UaA6UP.ltrans0.ltrans.o
 .sbss.decoder_task_could_init
                0x000000001ff6cf32        0x1 C:\TMP\nn_denoise_rtc_sample.elf.UaA6UP.ltrans0.ltrans.o
 .sbss.decoder_task_vadfe_clear_done_flag
                0x000000001ff6cf33        0x1 C:\TMP\nn_denoise_rtc_sample.elf.UaA6UP.ltrans0.ltrans.o
 .sbss.flash_ctl_xSemaphore
                0x000000001ff6cf34        0x4 C:\TMP\nn_denoise_rtc_sample.elf.UaA6UP.ltrans0.ltrans.o
                0x000000001ff6cf34                flash_ctl_xSemaphore
 .sbss.flash_req_op_done_event_group.lto_priv.0
                0x000000001ff6cf38        0x4 C:\TMP\nn_denoise_rtc_sample.elf.UaA6UP.ltrans0.ltrans.o
                0x000000001ff6cf38                flash_req_op_done_event_group.lto_priv.0
 .sbss.g_feb_total_count.lto_priv.0
                0x000000001ff6cf3c        0x2 C:\TMP\nn_denoise_rtc_sample.elf.UaA6UP.ltrans0.ltrans.o
                0x000000001ff6cf3c                g_feb_total_count.lto_priv.0
 *fill*         0x000000001ff6cf3e        0x2 
 .sbss.g_flash_base_addr.lto_priv.0
                0x000000001ff6cf40        0x4 C:\TMP\nn_denoise_rtc_sample.elf.UaA6UP.ltrans0.ltrans.o
                0x000000001ff6cf40                g_flash_base_addr.lto_priv.0
 .sbss.g_prun_count_max
                0x000000001ff6cf44        0x4 C:\TMP\nn_denoise_rtc_sample.elf.UaA6UP.ltrans0.ltrans.o
 .sbss.ifft_data_queue
                0x000000001ff6cf48        0x4 C:\TMP\nn_denoise_rtc_sample.elf.UaA6UP.ltrans0.ltrans.o
                0x000000001ff6cf48                ifft_data_queue
 .sbss.is_burn_down
                0x000000001ff6cf4c        0x1 C:\TMP\nn_denoise_rtc_sample.elf.UaA6UP.ltrans0.ltrans.o
 .sbss.is_check_err
                0x000000001ff6cf4d        0x1 C:\TMP\nn_denoise_rtc_sample.elf.UaA6UP.ltrans0.ltrans.o
 .sbss.is_dnn_err
                0x000000001ff6cf4e        0x1 C:\TMP\nn_denoise_rtc_sample.elf.UaA6UP.ltrans0.ltrans.o
 .sbss.is_por_err
                0x000000001ff6cf4f        0x1 C:\TMP\nn_denoise_rtc_sample.elf.UaA6UP.ltrans0.ltrans.o
 .sbss.is_read_down
                0x000000001ff6cf50        0x1 C:\TMP\nn_denoise_rtc_sample.elf.UaA6UP.ltrans0.ltrans.o
 .sbss.mailbox_is_busy
                0x000000001ff6cf51        0x1 C:\TMP\nn_denoise_rtc_sample.elf.UaA6UP.ltrans0.ltrans.o
 *fill*         0x000000001ff6cf52        0x2 
 .sbss.mailbox_semaphore.lto_priv.0
                0x000000001ff6cf54        0x4 C:\TMP\nn_denoise_rtc_sample.elf.UaA6UP.ltrans0.ltrans.o
                0x000000001ff6cf54                mailbox_semaphore.lto_priv.0
 .sbss.nuclear_com_callback_func.lto_priv.0
                0x000000001ff6cf58        0x4 C:\TMP\nn_denoise_rtc_sample.elf.UaA6UP.ltrans0.ltrans.o
                0x000000001ff6cf58                nuclear_com_callback_func.lto_priv.0
 .sbss.nuclear_com_semaphore
                0x000000001ff6cf5c        0x4 C:\TMP\nn_denoise_rtc_sample.elf.UaA6UP.ltrans0.ltrans.o
                0x000000001ff6cf5c                nuclear_com_semaphore
 .sbss.pxCurrentTCB
                0x000000001ff6cf60        0x4 C:\TMP\nn_denoise_rtc_sample.elf.UaA6UP.ltrans0.ltrans.o
                0x000000001ff6cf60                pxCurrentTCB
 .sbss.pxDelayedTaskList.lto_priv.0
                0x000000001ff6cf64        0x4 C:\TMP\nn_denoise_rtc_sample.elf.UaA6UP.ltrans0.ltrans.o
                0x000000001ff6cf64                pxDelayedTaskList.lto_priv.0
 .sbss.pxOverflowDelayedTaskList.lto_priv.0
                0x000000001ff6cf68        0x4 C:\TMP\nn_denoise_rtc_sample.elf.UaA6UP.ltrans0.ltrans.o
                0x000000001ff6cf68                pxOverflowDelayedTaskList.lto_priv.0
 .sbss.sg_req_change_model
                0x000000001ff6cf6c        0x1 C:\TMP\nn_denoise_rtc_sample.elf.UaA6UP.ltrans0.ltrans.o
 *fill*         0x000000001ff6cf6d        0x3 
 .sbss.sys_err_flag
                0x000000001ff6cf70        0x4 C:\TMP\nn_denoise_rtc_sample.elf.UaA6UP.ltrans0.ltrans.o
 .sbss.uxCurrentNumberOfTasks.lto_priv.0
                0x000000001ff6cf74        0x4 C:\TMP\nn_denoise_rtc_sample.elf.UaA6UP.ltrans0.ltrans.o
                0x000000001ff6cf74                uxCurrentNumberOfTasks.lto_priv.0
 .sbss.uxSchedulerSuspended.lto_priv.0
                0x000000001ff6cf78        0x4 C:\TMP\nn_denoise_rtc_sample.elf.UaA6UP.ltrans0.ltrans.o
                0x000000001ff6cf78                uxSchedulerSuspended.lto_priv.0
 .sbss.uxTaskNumber
                0x000000001ff6cf7c        0x4 C:\TMP\nn_denoise_rtc_sample.elf.UaA6UP.ltrans0.ltrans.o
 .sbss.uxTopReadyPriority.lto_priv.0
                0x000000001ff6cf80        0x4 C:\TMP\nn_denoise_rtc_sample.elf.UaA6UP.ltrans0.ltrans.o
                0x000000001ff6cf80                uxTopReadyPriority.lto_priv.0
 .sbss.xNumOfOverflows.lto_priv.0
                0x000000001ff6cf84        0x4 C:\TMP\nn_denoise_rtc_sample.elf.UaA6UP.ltrans0.ltrans.o
                0x000000001ff6cf84                xNumOfOverflows.lto_priv.0
 .sbss.xSchedulerRunning.lto_priv.0
                0x000000001ff6cf88        0x4 C:\TMP\nn_denoise_rtc_sample.elf.UaA6UP.ltrans0.ltrans.o
                0x000000001ff6cf88                xSchedulerRunning.lto_priv.0
 .sbss.xTickCount.lto_priv.0
                0x000000001ff6cf8c        0x4 C:\TMP\nn_denoise_rtc_sample.elf.UaA6UP.ltrans0.ltrans.o
                0x000000001ff6cf8c                xTickCount.lto_priv.0
 .sbss.xTimerQueue.lto_priv.0
                0x000000001ff6cf90        0x4 C:\TMP\nn_denoise_rtc_sample.elf.UaA6UP.ltrans0.ltrans.o
                0x000000001ff6cf90                xTimerQueue.lto_priv.0
 .sbss.xYieldPending.lto_priv.0
                0x000000001ff6cf94        0x4 C:\TMP\nn_denoise_rtc_sample.elf.UaA6UP.ltrans0.ltrans.o
                0x000000001ff6cf94                xYieldPending.lto_priv.0
 .sbss.LDO_trim_value_crc
                0x000000001ff6cf98        0x1 C:\TMP\nn_denoise_rtc_sample.elf.UaA6UP.ltrans1.ltrans.o
 *fill*         0x000000001ff6cf99        0x3 
 .sbss.UART_CLK
                0x000000001ff6cf9c        0x4 C:\TMP\nn_denoise_rtc_sample.elf.UaA6UP.ltrans1.ltrans.o
 .sbss.ci_flash_data_info_init_flag
                0x000000001ff6cfa0        0x1 C:\TMP\nn_denoise_rtc_sample.elf.UaA6UP.ltrans1.ltrans.o
 *fill*         0x000000001ff6cfa1        0x3 
 .sbss.ci_speex_decode_hander
                0x000000001ff6cfa4        0x4 C:\TMP\nn_denoise_rtc_sample.elf.UaA6UP.ltrans1.ltrans.o
 .sbss.ci_speex_encode_hander
                0x000000001ff6cfa8        0x4 C:\TMP\nn_denoise_rtc_sample.elf.UaA6UP.ltrans1.ltrans.o
 .sbss.cinv_mutex
                0x000000001ff6cfac        0x4 C:\TMP\nn_denoise_rtc_sample.elf.UaA6UP.ltrans1.ltrans.o
 .sbss.cnt.7388
                0x000000001ff6cfb0        0x4 C:\TMP\nn_denoise_rtc_sample.elf.UaA6UP.ltrans1.ltrans.o
 .sbss.efuse_writer
                0x000000001ff6cfb4        0x4 C:\TMP\nn_denoise_rtc_sample.elf.UaA6UP.ltrans1.ltrans.o
 .sbss.eq_msg_recv_queue
                0x000000001ff6cfb8        0x4 C:\TMP\nn_denoise_rtc_sample.elf.UaA6UP.ltrans1.ltrans.o
 .sbss.eq_port  0x000000001ff6cfbc        0x1 C:\TMP\nn_denoise_rtc_sample.elf.UaA6UP.ltrans1.ltrans.o
 *fill*         0x000000001ff6cfbd        0x3 
 .sbss.g_audio_rx_index
                0x000000001ff6cfc0        0x4 C:\TMP\nn_denoise_rtc_sample.elf.UaA6UP.ltrans1.ltrans.o
 .sbss.g_dma_channel_callback
                0x000000001ff6cfc4        0x8 C:\TMP\nn_denoise_rtc_sample.elf.UaA6UP.ltrans1.ltrans.o
 .sbss.g_dma_translate_ok
                0x000000001ff6cfcc        0x8 C:\TMP\nn_denoise_rtc_sample.elf.UaA6UP.ltrans1.ltrans.o
 .sbss.g_drc_param
                0x000000001ff6cfd4        0x4 C:\TMP\nn_denoise_rtc_sample.elf.UaA6UP.ltrans1.ltrans.o
 .sbss.g_eq_param
                0x000000001ff6cfd8        0x4 C:\TMP\nn_denoise_rtc_sample.elf.UaA6UP.ltrans1.ltrans.o
 .sbss.g_getbuf_wait_cnt
                0x000000001ff6cfdc        0x4 C:\TMP\nn_denoise_rtc_sample.elf.UaA6UP.ltrans1.ltrans.o
 .sbss.g_pa_pin_valid_level
                0x000000001ff6cfe0        0x4 C:\TMP\nn_denoise_rtc_sample.elf.UaA6UP.ltrans1.ltrans.o
 .sbss.g_start_handle_ifft_data_flag
                0x000000001ff6cfe4        0x1 C:\TMP\nn_denoise_rtc_sample.elf.UaA6UP.ltrans1.ltrans.o
 *fill*         0x000000001ff6cfe5        0x3 
 .sbss.g_underrun_cnt
                0x000000001ff6cfe8        0x4 C:\TMP\nn_denoise_rtc_sample.elf.UaA6UP.ltrans1.ltrans.o
 .sbss.g_write_call_cnt
                0x000000001ff6cfec        0x4 C:\TMP\nn_denoise_rtc_sample.elf.UaA6UP.ltrans1.ltrans.o
 .sbss.g_write_last_tick
                0x000000001ff6cff0        0x4 C:\TMP\nn_denoise_rtc_sample.elf.UaA6UP.ltrans1.ltrans.o
 .sbss.iis_pad_for_clk_input_flag
                0x000000001ff6cff4        0x1 C:\TMP\nn_denoise_rtc_sample.elf.UaA6UP.ltrans1.ltrans.o
 .sbss.is_convert_left_right
                0x000000001ff6cff5        0x1 C:\TMP\nn_denoise_rtc_sample.elf.UaA6UP.ltrans1.ltrans.o
 *fill*         0x000000001ff6cff6        0x2 
 .sbss.max_cmd_string_table_size
                0x000000001ff6cff8        0x4 C:\TMP\nn_denoise_rtc_sample.elf.UaA6UP.ltrans1.ltrans.o
 .sbss.max_command_number
                0x000000001ff6cffc        0x2 C:\TMP\nn_denoise_rtc_sample.elf.UaA6UP.ltrans1.ltrans.o
 .sbss.max_special_word_number
                0x000000001ff6cffe        0x2 C:\TMP\nn_denoise_rtc_sample.elf.UaA6UP.ltrans1.ltrans.o
 .sbss.network_msg_recv_queue
                0x000000001ff6d000        0x4 C:\TMP\nn_denoise_rtc_sample.elf.UaA6UP.ltrans1.ltrans.o
 .sbss.pxCurrentTimerList
                0x000000001ff6d004        0x4 C:\TMP\nn_denoise_rtc_sample.elf.UaA6UP.ltrans1.ltrans.o
 .sbss.pxEnd    0x000000001ff6d008        0x4 C:\TMP\nn_denoise_rtc_sample.elf.UaA6UP.ltrans1.ltrans.o
 .sbss.pxOverflowTimerList
                0x000000001ff6d00c        0x4 C:\TMP\nn_denoise_rtc_sample.elf.UaA6UP.ltrans1.ltrans.o
 .sbss.speex_init_flag
                0x000000001ff6d010        0x1 C:\TMP\nn_denoise_rtc_sample.elf.UaA6UP.ltrans1.ltrans.o
 *fill*         0x000000001ff6d011        0x3 
 .sbss.tmp_voice_addr
                0x000000001ff6d014        0x4 C:\TMP\nn_denoise_rtc_sample.elf.UaA6UP.ltrans1.ltrans.o
 .sbss.trans_id
                0x000000001ff6d018        0x4 C:\TMP\nn_denoise_rtc_sample.elf.UaA6UP.ltrans1.ltrans.o
 .sbss.uart_dma_trans_done
                0x000000001ff6d01c        0x1 C:\TMP\nn_denoise_rtc_sample.elf.UaA6UP.ltrans1.ltrans.o
 *fill*         0x000000001ff6d01d        0x3 
 .sbss.uxDeletedTasksWaitingCleanUp
                0x000000001ff6d020        0x4 C:\TMP\nn_denoise_rtc_sample.elf.UaA6UP.ltrans1.ltrans.o
 .sbss.uxPendedTicks
                0x000000001ff6d024        0x4 C:\TMP\nn_denoise_rtc_sample.elf.UaA6UP.ltrans1.ltrans.o
 .sbss.xBlockAllocatedBit
                0x000000001ff6d028        0x4 C:\TMP\nn_denoise_rtc_sample.elf.UaA6UP.ltrans1.ltrans.o
 .sbss.xFreeBytesRemaining
                0x000000001ff6d02c        0x4 C:\TMP\nn_denoise_rtc_sample.elf.UaA6UP.ltrans1.ltrans.o
 .sbss.xIdleTaskHandle
                0x000000001ff6d030        0x4 C:\TMP\nn_denoise_rtc_sample.elf.UaA6UP.ltrans1.ltrans.o
 .sbss.xLastTime.4367
                0x000000001ff6d034        0x4 C:\TMP\nn_denoise_rtc_sample.elf.UaA6UP.ltrans1.ltrans.o
 .sbss.xMinimumEverFreeBytesRemaining
                0x000000001ff6d038        0x4 C:\TMP\nn_denoise_rtc_sample.elf.UaA6UP.ltrans1.ltrans.o
 .sbss.xNextTaskUnblockTime
                0x000000001ff6d03c        0x4 C:\TMP\nn_denoise_rtc_sample.elf.UaA6UP.ltrans1.ltrans.o
 .sbss.xSpeexPlayStreamBuffer
                0x000000001ff6d040        0x4 C:\TMP\nn_denoise_rtc_sample.elf.UaA6UP.ltrans1.ltrans.o
 .sbss.xSpeexRecordStreamBuffer
                0x000000001ff6d044        0x4 C:\TMP\nn_denoise_rtc_sample.elf.UaA6UP.ltrans1.ltrans.o
 .sbss.xStart   0x000000001ff6d048        0x8 C:\TMP\nn_denoise_rtc_sample.elf.UaA6UP.ltrans1.ltrans.o
 .sbss.xTimerTaskHandle
                0x000000001ff6d050        0x4 C:\TMP\nn_denoise_rtc_sample.elf.UaA6UP.ltrans1.ltrans.o
 .sbss.heapBytesRemaining
                0x000000001ff6d054        0x4 ../../../libs\libnewlib_port.a(sbrk.o)
 .sbss._global_atexit
                0x000000001ff6d058        0x4 d:/software/yuyin/qiqiyinqiluntai/riscv-nuclei-elf-gcc-9.2.0.0/gcc_fix_raissrc/bin/../lib/gcc/riscv-nuclei-elf/9.2.0/../../../../riscv-nuclei-elf/lib/rv32imafc/ilp32f\libg_nano.a(lib_a-__call_atexit.o)
                0x000000001ff6d058                _global_atexit
 .sbss.__malloc_free_list
                0x000000001ff6d05c        0x4 d:/software/yuyin/qiqiyinqiluntai/riscv-nuclei-elf-gcc-9.2.0.0/gcc_fix_raissrc/bin/../lib/gcc/riscv-nuclei-elf/9.2.0/../../../../riscv-nuclei-elf/lib/rv32imafc/ilp32f\libg_nano.a(lib_a-nano-mallocr.o)
                0x000000001ff6d05c                __malloc_free_list
 .sbss.__malloc_sbrk_start
                0x000000001ff6d060        0x4 d:/software/yuyin/qiqiyinqiluntai/riscv-nuclei-elf-gcc-9.2.0.0/gcc_fix_raissrc/bin/../lib/gcc/riscv-nuclei-elf/9.2.0/../../../../riscv-nuclei-elf/lib/rv32imafc/ilp32f\libg_nano.a(lib_a-nano-mallocr.o)
                0x000000001ff6d060                __malloc_sbrk_start
 *(.gnu.linkonce.sb.*)
 *(.bss .bss.*)
 .bss.cinv_mang_r.lto_priv.0
                0x000000001ff6d064        0xc C:\TMP\nn_denoise_rtc_sample.elf.UaA6UP.ltrans0.ltrans.o
                0x000000001ff6d064                cinv_mang_r.lto_priv.0
 .bss.cinv_rd_io_buf.lto_priv.0
                0x000000001ff6d070      0x100 C:\TMP\nn_denoise_rtc_sample.elf.UaA6UP.ltrans0.ltrans.o
                0x000000001ff6d070                cinv_rd_io_buf.lto_priv.0
 .bss.cinv_wr_io_buf.lto_priv.0
                0x000000001ff6d170      0x100 C:\TMP\nn_denoise_rtc_sample.elf.UaA6UP.ltrans0.ltrans.o
                0x000000001ff6d170                cinv_wr_io_buf.lto_priv.0
 .bss.cm.lto_priv.0
                0x000000001ff6d270      0x554 C:\TMP\nn_denoise_rtc_sample.elf.UaA6UP.ltrans0.ltrans.o
                0x000000001ff6d270                cm.lto_priv.0
 .bss.cmd_info_variable
                0x000000001ff6d7c4       0x34 C:\TMP\nn_denoise_rtc_sample.elf.UaA6UP.ltrans0.ltrans.o
                0x000000001ff6d7c4                cmd_info_variable
 .bss.eq_gain_str
                0x000000001ff6d7f8       0x28 C:\TMP\nn_denoise_rtc_sample.elf.UaA6UP.ltrans0.ltrans.o
 .bss.g_model_parameter_info
                0x000000001ff6d820       0x1c C:\TMP\nn_denoise_rtc_sample.elf.UaA6UP.ltrans0.ltrans.o
 .bss.init_eq_drc_val
                0x000000001ff6d83c       0x44 C:\TMP\nn_denoise_rtc_sample.elf.UaA6UP.ltrans0.ltrans.o
                0x000000001ff6d83c                init_eq_drc_val
 .bss.nuclear_com_serve_irq_cal
                0x000000001ff6d880       0x24 C:\TMP\nn_denoise_rtc_sample.elf.UaA6UP.ltrans0.ltrans.o
                0x000000001ff6d880                nuclear_com_serve_irq_cal
 .bss.pxReadyTasksLists.lto_priv.0
                0x000000001ff6d8a4       0x78 C:\TMP\nn_denoise_rtc_sample.elf.UaA6UP.ltrans0.ltrans.o
                0x000000001ff6d8a4                pxReadyTasksLists.lto_priv.0
 .bss.rcv_ifft_data_msg
                0x000000001ff6d91c      0x2bc C:\TMP\nn_denoise_rtc_sample.elf.UaA6UP.ltrans0.ltrans.o
                0x000000001ff6d91c                rcv_ifft_data_msg
 .bss.remote_call_module
                0x000000001ff6dbd8       0x5c C:\TMP\nn_denoise_rtc_sample.elf.UaA6UP.ltrans0.ltrans.o
                0x000000001ff6dbd8                remote_call_module
 .bss.send_ifft_data_msg
                0x000000001ff6dc34      0x2bc C:\TMP\nn_denoise_rtc_sample.elf.UaA6UP.ltrans0.ltrans.o
 .bss.speexOutDecFrame
                0x000000001ff6def0      0x280 C:\TMP\nn_denoise_rtc_sample.elf.UaA6UP.ltrans0.ltrans.o
                0x000000001ff6def0                speexOutDecFrame
 .bss.speex_dst_addr
                0x000000001ff6e170       0x40 C:\TMP\nn_denoise_rtc_sample.elf.UaA6UP.ltrans0.ltrans.o
                0x000000001ff6e170                speex_dst_addr
 .bss.speex_rx_temp
                0x000000001ff6e1b0      0x280 C:\TMP\nn_denoise_rtc_sample.elf.UaA6UP.ltrans0.ltrans.o
                0x000000001ff6e1b0                speex_rx_temp
 .bss.xDelayedTaskList1.5214
                0x000000001ff6e430       0x14 C:\TMP\nn_denoise_rtc_sample.elf.UaA6UP.ltrans0.ltrans.o
 .bss.xDelayedTaskList2.5215
                0x000000001ff6e444       0x14 C:\TMP\nn_denoise_rtc_sample.elf.UaA6UP.ltrans0.ltrans.o
 .bss.xPendingReadyList.lto_priv.0
                0x000000001ff6e458       0x14 C:\TMP\nn_denoise_rtc_sample.elf.UaA6UP.ltrans0.ltrans.o
                0x000000001ff6e458                xPendingReadyList.lto_priv.0
 .bss.xSuspendedTaskList.lto_priv.0
                0x000000001ff6e46c       0x14 C:\TMP\nn_denoise_rtc_sample.elf.UaA6UP.ltrans0.ltrans.o
                0x000000001ff6e46c                xSuspendedTaskList.lto_priv.0
 .bss.xTasksWaitingTermination.lto_priv.0
                0x000000001ff6e480       0x14 C:\TMP\nn_denoise_rtc_sample.elf.UaA6UP.ltrans0.ltrans.o
                0x000000001ff6e480                xTasksWaitingTermination.lto_priv.0
 .bss.cias_speex_wb_mode
                0x000000001ff6e494       0x34 C:\TMP\nn_denoise_rtc_sample.elf.UaA6UP.ltrans1.ltrans.o
 .bss.cmd_file_header
                0x000000001ff6e4c8       0x19 C:\TMP\nn_denoise_rtc_sample.elf.UaA6UP.ltrans1.ltrans.o
 *fill*         0x000000001ff6e4e1        0x3 
 .bss.g_audio_rx_temp
                0x000000001ff6e4e4       0x2b C:\TMP\nn_denoise_rtc_sample.elf.UaA6UP.ltrans1.ltrans.o
 *fill*         0x000000001ff6e50f        0x1 
 .bss.g_gpio_callback_list_root
                0x000000001ff6e510       0x30 C:\TMP\nn_denoise_rtc_sample.elf.UaA6UP.ltrans1.ltrans.o
 .bss.iic0_status
                0x000000001ff6e540       0x28 C:\TMP\nn_denoise_rtc_sample.elf.UaA6UP.ltrans1.ltrans.o
 .bss.model_header
                0x000000001ff6e568       0x1c C:\TMP\nn_denoise_rtc_sample.elf.UaA6UP.ltrans1.ltrans.o
 .bss.partition_table
                0x000000001ff6e584      0x116 C:\TMP\nn_denoise_rtc_sample.elf.UaA6UP.ltrans1.ltrans.o
 *fill*         0x000000001ff6e69a        0x2 
 .bss.printk_string
                0x000000001ff6e69c      0x200 C:\TMP\nn_denoise_rtc_sample.elf.UaA6UP.ltrans1.ltrans.o
 .bss.recv_pcm_buf
                0x000000001ff6e89c       0x2b C:\TMP\nn_denoise_rtc_sample.elf.UaA6UP.ltrans1.ltrans.o
 *fill*         0x000000001ff6e8c7        0x1 
 .bss.sg_init_tmp_str
                0x000000001ff6e8c8       0x14 C:\TMP\nn_denoise_rtc_sample.elf.UaA6UP.ltrans1.ltrans.o
 .bss.speex_play_data
                0x000000001ff6e8dc      0x200 C:\TMP\nn_denoise_rtc_sample.elf.UaA6UP.ltrans1.ltrans.o
 .bss.speex_play_temp
                0x000000001ff6eadc      0x200 C:\TMP\nn_denoise_rtc_sample.elf.UaA6UP.ltrans1.ltrans.o
 .bss.xActiveTimerList1.4413
                0x000000001ff6ecdc       0x14 C:\TMP\nn_denoise_rtc_sample.elf.UaA6UP.ltrans1.ltrans.o
 .bss.xActiveTimerList2.4414
                0x000000001ff6ecf0       0x14 C:\TMP\nn_denoise_rtc_sample.elf.UaA6UP.ltrans1.ltrans.o
 .bss.xQueueRegistry
                0x000000001ff6ed04       0x50 C:\TMP\nn_denoise_rtc_sample.elf.UaA6UP.ltrans1.ltrans.o
 .bss.xdata     0x000000001ff6ed54       0x10 C:\TMP\nn_denoise_rtc_sample.elf.UaA6UP.ltrans1.ltrans.o
 .bss._global_atexit0
                0x000000001ff6ed64       0x8c d:/software/yuyin/qiqiyinqiluntai/riscv-nuclei-elf-gcc-9.2.0.0/gcc_fix_raissrc/bin/../lib/gcc/riscv-nuclei-elf/9.2.0/../../../../riscv-nuclei-elf/lib/rv32imafc/ilp32f\libg_nano.a(lib_a-__atexit.o)
 *(.gnu.linkonce.b.*)
 *(COMMON)
 COMMON         0x000000001ff6edf0        0x4 d:/software/yuyin/qiqiyinqiluntai/riscv-nuclei-elf-gcc-9.2.0.0/gcc_fix_raissrc/bin/../lib/gcc/riscv-nuclei-elf/9.2.0/../../../../riscv-nuclei-elf/lib/rv32imafc/ilp32f\libg_nano.a(lib_a-reent.o)
                0x000000001ff6edf0                errno
                0x000000001ff6edf4                . = ALIGN (0x4)
                0x000000001ff6edf8                . = ALIGN (0x8)
                0x000000001ff6edf8                PROVIDE (__bss_end = .)

.no_init        0x000000001ff6edf4        0x0
 *(.no_init)
                0x000000001ff6edf4                . = ALIGN (0x4)
                0x000000001ff6edf8                . = ALIGN (0x8)
                [!provide]                        PROVIDE (_end = .)
                [!provide]                        PROVIDE (end = .)

.stack          0x000000001ff6edf4      0xc00
                0x0000000000000c00                . = __stack_size
 *fill*         0x000000001ff6edf4      0xc00 
                0x000000001ff6f9f4                PROVIDE (_sp = .)

.sys_heap       0x000000001ff6f9f4    0x37000
                0x000000001ff6f9f4                PROVIDE (__FREERTOSHEAP_START = .)
                0x0000000000037000                . = SYS_HEAP_SIZE
 *fill*         0x000000001ff6f9f4    0x37000 
                0x000000001ffa69f4                PROVIDE (__FREERTOSHEAP_END = .)

.heap_start     0x000000001ffa69f4        0x0
                0x000000001ffa69f4                PROVIDE (heap_start = .)

.heap_end       0x000000001ffd8000        0x0 load address 0x000000001ffa69f4
                0x000000001ffd8000                PROVIDE (heap_end = .)
                0x000000001ffd8000                PROVIDE (__befor_os_int_sp = .)
                0x000000001ff51000                START_ADDR = SRAM_START_ADDR
                0x0000000000000000                LOAD_TYPE = 0x0
                0x0000000000000000                ITCM_EN = 0x0
                0x0000000000000000                STCM_EN = 0x0
                0x0000000000000000                ICACHE_EN = 0x0
                0x00000000ffffffff                ICACHE_START_ADDR = 0xffffffff
                0x00000000ffffffff                ICACHE_END_ADDR = 0xffffffff
                0x00000000ffffffff                ICACHE_ALIAS_ADDR = 0xffffffff
                0x0000000000000000                SCACHE_EN = 0x0
                0x00000000ffffffff                SCACHE_START_ADDR = 0xffffffff
                0x00000000ffffffff                SCACHE_END_ADDR = 0xffffffff
                0x00000000ffffffff                SCACHE_ALIAS_ADDR = 0xffffffff
OUTPUT(build/nn_denoise_rtc_sample.elf elf32-littleriscv)

.debug_info     0x0000000000000000    0x8b521
 .debug_info    0x0000000000000000     0xb38c C:\TMP\nn_denoise_rtc_sample.elf.UaA6UP.ltrans0.ltrans.o
 .debug_info    0x000000000000b38c     0xc4cd C:\TMP\nn_denoise_rtc_sample.elf.UaA6UP.ltrans1.ltrans.o
 .debug_info    0x0000000000017859     0x134b C:\TMP\cctaoPDg.debug.temp.o
                0x0000000000017859                ci130x_init.c.6e018bb6
 .debug_info    0x0000000000018ba4      0xa68 C:\TMP\ccCToAL5.debug.temp.o
                0x0000000000018ba4                ci130x_it.c.fb3b90f9
 .debug_info    0x000000000001960c      0xa03 C:\TMP\ccz04okV.debug.temp.o
                0x000000000001960c                ci130x_system.c.a257a226
 .debug_info    0x000000000001a00f     0x16f1 C:\TMP\cc6vsEGK.debug.temp.o
                0x000000000001a00f                platform_config.c.f199f23f
 .debug_info    0x000000000001b700      0xff7 C:\TMP\ccjlrN7y.debug.temp.o
                0x000000000001b700                ci130x_handlers.c.e5382d6e
 .debug_info    0x000000000001c6f7      0x443 C:\TMP\ccXGdyWc.debug.temp.o
                0x000000000001c6f7                debug_time_consuming.c.d1f9fad3
 .debug_info    0x000000000001cb3a      0xf14 C:\TMP\ccFAmeNP.debug.temp.o
                0x000000000001cb3a                event_groups.c.0febf416
 .debug_info    0x000000000001da4e      0xb24 C:\TMP\ccKRTuHD.debug.temp.o
                0x000000000001da4e                list.c.5f578c3c
 .debug_info    0x000000000001e572     0x1eb3 C:\TMP\ccBXiG2r.debug.temp.o
                0x000000000001e572                queue.c.f18a4fd5
 .debug_info    0x0000000000020425     0x1b1b C:\TMP\ccs58sqf.debug.temp.o
                0x0000000000020425                stream_buffer.c.c4f2ce7e
 .debug_info    0x0000000000021f40     0x2697 C:\TMP\ccHdpmJ2.debug.temp.o
                0x0000000000021f40                tasks.c.0d00e57e
 .debug_info    0x00000000000245d7     0x1285 C:\TMP\ccKJkjtQ.debug.temp.o
                0x00000000000245d7                timers.c.f1c7be6b
 .debug_info    0x000000000002585c     0x1463 C:\TMP\ccn4Qw8D.debug.temp.o
                0x000000000002585c                heap_4.c.863491fb
 .debug_info    0x0000000000026cbf     0x144b C:\TMP\ccmasFKv.debug.temp.o
                0x0000000000026cbf                ci_log.c.655e247d
 .debug_info    0x000000000002810a      0x946 C:\TMP\ccTZ3wdn.debug.temp.o
                0x000000000002810a                ota_aes.c.c132bd4f
 .debug_info    0x0000000000028a50      0xeb6 C:\TMP\ccggCs7e.debug.temp.o
                0x0000000000028a50                ota_partition_verify.c.bd720ae6
 .debug_info    0x0000000000029906      0xbb7 C:\TMP\ccWkJizX.debug.temp.o
                0x0000000000029906                UARTCommandConsole.c.5489ef27
 .debug_info    0x000000000002a4bd      0xc8d C:\TMP\ccivKHaE.debug.temp.o
                0x000000000002a4bd                Sample_CLI_commands.c.4c5124f3
 .debug_info    0x000000000002b14a     0x1e69 C:\TMP\cc10euNu.debug.temp.o
                0x000000000002b14a                ci_flash_data_info.c.ba0bcba8
 .debug_info    0x000000000002cfb3      0xd56 C:\TMP\ccigKZgl.debug.temp.o
                0x000000000002cfb3                flash_control_inner_port.c.14ce43fc
 .debug_info    0x000000000002dd09     0x179a C:\TMP\ccR44K0a.debug.temp.o
                0x000000000002dd09                audio_play_api.c.04189af3
 .debug_info    0x000000000002f4a3     0x218e C:\TMP\ccYCqfB0.debug.temp.o
                0x000000000002f4a3                audio_play_decoder.c.cfe95bd1
 .debug_info    0x0000000000031631     0x215f C:\TMP\ccHMzaHQ.debug.temp.o
                0x0000000000031631                audio_play_process.c.07a6607e
 .debug_info    0x0000000000033790     0x15f2 C:\TMP\ccDnfoxA.debug.temp.o
                0x0000000000033790                audio_play_device.c.52688dd9
 .debug_info    0x0000000000034d82      0xb00 C:\TMP\ccawFlHQ.debug.temp.o
                0x0000000000034d82                flacdecoder.c.21a6ec45
 .debug_info    0x0000000000035882      0xe93 C:\TMP\ccA627dC.debug.temp.o
                0x0000000000035882                status_share.c.847ef70e
 .debug_info    0x0000000000036715     0x1dcd C:\TMP\ccJhqD3u.debug.temp.o
                0x0000000000036715                ci_nvdata_manage.c.a51a3e76
 .debug_info    0x00000000000384e2      0xb22 C:\TMP\ccwryuXn.debug.temp.o
                0x00000000000384e2                ci_nvdata_port.c.6805ad1d
 .debug_info    0x0000000000039004     0x168a C:\TMP\ccDJjK7f.debug.temp.o
                0x0000000000039004                command_file_reader.c.7792315e
 .debug_info    0x000000000003a68e     0x1b79 C:\TMP\ccgciA87.debug.temp.o
                0x000000000003a68e                command_info.c.df02c128
 .debug_info    0x000000000003c207     0x1226 C:\TMP\ccH2VtA0.debug.temp.o
                0x000000000003c207                prompt_player.c.f1a2ac58
 .debug_info    0x000000000003d42d     0x1329 C:\TMP\ccGCA6SS.debug.temp.o
                0x000000000003d42d                audio_in_manage_inner.c.cb7b4d15
 .debug_info    0x000000000003e756      0xe48 C:\TMP\cc1XjE8O.debug.temp.o
                0x000000000003e756                ci_key.c.997e3131
 .debug_info    0x000000000003f59e      0x9c1 C:\TMP\ccU23UeL.debug.temp.o
                0x000000000003f59e                asr_malloc_port.c.1f294369
 .debug_info    0x000000000003ff5f     0x2412 C:\TMP\ccjNAsDy.debug.temp.o
                0x000000000003ff5f                codec_manager.c.b241ff4a
 .debug_info    0x0000000000042371      0xe91 C:\TMP\ccmVTzzu.debug.temp.o
                0x0000000000042371                codec_manage_inner_port.c.705159ca
 .debug_info    0x0000000000043202     0x20c1 C:\TMP\ccdkiSng.debug.temp.o
                0x0000000000043202                voice_module_uart_protocol.c.95e2d36a
 .debug_info    0x00000000000452c3      0xc8b C:\TMP\cckcO8Mb.debug.temp.o
                0x00000000000452c3                color_light_control.c.2f41573e
 .debug_info    0x0000000000045f4e     0x152b C:\TMP\ccaOP0u1.debug.temp.o
                0x0000000000045f4e                ci130x_audio_pre_rslt_out.c.dcf60597
 .debug_info    0x0000000000047479      0xf68 C:\TMP\ccRu4BNV.debug.temp.o
                0x0000000000047479                ci130x_core_eclic.c.bb8277bd
 .debug_info    0x00000000000483e1      0xafe C:\TMP\cc8Hw6wQ.debug.temp.o
                0x00000000000483e1                ci130x_core_timer.c.10c90f8e
 .debug_info    0x0000000000048edf     0x1870 C:\TMP\ccfcoYkL.debug.temp.o
                0x0000000000048edf                ci130x_dma.c.3905f0a9
 .debug_info    0x000000000004a74f     0x1d7c C:\TMP\ccWsxzZF.debug.temp.o
                0x000000000004a74f                ci130x_codec.c.ec678948
 .debug_info    0x000000000004c4cb      0xaed C:\TMP\ccVjmDWB.debug.temp.o
                0x000000000004c4cb                ci130x_iisdma.c.a57e4bba
 .debug_info    0x000000000004cfb8      0xa8d C:\TMP\ccQDtwGA.debug.temp.o
                0x000000000004cfb8                ci130x_core_misc.c.718191a2
 .debug_info    0x000000000004da45     0x1a0d C:\TMP\ccfPOqCy.debug.temp.o
                0x000000000004da45                ci130x_iis.c.d5b35c43
 .debug_info    0x000000000004f452      0x7af C:\TMP\ccceEVow.debug.temp.o
                0x000000000004f452                ci130x_adc.c.9c2fee5f
 .debug_info    0x000000000004fc01      0xf8e C:\TMP\ccTUAtCu.debug.temp.o
                0x000000000004fc01                ci130x_gpio.c.e7216020
 .debug_info    0x0000000000050b8f     0x17fd C:\TMP\ccaoPKGs.debug.temp.o
                0x0000000000050b8f                ci130x_iic.c.879da360
 .debug_info    0x000000000005238c     0x13da C:\TMP\ccdBoBTk.debug.temp.o
                0x000000000005238c                ci130x_uart.c.02bb07ee
 .debug_info    0x0000000000053766      0xe35 C:\TMP\cc067PEi.debug.temp.o
                0x0000000000053766                ci130x_lowpower.c.96cd64e9
 .debug_info    0x000000000005459b      0xafa C:\TMP\ccvzWhcg.debug.temp.o
                0x000000000005459b                ci130x_iwdg.c.e2dc3a45
 .debug_info    0x0000000000055095     0x1638 C:\TMP\ccOUr2k7.debug.temp.o
                0x0000000000055095                board.c.3b8909cb
 .debug_info    0x00000000000566cd      0xbd6 C:\TMP\ccX3Lwq4.debug.temp.o
                0x00000000000566cd                board_default.c.600cf7b2
 .debug_info    0x00000000000572a3       0xcd C:\TMP\ccEW6Jm1.debug.temp.o
                0x00000000000572a3                dichotomy_find.c.75a3f266
 .debug_info    0x0000000000057370      0x208 C:\TMP\ccJ9j1f2.debug.temp.o
                0x0000000000057370                crc.c.6488d178
 .debug_info    0x0000000000057578     0x121c C:\TMP\ccEDWFd3.debug.temp.o
                0x0000000000057578                main.c.495db971
 .debug_info    0x0000000000058794     0x1c86 C:\TMP\cc5LZvX3.debug.temp.o
                0x0000000000058794                iis0_sample.c.0694f8ef
 .debug_info    0x000000000005a41a     0x25da C:\TMP\cc1mzK95.debug.temp.o
                0x000000000005a41a                system_msg_deal.c.d298da52
 .debug_info    0x000000000005c9f4     0x1227 C:\TMP\ccCkUBf7.debug.temp.o
                0x000000000005c9f4                user_msg_deal.c.0f11b786
 .debug_info    0x000000000005dc1b     0x107e C:\TMP\ccxqSRB7.debug.temp.o
                0x000000000005dc1b                ci_ssp_config.c.d56c3d7e
 .debug_info    0x000000000005ec99     0x1bfb C:\TMP\cc8pEkK7.debug.temp.o
                0x000000000005ec99                ci_uart_audio_data_handle.c.f1cf21e1
 .debug_info    0x0000000000060894     0x11c7 C:\TMP\ccjYWdo8.debug.temp.o
                0x0000000000060894                ci_uart_eq_param.c.4af1fef3
 .debug_info    0x0000000000061a5b      0xea9 C:\TMP\cc6lOQS8.debug.temp.o
                0x0000000000061a5b                bits.c.72a86efb
 .debug_info    0x0000000000062904     0x12c9 C:\TMP\ccdSiSD8.debug.temp.o
                0x0000000000062904                cb_search.c.ed8fbe44
 .debug_info    0x0000000000063bcd       0x53 C:\TMP\ccOvJtf8.debug.temp.o
                0x0000000000063bcd                exc_5_64_table.c.c07d399a
 .debug_info    0x0000000000063c20       0x53 C:\TMP\ccfCpGm8.debug.temp.o
                0x0000000000063c20                exc_5_256_table.c.e55b8924
 .debug_info    0x0000000000063c73       0x53 C:\TMP\cciyECk8.debug.temp.o
                0x0000000000063c73                exc_8_128_table.c.c8347ff2
 .debug_info    0x0000000000063cc6       0x52 C:\TMP\ccNMjru7.debug.temp.o
                0x0000000000063cc6                exc_10_16_table.c.5b155625
 .debug_info    0x0000000000063d18       0x53 C:\TMP\ccOHIYu6.debug.temp.o
                0x0000000000063d18                exc_10_32_table.c.e5e52eba
 .debug_info    0x0000000000063d6b       0x53 C:\TMP\ccHWNTz5.debug.temp.o
                0x0000000000063d6b                exc_20_32_table.c.ec721104
 .debug_info    0x0000000000063dbe     0x146c C:\TMP\cckt0R54.debug.temp.o
                0x0000000000063dbe                filters.c.c570380c
 .debug_info    0x000000000006522a       0x53 C:\TMP\ccxgYqs4.debug.temp.o
                0x000000000006522a                gain_table.c.e737433f
 .debug_info    0x000000000006527d       0x52 C:\TMP\cci7oGH7.debug.temp.o
                0x000000000006527d                gain_table_lbr.c.67f5990f
 .debug_info    0x00000000000652cf       0x53 C:\TMP\ccN1xXNa.debug.temp.o
                0x00000000000652cf                hexc_10_32_table.c.c5347ecc
 .debug_info    0x0000000000065322       0x53 C:\TMP\ccY7fhle.debug.temp.o
                0x0000000000065322                hexc_table.c.e2b9a1b5
 .debug_info    0x0000000000065375       0x5f C:\TMP\ccZunYWh.debug.temp.o
                0x0000000000065375                high_lsp_tables.c.11e6c06c
 .debug_info    0x00000000000653d4     0x10f5 C:\TMP\ccIk60kl.debug.temp.o
                0x00000000000653d4                kiss_fft.c.e3dc0e04
 .debug_info    0x00000000000664c9      0x175 C:\TMP\ccCYp8Hq.debug.temp.o
                0x00000000000664c9                lpc.c.9a498074
 .debug_info    0x000000000006663e      0xd00 C:\TMP\ccb7Y9ct.debug.temp.o
                0x000000000006663e                lsp.c.4a968305
 .debug_info    0x000000000006733e       0x9a C:\TMP\ccoejxMv.debug.temp.o
                0x000000000006733e                lsp_tables_nb.c.28022414
 .debug_info    0x00000000000673d8     0x153a C:\TMP\ccnavPMy.debug.temp.o
                0x00000000000673d8                ltp.c.785809d4
 .debug_info    0x0000000000068912     0x1324 C:\TMP\ccUPHQDB.debug.temp.o
                0x0000000000068912                modes.c.84ba90f2
 .debug_info    0x0000000000069c36     0x129c C:\TMP\ccJAggLD.debug.temp.o
                0x0000000000069c36                modes_wb.c.8afc08d6
 .debug_info    0x000000000006aed2     0x21c7 C:\TMP\ccilbTEF.debug.temp.o
                0x000000000006aed2                nb_celp.c.16a5a94c
 .debug_info    0x000000000006d099      0xe20 C:\TMP\ccFjeTCH.debug.temp.o
                0x000000000006d099                quant_lsp.c.ad2e9f09
 .debug_info    0x000000000006deb9     0x1d2e C:\TMP\ccSIdX1J.debug.temp.o
                0x000000000006deb9                sb_celp.c.6ece58b8
 .debug_info    0x000000000006fbe7     0x1363 C:\TMP\ccUmTSEN.debug.temp.o
                0x000000000006fbe7                speex.c.888e6c53
 .debug_info    0x0000000000070f4a      0xec7 C:\TMP\ccV1rVaP.debug.temp.o
                0x0000000000070f4a                speex_callbacks.c.7f6c06e3
 .debug_info    0x0000000000071e11      0x294 C:\TMP\ccP8RQsZ.debug.temp.o
                0x0000000000071e11                vq.c.ee7dc756
 .debug_info    0x00000000000720a5       0xbe C:\TMP\ccay3R84.debug.temp.o
                0x00000000000720a5                window.c.d37ff0d0
 .debug_info    0x0000000000072163     0x10a0 C:\TMP\ccbR25Aa.debug.temp.o
                0x0000000000072163                ci110x_speex.c.2f3f163b
 .debug_info    0x0000000000073203     0x151b C:\TMP\cc2AYnug.debug.temp.o
                0x0000000000073203                asr_top_outside_port.c.2e466c91
 .debug_info    0x000000000007471e     0x110d C:\TMP\ccr4Uoem.debug.temp.o
                0x000000000007471e                decoder_inner_port_rpmsg.c.b310a49b
 .debug_info    0x000000000007582b     0x34a2 C:\TMP\cc86GFer.debug.temp.o
                0x000000000007582b                decoder_manage.c.760e2675
 .debug_info    0x0000000000078ccd      0x1b4 C:\TMP\cclQcF5v.debug.temp.o
                0x0000000000078ccd                dynmic_confidence.c.9bb26918
 .debug_info    0x0000000000078e81      0xfbb C:\TMP\ccoQ710A.debug.temp.o
                0x0000000000078e81                dnn_outside_port.c.c37167a0
 .debug_info    0x0000000000079e3c     0x12c0 C:\TMP\cchhZsnG.debug.temp.o
                0x0000000000079e3c                flash_manage_outside_port.c.b48baff3
 .debug_info    0x000000000007b0fc      0xeb2 C:\TMP\ccMFLQQK.debug.temp.o
                0x000000000007b0fc                vad_fe_outside_port.c.04b8d3a2
 .debug_info    0x000000000007bfae     0x14a2 C:\TMP\cc73bCxY.debug.temp.o
                0x000000000007bfae                cmp_twice_confidence.c.9e6ca063
 .debug_info    0x000000000007d450      0xf6d C:\TMP\cc1ZuUu6.debug.temp.o
                0x000000000007d450                port.c.4d161114
 .debug_info    0x000000000007e3bd      0x9af C:\TMP\ccAAaiva.debug.temp.o
                0x000000000007e3bd                ci130x_dsu.c.25c59ad6
 .debug_info    0x000000000007ed6c      0xdcc C:\TMP\ccxvIJsi.debug.temp.o
                0x000000000007ed6c                ci130x_mailbox.c.3231987c
 .debug_info    0x000000000007fb38     0x136f C:\TMP\cc4eRrlq.debug.temp.o
                0x000000000007fb38                ci130x_scu.c.3fdfa867
 .debug_info    0x0000000000080ea7      0x395 C:\TMP\ccpQ84Ey.debug.temp.o
                0x0000000000080ea7                ci130x_efuse.c.7f29a68f
 .debug_info    0x000000000008123c     0x1355 C:\TMP\cckeIrPG.debug.temp.o
                0x000000000008123c                ci130x_dpmu.c.785f8ec3
 .debug_info    0x0000000000082591     0x1126 C:\TMP\ccxHDcgO.debug.temp.o
                0x0000000000082591                ci130x_nuclear_com.c.93f914cc
 .debug_info    0x00000000000836b7     0x179e C:\TMP\ccglMxxV.debug.temp.o
                0x00000000000836b7                remote_api_for_host.c.45421faa
 .debug_info    0x0000000000084e55       0x26 build/objs/ci130x_startup.o
 .debug_info    0x0000000000084e7b     0x1f7f ../../../libs\libnewlib_port.a(sbrk.o)
 .debug_info    0x0000000000086dfa       0x26 ../../../libs\libfreertos_port.a(portasm.o)
 .debug_info    0x0000000000086e20       0x26 d:/software/yuyin/qiqiyinqiluntai/riscv-nuclei-elf-gcc-9.2.0.0/gcc_fix_raissrc/bin/../lib/gcc/riscv-nuclei-elf/9.2.0/rv32imafc/ilp32f\libgcc.a(save-restore.o)
 .debug_info    0x0000000000086e46      0x5e4 d:/software/yuyin/qiqiyinqiluntai/riscv-nuclei-elf-gcc-9.2.0.0/gcc_fix_raissrc/bin/../lib/gcc/riscv-nuclei-elf/9.2.0/rv32imafc/ilp32f\libgcc.a(adddf3.o)
 .debug_info    0x000000000008742a      0x76f d:/software/yuyin/qiqiyinqiluntai/riscv-nuclei-elf-gcc-9.2.0.0/gcc_fix_raissrc/bin/../lib/gcc/riscv-nuclei-elf/9.2.0/rv32imafc/ilp32f\libgcc.a(divdf3.o)
 .debug_info    0x0000000000087b99      0x2a1 d:/software/yuyin/qiqiyinqiluntai/riscv-nuclei-elf-gcc-9.2.0.0/gcc_fix_raissrc/bin/../lib/gcc/riscv-nuclei-elf/9.2.0/rv32imafc/ilp32f\libgcc.a(eqdf2.o)
 .debug_info    0x0000000000087e3a      0x28c d:/software/yuyin/qiqiyinqiluntai/riscv-nuclei-elf-gcc-9.2.0.0/gcc_fix_raissrc/bin/../lib/gcc/riscv-nuclei-elf/9.2.0/rv32imafc/ilp32f\libgcc.a(gedf2.o)
 .debug_info    0x00000000000880c6      0x28c d:/software/yuyin/qiqiyinqiluntai/riscv-nuclei-elf-gcc-9.2.0.0/gcc_fix_raissrc/bin/../lib/gcc/riscv-nuclei-elf/9.2.0/rv32imafc/ilp32f\libgcc.a(ledf2.o)
 .debug_info    0x0000000000088352      0x79b d:/software/yuyin/qiqiyinqiluntai/riscv-nuclei-elf-gcc-9.2.0.0/gcc_fix_raissrc/bin/../lib/gcc/riscv-nuclei-elf/9.2.0/rv32imafc/ilp32f\libgcc.a(muldf3.o)
 .debug_info    0x0000000000088aed      0x5e4 d:/software/yuyin/qiqiyinqiluntai/riscv-nuclei-elf-gcc-9.2.0.0/gcc_fix_raissrc/bin/../lib/gcc/riscv-nuclei-elf/9.2.0/rv32imafc/ilp32f\libgcc.a(subdf3.o)
 .debug_info    0x00000000000890d1      0x294 d:/software/yuyin/qiqiyinqiluntai/riscv-nuclei-elf-gcc-9.2.0.0/gcc_fix_raissrc/bin/../lib/gcc/riscv-nuclei-elf/9.2.0/rv32imafc/ilp32f\libgcc.a(unorddf2.o)
 .debug_info    0x0000000000089365      0x21d d:/software/yuyin/qiqiyinqiluntai/riscv-nuclei-elf-gcc-9.2.0.0/gcc_fix_raissrc/bin/../lib/gcc/riscv-nuclei-elf/9.2.0/rv32imafc/ilp32f\libgcc.a(fixdfsi.o)
 .debug_info    0x0000000000089582      0x2bc d:/software/yuyin/qiqiyinqiluntai/riscv-nuclei-elf-gcc-9.2.0.0/gcc_fix_raissrc/bin/../lib/gcc/riscv-nuclei-elf/9.2.0/rv32imafc/ilp32f\libgcc.a(floatsidf.o)
 .debug_info    0x000000000008983e      0x2af d:/software/yuyin/qiqiyinqiluntai/riscv-nuclei-elf-gcc-9.2.0.0/gcc_fix_raissrc/bin/../lib/gcc/riscv-nuclei-elf/9.2.0/rv32imafc/ilp32f\libgcc.a(extendsfdf2.o)
 .debug_info    0x0000000000089aed      0x2f3 d:/software/yuyin/qiqiyinqiluntai/riscv-nuclei-elf-gcc-9.2.0.0/gcc_fix_raissrc/bin/../lib/gcc/riscv-nuclei-elf/9.2.0/rv32imafc/ilp32f\libgcc.a(truncdfsf2.o)
 .debug_info    0x0000000000089de0      0xbd7 d:/software/yuyin/qiqiyinqiluntai/riscv-nuclei-elf-gcc-9.2.0.0/gcc_fix_raissrc/bin/../lib/gcc/riscv-nuclei-elf/9.2.0/rv32imafc/ilp32f\libgcc.a(_clzsi2.o)
 .debug_info    0x000000000008a9b7      0xb6a d:/software/yuyin/qiqiyinqiluntai/riscv-nuclei-elf-gcc-9.2.0.0/gcc_fix_raissrc/bin/../lib/gcc/riscv-nuclei-elf/9.2.0/rv32imafc/ilp32f\libgcc.a(_clz.o)

.debug_abbrev   0x0000000000000000    0x1162d
 .debug_abbrev  0x0000000000000000      0x35e C:\TMP\nn_denoise_rtc_sample.elf.UaA6UP.ltrans0.ltrans.o
 .debug_abbrev  0x000000000000035e      0x29e C:\TMP\nn_denoise_rtc_sample.elf.UaA6UP.ltrans1.ltrans.o
 .debug_abbrev  0x00000000000005fc      0x2b7 C:\TMP\cctaoPDg.debug.temp.o
 .debug_abbrev  0x00000000000008b3      0x1e9 C:\TMP\ccCToAL5.debug.temp.o
 .debug_abbrev  0x0000000000000a9c      0x1ec C:\TMP\ccz04okV.debug.temp.o
 .debug_abbrev  0x0000000000000c88      0x331 C:\TMP\cc6vsEGK.debug.temp.o
 .debug_abbrev  0x0000000000000fb9      0x266 C:\TMP\ccjlrN7y.debug.temp.o
 .debug_abbrev  0x000000000000121f      0x125 C:\TMP\ccXGdyWc.debug.temp.o
 .debug_abbrev  0x0000000000001344      0x25c C:\TMP\ccFAmeNP.debug.temp.o
 .debug_abbrev  0x00000000000015a0      0x20f C:\TMP\ccKRTuHD.debug.temp.o
 .debug_abbrev  0x00000000000017af      0x2ab C:\TMP\ccBXiG2r.debug.temp.o
 .debug_abbrev  0x0000000000001a5a      0x2b5 C:\TMP\ccs58sqf.debug.temp.o
 .debug_abbrev  0x0000000000001d0f      0x2e2 C:\TMP\ccHdpmJ2.debug.temp.o
 .debug_abbrev  0x0000000000001ff1      0x25c C:\TMP\ccKJkjtQ.debug.temp.o
 .debug_abbrev  0x000000000000224d      0x2d6 C:\TMP\ccn4Qw8D.debug.temp.o
 .debug_abbrev  0x0000000000002523      0x2ba C:\TMP\ccmasFKv.debug.temp.o
 .debug_abbrev  0x00000000000027dd      0x1d5 C:\TMP\ccTZ3wdn.debug.temp.o
 .debug_abbrev  0x00000000000029b2      0x26d C:\TMP\ccggCs7e.debug.temp.o
 .debug_abbrev  0x0000000000002c1f      0x27e C:\TMP\ccWkJizX.debug.temp.o
 .debug_abbrev  0x0000000000002e9d      0x265 C:\TMP\ccivKHaE.debug.temp.o
 .debug_abbrev  0x0000000000003102      0x353 C:\TMP\cc10euNu.debug.temp.o
 .debug_abbrev  0x0000000000003455      0x26a C:\TMP\ccigKZgl.debug.temp.o
 .debug_abbrev  0x00000000000036bf      0x30f C:\TMP\ccR44K0a.debug.temp.o
 .debug_abbrev  0x00000000000039ce      0x2fa C:\TMP\ccYCqfB0.debug.temp.o
 .debug_abbrev  0x0000000000003cc8      0x377 C:\TMP\ccHMzaHQ.debug.temp.o
 .debug_abbrev  0x000000000000403f      0x2db C:\TMP\ccDnfoxA.debug.temp.o
 .debug_abbrev  0x000000000000431a      0x1d6 C:\TMP\ccawFlHQ.debug.temp.o
 .debug_abbrev  0x00000000000044f0      0x274 C:\TMP\ccA627dC.debug.temp.o
 .debug_abbrev  0x0000000000004764      0x352 C:\TMP\ccJhqD3u.debug.temp.o
 .debug_abbrev  0x0000000000004ab6      0x242 C:\TMP\ccwryuXn.debug.temp.o
 .debug_abbrev  0x0000000000004cf8      0x2ce C:\TMP\ccDJjK7f.debug.temp.o
 .debug_abbrev  0x0000000000004fc6      0x310 C:\TMP\ccgciA87.debug.temp.o
 .debug_abbrev  0x00000000000052d6      0x347 C:\TMP\ccH2VtA0.debug.temp.o
 .debug_abbrev  0x000000000000561d      0x308 C:\TMP\ccGCA6SS.debug.temp.o
 .debug_abbrev  0x0000000000005925      0x28f C:\TMP\cc1XjE8O.debug.temp.o
 .debug_abbrev  0x0000000000005bb4      0x22d C:\TMP\ccU23UeL.debug.temp.o
 .debug_abbrev  0x0000000000005de1      0x39c C:\TMP\ccjNAsDy.debug.temp.o
 .debug_abbrev  0x000000000000617d      0x294 C:\TMP\ccmVTzzu.debug.temp.o
 .debug_abbrev  0x0000000000006411      0x388 C:\TMP\ccdkiSng.debug.temp.o
 .debug_abbrev  0x0000000000006799      0x294 C:\TMP\cckcO8Mb.debug.temp.o
 .debug_abbrev  0x0000000000006a2d      0x2d7 C:\TMP\ccaOP0u1.debug.temp.o
 .debug_abbrev  0x0000000000006d04      0x2be C:\TMP\ccRu4BNV.debug.temp.o
 .debug_abbrev  0x0000000000006fc2      0x250 C:\TMP\cc8Hw6wQ.debug.temp.o
 .debug_abbrev  0x0000000000007212      0x304 C:\TMP\ccfcoYkL.debug.temp.o
 .debug_abbrev  0x0000000000007516      0x342 C:\TMP\ccWsxzZF.debug.temp.o
 .debug_abbrev  0x0000000000007858      0x171 C:\TMP\ccVjmDWB.debug.temp.o
 .debug_abbrev  0x00000000000079c9      0x203 C:\TMP\ccQDtwGA.debug.temp.o
 .debug_abbrev  0x0000000000007bcc      0x2e1 C:\TMP\ccfPOqCy.debug.temp.o
 .debug_abbrev  0x0000000000007ead      0x191 C:\TMP\ccceEVow.debug.temp.o
 .debug_abbrev  0x000000000000803e      0x2d2 C:\TMP\ccTUAtCu.debug.temp.o
 .debug_abbrev  0x0000000000008310      0x301 C:\TMP\ccaoPKGs.debug.temp.o
 .debug_abbrev  0x0000000000008611      0x2d0 C:\TMP\ccdBoBTk.debug.temp.o
 .debug_abbrev  0x00000000000088e1      0x32f C:\TMP\cc067PEi.debug.temp.o
 .debug_abbrev  0x0000000000008c10      0x20c C:\TMP\ccvzWhcg.debug.temp.o
 .debug_abbrev  0x0000000000008e1c      0x2c9 C:\TMP\ccOUr2k7.debug.temp.o
 .debug_abbrev  0x00000000000090e5      0x236 C:\TMP\ccX3Lwq4.debug.temp.o
 .debug_abbrev  0x000000000000931b       0x82 C:\TMP\ccEW6Jm1.debug.temp.o
 .debug_abbrev  0x000000000000939d       0xc2 C:\TMP\ccJ9j1f2.debug.temp.o
 .debug_abbrev  0x000000000000945f      0x2c5 C:\TMP\ccEDWFd3.debug.temp.o
 .debug_abbrev  0x0000000000009724      0x2dd C:\TMP\cc5LZvX3.debug.temp.o
 .debug_abbrev  0x0000000000009a01      0x35c C:\TMP\cc1mzK95.debug.temp.o
 .debug_abbrev  0x0000000000009d5d      0x310 C:\TMP\ccCkUBf7.debug.temp.o
 .debug_abbrev  0x000000000000a06d      0x268 C:\TMP\ccxqSRB7.debug.temp.o
 .debug_abbrev  0x000000000000a2d5      0x327 C:\TMP\cc8pEkK7.debug.temp.o
 .debug_abbrev  0x000000000000a5fc      0x2e6 C:\TMP\ccjYWdo8.debug.temp.o
 .debug_abbrev  0x000000000000a8e2      0x2de C:\TMP\cc6lOQS8.debug.temp.o
 .debug_abbrev  0x000000000000abc0      0x291 C:\TMP\ccdSiSD8.debug.temp.o
 .debug_abbrev  0x000000000000ae51       0x45 C:\TMP\ccOvJtf8.debug.temp.o
 .debug_abbrev  0x000000000000ae96       0x45 C:\TMP\ccfCpGm8.debug.temp.o
 .debug_abbrev  0x000000000000aedb       0x45 C:\TMP\cciyECk8.debug.temp.o
 .debug_abbrev  0x000000000000af20       0x45 C:\TMP\ccNMjru7.debug.temp.o
 .debug_abbrev  0x000000000000af65       0x45 C:\TMP\ccOHIYu6.debug.temp.o
 .debug_abbrev  0x000000000000afaa       0x45 C:\TMP\ccHWNTz5.debug.temp.o
 .debug_abbrev  0x000000000000afef      0x2b9 C:\TMP\cckt0R54.debug.temp.o
 .debug_abbrev  0x000000000000b2a8       0x45 C:\TMP\ccxgYqs4.debug.temp.o
 .debug_abbrev  0x000000000000b2ed       0x45 C:\TMP\cci7oGH7.debug.temp.o
 .debug_abbrev  0x000000000000b332       0x45 C:\TMP\ccN1xXNa.debug.temp.o
 .debug_abbrev  0x000000000000b377       0x45 C:\TMP\ccY7fhle.debug.temp.o
 .debug_abbrev  0x000000000000b3bc       0x45 C:\TMP\ccZunYWh.debug.temp.o
 .debug_abbrev  0x000000000000b401      0x2b7 C:\TMP\ccIk60kl.debug.temp.o
 .debug_abbrev  0x000000000000b6b8       0x9f C:\TMP\ccCYp8Hq.debug.temp.o
 .debug_abbrev  0x000000000000b757      0x28e C:\TMP\ccb7Y9ct.debug.temp.o
 .debug_abbrev  0x000000000000b9e5       0x56 C:\TMP\ccoejxMv.debug.temp.o
 .debug_abbrev  0x000000000000ba3b      0x2e6 C:\TMP\ccnavPMy.debug.temp.o
 .debug_abbrev  0x000000000000bd21      0x24f C:\TMP\ccUPHQDB.debug.temp.o
 .debug_abbrev  0x000000000000bf70      0x28d C:\TMP\ccJAggLD.debug.temp.o
 .debug_abbrev  0x000000000000c1fd      0x37f C:\TMP\ccilbTEF.debug.temp.o
 .debug_abbrev  0x000000000000c57c      0x29d C:\TMP\ccFjeTCH.debug.temp.o
 .debug_abbrev  0x000000000000c819      0x340 C:\TMP\ccSIdX1J.debug.temp.o
 .debug_abbrev  0x000000000000cb59      0x26a C:\TMP\ccUmTSEN.debug.temp.o
 .debug_abbrev  0x000000000000cdc3      0x22e C:\TMP\ccV1rVaP.debug.temp.o
 .debug_abbrev  0x000000000000cff1       0xc1 C:\TMP\ccP8RQsZ.debug.temp.o
 .debug_abbrev  0x000000000000d0b2       0x5f C:\TMP\ccay3R84.debug.temp.o
 .debug_abbrev  0x000000000000d111      0x280 C:\TMP\ccbR25Aa.debug.temp.o
 .debug_abbrev  0x000000000000d391      0x2b1 C:\TMP\cc2AYnug.debug.temp.o
 .debug_abbrev  0x000000000000d642      0x32e C:\TMP\ccr4Uoem.debug.temp.o
 .debug_abbrev  0x000000000000d970      0x425 C:\TMP\cc86GFer.debug.temp.o
 .debug_abbrev  0x000000000000dd95       0xbe C:\TMP\cclQcF5v.debug.temp.o
 .debug_abbrev  0x000000000000de53      0x298 C:\TMP\ccoQ710A.debug.temp.o
 .debug_abbrev  0x000000000000e0eb      0x2fd C:\TMP\cchhZsnG.debug.temp.o
 .debug_abbrev  0x000000000000e3e8      0x258 C:\TMP\ccMFLQQK.debug.temp.o
 .debug_abbrev  0x000000000000e640      0x2ad C:\TMP\cc73bCxY.debug.temp.o
 .debug_abbrev  0x000000000000e8ed      0x2d1 C:\TMP\cc1ZuUu6.debug.temp.o
 .debug_abbrev  0x000000000000ebbe      0x12c C:\TMP\ccAAaiva.debug.temp.o
 .debug_abbrev  0x000000000000ecea      0x2c6 C:\TMP\ccxvIJsi.debug.temp.o
 .debug_abbrev  0x000000000000efb0      0x236 C:\TMP\cc4eRrlq.debug.temp.o
 .debug_abbrev  0x000000000000f1e6       0xf9 C:\TMP\ccpQ84Ey.debug.temp.o
 .debug_abbrev  0x000000000000f2df      0x27f C:\TMP\cckeIrPG.debug.temp.o
 .debug_abbrev  0x000000000000f55e      0x308 C:\TMP\ccxHDcgO.debug.temp.o
 .debug_abbrev  0x000000000000f866      0x351 C:\TMP\ccglMxxV.debug.temp.o
 .debug_abbrev  0x000000000000fbb7       0x14 build/objs/ci130x_startup.o
 .debug_abbrev  0x000000000000fbcb      0x3f8 ../../../libs\libnewlib_port.a(sbrk.o)
 .debug_abbrev  0x000000000000ffc3       0x14 ../../../libs\libfreertos_port.a(portasm.o)
 .debug_abbrev  0x000000000000ffd7       0x14 d:/software/yuyin/qiqiyinqiluntai/riscv-nuclei-elf-gcc-9.2.0.0/gcc_fix_raissrc/bin/../lib/gcc/riscv-nuclei-elf/9.2.0/rv32imafc/ilp32f\libgcc.a(save-restore.o)
 .debug_abbrev  0x000000000000ffeb      0x189 d:/software/yuyin/qiqiyinqiluntai/riscv-nuclei-elf-gcc-9.2.0.0/gcc_fix_raissrc/bin/../lib/gcc/riscv-nuclei-elf/9.2.0/rv32imafc/ilp32f\libgcc.a(adddf3.o)
 .debug_abbrev  0x0000000000010174      0x176 d:/software/yuyin/qiqiyinqiluntai/riscv-nuclei-elf-gcc-9.2.0.0/gcc_fix_raissrc/bin/../lib/gcc/riscv-nuclei-elf/9.2.0/rv32imafc/ilp32f\libgcc.a(divdf3.o)
 .debug_abbrev  0x00000000000102ea      0x193 d:/software/yuyin/qiqiyinqiluntai/riscv-nuclei-elf-gcc-9.2.0.0/gcc_fix_raissrc/bin/../lib/gcc/riscv-nuclei-elf/9.2.0/rv32imafc/ilp32f\libgcc.a(eqdf2.o)
 .debug_abbrev  0x000000000001047d      0x193 d:/software/yuyin/qiqiyinqiluntai/riscv-nuclei-elf-gcc-9.2.0.0/gcc_fix_raissrc/bin/../lib/gcc/riscv-nuclei-elf/9.2.0/rv32imafc/ilp32f\libgcc.a(gedf2.o)
 .debug_abbrev  0x0000000000010610      0x193 d:/software/yuyin/qiqiyinqiluntai/riscv-nuclei-elf-gcc-9.2.0.0/gcc_fix_raissrc/bin/../lib/gcc/riscv-nuclei-elf/9.2.0/rv32imafc/ilp32f\libgcc.a(ledf2.o)
 .debug_abbrev  0x00000000000107a3      0x186 d:/software/yuyin/qiqiyinqiluntai/riscv-nuclei-elf-gcc-9.2.0.0/gcc_fix_raissrc/bin/../lib/gcc/riscv-nuclei-elf/9.2.0/rv32imafc/ilp32f\libgcc.a(muldf3.o)
 .debug_abbrev  0x0000000000010929      0x189 d:/software/yuyin/qiqiyinqiluntai/riscv-nuclei-elf-gcc-9.2.0.0/gcc_fix_raissrc/bin/../lib/gcc/riscv-nuclei-elf/9.2.0/rv32imafc/ilp32f\libgcc.a(subdf3.o)
 .debug_abbrev  0x0000000000010ab2      0x184 d:/software/yuyin/qiqiyinqiluntai/riscv-nuclei-elf-gcc-9.2.0.0/gcc_fix_raissrc/bin/../lib/gcc/riscv-nuclei-elf/9.2.0/rv32imafc/ilp32f\libgcc.a(unorddf2.o)
 .debug_abbrev  0x0000000000010c36      0x170 d:/software/yuyin/qiqiyinqiluntai/riscv-nuclei-elf-gcc-9.2.0.0/gcc_fix_raissrc/bin/../lib/gcc/riscv-nuclei-elf/9.2.0/rv32imafc/ilp32f\libgcc.a(fixdfsi.o)
 .debug_abbrev  0x0000000000010da6      0x178 d:/software/yuyin/qiqiyinqiluntai/riscv-nuclei-elf-gcc-9.2.0.0/gcc_fix_raissrc/bin/../lib/gcc/riscv-nuclei-elf/9.2.0/rv32imafc/ilp32f\libgcc.a(floatsidf.o)
 .debug_abbrev  0x0000000000010f1e      0x16c d:/software/yuyin/qiqiyinqiluntai/riscv-nuclei-elf-gcc-9.2.0.0/gcc_fix_raissrc/bin/../lib/gcc/riscv-nuclei-elf/9.2.0/rv32imafc/ilp32f\libgcc.a(extendsfdf2.o)
 .debug_abbrev  0x000000000001108a      0x179 d:/software/yuyin/qiqiyinqiluntai/riscv-nuclei-elf-gcc-9.2.0.0/gcc_fix_raissrc/bin/../lib/gcc/riscv-nuclei-elf/9.2.0/rv32imafc/ilp32f\libgcc.a(truncdfsf2.o)
 .debug_abbrev  0x0000000000011203      0x242 d:/software/yuyin/qiqiyinqiluntai/riscv-nuclei-elf-gcc-9.2.0.0/gcc_fix_raissrc/bin/../lib/gcc/riscv-nuclei-elf/9.2.0/rv32imafc/ilp32f\libgcc.a(_clzsi2.o)
 .debug_abbrev  0x0000000000011445      0x1e8 d:/software/yuyin/qiqiyinqiluntai/riscv-nuclei-elf-gcc-9.2.0.0/gcc_fix_raissrc/bin/../lib/gcc/riscv-nuclei-elf/9.2.0/rv32imafc/ilp32f\libgcc.a(_clz.o)

.debug_loc      0x0000000000000000    0x2225e
 .debug_loc     0x0000000000000000    0x1109a C:\TMP\nn_denoise_rtc_sample.elf.UaA6UP.ltrans0.ltrans.o
 .debug_loc     0x000000000001109a     0x9a3a C:\TMP\nn_denoise_rtc_sample.elf.UaA6UP.ltrans1.ltrans.o
 .debug_loc     0x000000000001aad4      0xa71 ../../../libs\libnewlib_port.a(sbrk.o)
 .debug_loc     0x000000000001b545     0x1a85 d:/software/yuyin/qiqiyinqiluntai/riscv-nuclei-elf-gcc-9.2.0.0/gcc_fix_raissrc/bin/../lib/gcc/riscv-nuclei-elf/9.2.0/rv32imafc/ilp32f\libgcc.a(adddf3.o)
 .debug_loc     0x000000000001cfca     0x14a9 d:/software/yuyin/qiqiyinqiluntai/riscv-nuclei-elf-gcc-9.2.0.0/gcc_fix_raissrc/bin/../lib/gcc/riscv-nuclei-elf/9.2.0/rv32imafc/ilp32f\libgcc.a(divdf3.o)
 .debug_loc     0x000000000001e473      0x19a d:/software/yuyin/qiqiyinqiluntai/riscv-nuclei-elf-gcc-9.2.0.0/gcc_fix_raissrc/bin/../lib/gcc/riscv-nuclei-elf/9.2.0/rv32imafc/ilp32f\libgcc.a(eqdf2.o)
 .debug_loc     0x000000000001e60d      0x155 d:/software/yuyin/qiqiyinqiluntai/riscv-nuclei-elf-gcc-9.2.0.0/gcc_fix_raissrc/bin/../lib/gcc/riscv-nuclei-elf/9.2.0/rv32imafc/ilp32f\libgcc.a(gedf2.o)
 .debug_loc     0x000000000001e762      0x155 d:/software/yuyin/qiqiyinqiluntai/riscv-nuclei-elf-gcc-9.2.0.0/gcc_fix_raissrc/bin/../lib/gcc/riscv-nuclei-elf/9.2.0/rv32imafc/ilp32f\libgcc.a(ledf2.o)
 .debug_loc     0x000000000001e8b7     0x10d8 d:/software/yuyin/qiqiyinqiluntai/riscv-nuclei-elf-gcc-9.2.0.0/gcc_fix_raissrc/bin/../lib/gcc/riscv-nuclei-elf/9.2.0/rv32imafc/ilp32f\libgcc.a(muldf3.o)
 .debug_loc     0x000000000001f98f     0x1b31 d:/software/yuyin/qiqiyinqiluntai/riscv-nuclei-elf-gcc-9.2.0.0/gcc_fix_raissrc/bin/../lib/gcc/riscv-nuclei-elf/9.2.0/rv32imafc/ilp32f\libgcc.a(subdf3.o)
 .debug_loc     0x00000000000214c0       0xc9 d:/software/yuyin/qiqiyinqiluntai/riscv-nuclei-elf-gcc-9.2.0.0/gcc_fix_raissrc/bin/../lib/gcc/riscv-nuclei-elf/9.2.0/rv32imafc/ilp32f\libgcc.a(unorddf2.o)
 .debug_loc     0x0000000000021589      0x2a8 d:/software/yuyin/qiqiyinqiluntai/riscv-nuclei-elf-gcc-9.2.0.0/gcc_fix_raissrc/bin/../lib/gcc/riscv-nuclei-elf/9.2.0/rv32imafc/ilp32f\libgcc.a(fixdfsi.o)
 .debug_loc     0x0000000000021831      0x14c d:/software/yuyin/qiqiyinqiluntai/riscv-nuclei-elf-gcc-9.2.0.0/gcc_fix_raissrc/bin/../lib/gcc/riscv-nuclei-elf/9.2.0/rv32imafc/ilp32f\libgcc.a(floatsidf.o)
 .debug_loc     0x000000000002197d      0x264 d:/software/yuyin/qiqiyinqiluntai/riscv-nuclei-elf-gcc-9.2.0.0/gcc_fix_raissrc/bin/../lib/gcc/riscv-nuclei-elf/9.2.0/rv32imafc/ilp32f\libgcc.a(extendsfdf2.o)
 .debug_loc     0x0000000000021be1      0x612 d:/software/yuyin/qiqiyinqiluntai/riscv-nuclei-elf-gcc-9.2.0.0/gcc_fix_raissrc/bin/../lib/gcc/riscv-nuclei-elf/9.2.0/rv32imafc/ilp32f\libgcc.a(truncdfsf2.o)
 .debug_loc     0x00000000000221f3       0x6b d:/software/yuyin/qiqiyinqiluntai/riscv-nuclei-elf-gcc-9.2.0.0/gcc_fix_raissrc/bin/../lib/gcc/riscv-nuclei-elf/9.2.0/rv32imafc/ilp32f\libgcc.a(_clzsi2.o)

.debug_aranges  0x0000000000000000      0xc28
 .debug_aranges
                0x0000000000000000      0x4f0 C:\TMP\nn_denoise_rtc_sample.elf.UaA6UP.ltrans0.ltrans.o
 .debug_aranges
                0x00000000000004f0      0x3b0 C:\TMP\nn_denoise_rtc_sample.elf.UaA6UP.ltrans1.ltrans.o
 .debug_aranges
                0x00000000000008a0       0x20 build/objs/ci130x_startup.o
 .debug_aranges
                0x00000000000008c0      0x170 ../../../libs\libnewlib_port.a(sbrk.o)
 .debug_aranges
                0x0000000000000a30       0x20 ../../../libs\libfreertos_port.a(portasm.o)
 .debug_aranges
                0x0000000000000a50       0x20 d:/software/yuyin/qiqiyinqiluntai/riscv-nuclei-elf-gcc-9.2.0.0/gcc_fix_raissrc/bin/../lib/gcc/riscv-nuclei-elf/9.2.0/rv32imafc/ilp32f\libgcc.a(save-restore.o)
 .debug_aranges
                0x0000000000000a70       0x20 d:/software/yuyin/qiqiyinqiluntai/riscv-nuclei-elf-gcc-9.2.0.0/gcc_fix_raissrc/bin/../lib/gcc/riscv-nuclei-elf/9.2.0/rv32imafc/ilp32f\libgcc.a(adddf3.o)
 .debug_aranges
                0x0000000000000a90       0x20 d:/software/yuyin/qiqiyinqiluntai/riscv-nuclei-elf-gcc-9.2.0.0/gcc_fix_raissrc/bin/../lib/gcc/riscv-nuclei-elf/9.2.0/rv32imafc/ilp32f\libgcc.a(divdf3.o)
 .debug_aranges
                0x0000000000000ab0       0x20 d:/software/yuyin/qiqiyinqiluntai/riscv-nuclei-elf-gcc-9.2.0.0/gcc_fix_raissrc/bin/../lib/gcc/riscv-nuclei-elf/9.2.0/rv32imafc/ilp32f\libgcc.a(eqdf2.o)
 .debug_aranges
                0x0000000000000ad0       0x20 d:/software/yuyin/qiqiyinqiluntai/riscv-nuclei-elf-gcc-9.2.0.0/gcc_fix_raissrc/bin/../lib/gcc/riscv-nuclei-elf/9.2.0/rv32imafc/ilp32f\libgcc.a(gedf2.o)
 .debug_aranges
                0x0000000000000af0       0x20 d:/software/yuyin/qiqiyinqiluntai/riscv-nuclei-elf-gcc-9.2.0.0/gcc_fix_raissrc/bin/../lib/gcc/riscv-nuclei-elf/9.2.0/rv32imafc/ilp32f\libgcc.a(ledf2.o)
 .debug_aranges
                0x0000000000000b10       0x20 d:/software/yuyin/qiqiyinqiluntai/riscv-nuclei-elf-gcc-9.2.0.0/gcc_fix_raissrc/bin/../lib/gcc/riscv-nuclei-elf/9.2.0/rv32imafc/ilp32f\libgcc.a(muldf3.o)
 .debug_aranges
                0x0000000000000b30       0x20 d:/software/yuyin/qiqiyinqiluntai/riscv-nuclei-elf-gcc-9.2.0.0/gcc_fix_raissrc/bin/../lib/gcc/riscv-nuclei-elf/9.2.0/rv32imafc/ilp32f\libgcc.a(subdf3.o)
 .debug_aranges
                0x0000000000000b50       0x20 d:/software/yuyin/qiqiyinqiluntai/riscv-nuclei-elf-gcc-9.2.0.0/gcc_fix_raissrc/bin/../lib/gcc/riscv-nuclei-elf/9.2.0/rv32imafc/ilp32f\libgcc.a(unorddf2.o)
 .debug_aranges
                0x0000000000000b70       0x20 d:/software/yuyin/qiqiyinqiluntai/riscv-nuclei-elf-gcc-9.2.0.0/gcc_fix_raissrc/bin/../lib/gcc/riscv-nuclei-elf/9.2.0/rv32imafc/ilp32f\libgcc.a(fixdfsi.o)
 .debug_aranges
                0x0000000000000b90       0x20 d:/software/yuyin/qiqiyinqiluntai/riscv-nuclei-elf-gcc-9.2.0.0/gcc_fix_raissrc/bin/../lib/gcc/riscv-nuclei-elf/9.2.0/rv32imafc/ilp32f\libgcc.a(floatsidf.o)
 .debug_aranges
                0x0000000000000bb0       0x20 d:/software/yuyin/qiqiyinqiluntai/riscv-nuclei-elf-gcc-9.2.0.0/gcc_fix_raissrc/bin/../lib/gcc/riscv-nuclei-elf/9.2.0/rv32imafc/ilp32f\libgcc.a(extendsfdf2.o)
 .debug_aranges
                0x0000000000000bd0       0x20 d:/software/yuyin/qiqiyinqiluntai/riscv-nuclei-elf-gcc-9.2.0.0/gcc_fix_raissrc/bin/../lib/gcc/riscv-nuclei-elf/9.2.0/rv32imafc/ilp32f\libgcc.a(truncdfsf2.o)
 .debug_aranges
                0x0000000000000bf0       0x20 d:/software/yuyin/qiqiyinqiluntai/riscv-nuclei-elf-gcc-9.2.0.0/gcc_fix_raissrc/bin/../lib/gcc/riscv-nuclei-elf/9.2.0/rv32imafc/ilp32f\libgcc.a(_clzsi2.o)
 .debug_aranges
                0x0000000000000c10       0x18 d:/software/yuyin/qiqiyinqiluntai/riscv-nuclei-elf-gcc-9.2.0.0/gcc_fix_raissrc/bin/../lib/gcc/riscv-nuclei-elf/9.2.0/rv32imafc/ilp32f\libgcc.a(_clz.o)

.debug_ranges   0x0000000000000000     0x6248
 .debug_ranges  0x0000000000000000     0x2660 C:\TMP\nn_denoise_rtc_sample.elf.UaA6UP.ltrans0.ltrans.o
 .debug_ranges  0x0000000000002660     0x2c98 C:\TMP\nn_denoise_rtc_sample.elf.UaA6UP.ltrans1.ltrans.o
 .debug_ranges  0x00000000000052f8      0x160 ../../../libs\libnewlib_port.a(sbrk.o)
 .debug_ranges  0x0000000000005458      0x3b8 d:/software/yuyin/qiqiyinqiluntai/riscv-nuclei-elf-gcc-9.2.0.0/gcc_fix_raissrc/bin/../lib/gcc/riscv-nuclei-elf/9.2.0/rv32imafc/ilp32f\libgcc.a(adddf3.o)
 .debug_ranges  0x0000000000005810      0x1b8 d:/software/yuyin/qiqiyinqiluntai/riscv-nuclei-elf-gcc-9.2.0.0/gcc_fix_raissrc/bin/../lib/gcc/riscv-nuclei-elf/9.2.0/rv32imafc/ilp32f\libgcc.a(divdf3.o)
 .debug_ranges  0x00000000000059c8       0x60 d:/software/yuyin/qiqiyinqiluntai/riscv-nuclei-elf-gcc-9.2.0.0/gcc_fix_raissrc/bin/../lib/gcc/riscv-nuclei-elf/9.2.0/rv32imafc/ilp32f\libgcc.a(eqdf2.o)
 .debug_ranges  0x0000000000005a28       0x38 d:/software/yuyin/qiqiyinqiluntai/riscv-nuclei-elf-gcc-9.2.0.0/gcc_fix_raissrc/bin/../lib/gcc/riscv-nuclei-elf/9.2.0/rv32imafc/ilp32f\libgcc.a(gedf2.o)
 .debug_ranges  0x0000000000005a60       0x38 d:/software/yuyin/qiqiyinqiluntai/riscv-nuclei-elf-gcc-9.2.0.0/gcc_fix_raissrc/bin/../lib/gcc/riscv-nuclei-elf/9.2.0/rv32imafc/ilp32f\libgcc.a(ledf2.o)
 .debug_ranges  0x0000000000005a98      0x258 d:/software/yuyin/qiqiyinqiluntai/riscv-nuclei-elf-gcc-9.2.0.0/gcc_fix_raissrc/bin/../lib/gcc/riscv-nuclei-elf/9.2.0/rv32imafc/ilp32f\libgcc.a(muldf3.o)
 .debug_ranges  0x0000000000005cf0      0x3a8 d:/software/yuyin/qiqiyinqiluntai/riscv-nuclei-elf-gcc-9.2.0.0/gcc_fix_raissrc/bin/../lib/gcc/riscv-nuclei-elf/9.2.0/rv32imafc/ilp32f\libgcc.a(subdf3.o)
 .debug_ranges  0x0000000000006098       0x38 d:/software/yuyin/qiqiyinqiluntai/riscv-nuclei-elf-gcc-9.2.0.0/gcc_fix_raissrc/bin/../lib/gcc/riscv-nuclei-elf/9.2.0/rv32imafc/ilp32f\libgcc.a(unorddf2.o)
 .debug_ranges  0x00000000000060d0       0x58 d:/software/yuyin/qiqiyinqiluntai/riscv-nuclei-elf-gcc-9.2.0.0/gcc_fix_raissrc/bin/../lib/gcc/riscv-nuclei-elf/9.2.0/rv32imafc/ilp32f\libgcc.a(fixdfsi.o)
 .debug_ranges  0x0000000000006128       0x68 d:/software/yuyin/qiqiyinqiluntai/riscv-nuclei-elf-gcc-9.2.0.0/gcc_fix_raissrc/bin/../lib/gcc/riscv-nuclei-elf/9.2.0/rv32imafc/ilp32f\libgcc.a(floatsidf.o)
 .debug_ranges  0x0000000000006190       0x20 d:/software/yuyin/qiqiyinqiluntai/riscv-nuclei-elf-gcc-9.2.0.0/gcc_fix_raissrc/bin/../lib/gcc/riscv-nuclei-elf/9.2.0/rv32imafc/ilp32f\libgcc.a(extendsfdf2.o)
 .debug_ranges  0x00000000000061b0       0x78 d:/software/yuyin/qiqiyinqiluntai/riscv-nuclei-elf-gcc-9.2.0.0/gcc_fix_raissrc/bin/../lib/gcc/riscv-nuclei-elf/9.2.0/rv32imafc/ilp32f\libgcc.a(truncdfsf2.o)
 .debug_ranges  0x0000000000006228       0x20 d:/software/yuyin/qiqiyinqiluntai/riscv-nuclei-elf-gcc-9.2.0.0/gcc_fix_raissrc/bin/../lib/gcc/riscv-nuclei-elf/9.2.0/rv32imafc/ilp32f\libgcc.a(_clzsi2.o)

.debug_line     0x0000000000000000    0x419cb
 .debug_line    0x0000000000000000    0x16b58 C:\TMP\nn_denoise_rtc_sample.elf.UaA6UP.ltrans0.ltrans.o
 .debug_line    0x0000000000016b58    0x11379 C:\TMP\nn_denoise_rtc_sample.elf.UaA6UP.ltrans1.ltrans.o
 .debug_line    0x0000000000027ed1      0x2c9 C:\TMP\cctaoPDg.debug.temp.o
 .debug_line    0x000000000002819a      0x1ca C:\TMP\ccCToAL5.debug.temp.o
 .debug_line    0x0000000000028364      0x26a C:\TMP\ccz04okV.debug.temp.o
 .debug_line    0x00000000000285ce      0x335 C:\TMP\cc6vsEGK.debug.temp.o
 .debug_line    0x0000000000028903      0x263 C:\TMP\ccjlrN7y.debug.temp.o
 .debug_line    0x0000000000028b66      0x1c0 C:\TMP\ccXGdyWc.debug.temp.o
 .debug_line    0x0000000000028d26      0x304 C:\TMP\ccFAmeNP.debug.temp.o
 .debug_line    0x000000000002902a      0x2ea C:\TMP\ccKRTuHD.debug.temp.o
 .debug_line    0x0000000000029314      0x32a C:\TMP\ccBXiG2r.debug.temp.o
 .debug_line    0x000000000002963e      0x330 C:\TMP\ccs58sqf.debug.temp.o
 .debug_line    0x000000000002996e      0x32d C:\TMP\ccHdpmJ2.debug.temp.o
 .debug_line    0x0000000000029c9b      0x30d C:\TMP\ccKJkjtQ.debug.temp.o
 .debug_line    0x0000000000029fa8      0x2ba C:\TMP\ccn4Qw8D.debug.temp.o
 .debug_line    0x000000000002a262      0x2db C:\TMP\ccmasFKv.debug.temp.o
 .debug_line    0x000000000002a53d      0x257 C:\TMP\ccTZ3wdn.debug.temp.o
 .debug_line    0x000000000002a794      0x2d3 C:\TMP\ccggCs7e.debug.temp.o
 .debug_line    0x000000000002aa67      0x2c3 C:\TMP\ccWkJizX.debug.temp.o
 .debug_line    0x000000000002ad2a      0x302 C:\TMP\ccivKHaE.debug.temp.o
 .debug_line    0x000000000002b02c      0x39c C:\TMP\cc10euNu.debug.temp.o
 .debug_line    0x000000000002b3c8      0x24b C:\TMP\ccigKZgl.debug.temp.o
 .debug_line    0x000000000002b613      0x2e9 C:\TMP\ccR44K0a.debug.temp.o
 .debug_line    0x000000000002b8fc      0x3bc C:\TMP\ccYCqfB0.debug.temp.o
 .debug_line    0x000000000002bcb8      0x448 C:\TMP\ccHMzaHQ.debug.temp.o
 .debug_line    0x000000000002c100      0x3dc C:\TMP\ccDnfoxA.debug.temp.o
 .debug_line    0x000000000002c4dc      0x17c C:\TMP\ccawFlHQ.debug.temp.o
 .debug_line    0x000000000002c658      0x23e C:\TMP\ccA627dC.debug.temp.o
 .debug_line    0x000000000002c896      0x2dc C:\TMP\ccJhqD3u.debug.temp.o
 .debug_line    0x000000000002cb72      0x2a0 C:\TMP\ccwryuXn.debug.temp.o
 .debug_line    0x000000000002ce12      0x2b9 C:\TMP\ccDJjK7f.debug.temp.o
 .debug_line    0x000000000002d0cb      0x35d C:\TMP\ccgciA87.debug.temp.o
 .debug_line    0x000000000002d428      0x40a C:\TMP\ccH2VtA0.debug.temp.o
 .debug_line    0x000000000002d832      0x3bd C:\TMP\ccGCA6SS.debug.temp.o
 .debug_line    0x000000000002dbef      0x334 C:\TMP\cc1XjE8O.debug.temp.o
 .debug_line    0x000000000002df23      0x1f2 C:\TMP\ccU23UeL.debug.temp.o
 .debug_line    0x000000000002e115      0x3e3 C:\TMP\ccjNAsDy.debug.temp.o
 .debug_line    0x000000000002e4f8      0x2dc C:\TMP\ccmVTzzu.debug.temp.o
 .debug_line    0x000000000002e7d4      0x483 C:\TMP\ccdkiSng.debug.temp.o
 .debug_line    0x000000000002ec57      0x2de C:\TMP\cckcO8Mb.debug.temp.o
 .debug_line    0x000000000002ef35      0x4b0 C:\TMP\ccaOP0u1.debug.temp.o
 .debug_line    0x000000000002f3e5      0x27c C:\TMP\ccRu4BNV.debug.temp.o
 .debug_line    0x000000000002f661      0x27c C:\TMP\cc8Hw6wQ.debug.temp.o
 .debug_line    0x000000000002f8dd      0x24f C:\TMP\ccfcoYkL.debug.temp.o
 .debug_line    0x000000000002fb2c      0x336 C:\TMP\ccWsxzZF.debug.temp.o
 .debug_line    0x000000000002fe62      0x1b2 C:\TMP\ccVjmDWB.debug.temp.o
 .debug_line    0x0000000000030014      0x27b C:\TMP\ccQDtwGA.debug.temp.o
 .debug_line    0x000000000003028f      0x2b4 C:\TMP\ccfPOqCy.debug.temp.o
 .debug_line    0x0000000000030543      0x1ac C:\TMP\ccceEVow.debug.temp.o
 .debug_line    0x00000000000306ef      0x2a2 C:\TMP\ccTUAtCu.debug.temp.o
 .debug_line    0x0000000000030991      0x2c3 C:\TMP\ccaoPKGs.debug.temp.o
 .debug_line    0x0000000000030c54      0x202 C:\TMP\ccdBoBTk.debug.temp.o
 .debug_line    0x0000000000030e56      0x27e C:\TMP\cc067PEi.debug.temp.o
 .debug_line    0x00000000000310d4      0x19d C:\TMP\ccvzWhcg.debug.temp.o
 .debug_line    0x0000000000031271      0x3cc C:\TMP\ccOUr2k7.debug.temp.o
 .debug_line    0x000000000003163d      0x2af C:\TMP\ccX3Lwq4.debug.temp.o
 .debug_line    0x00000000000318ec       0x55 C:\TMP\ccEW6Jm1.debug.temp.o
 .debug_line    0x0000000000031941      0x133 C:\TMP\ccJ9j1f2.debug.temp.o
 .debug_line    0x0000000000031a74      0x469 C:\TMP\ccEDWFd3.debug.temp.o
 .debug_line    0x0000000000031edd      0x44c C:\TMP\cc5LZvX3.debug.temp.o
 .debug_line    0x0000000000032329      0x57b C:\TMP\cc1mzK95.debug.temp.o
 .debug_line    0x00000000000328a4      0x42d C:\TMP\ccCkUBf7.debug.temp.o
 .debug_line    0x0000000000032cd1      0x3c4 C:\TMP\ccxqSRB7.debug.temp.o
 .debug_line    0x0000000000033095      0x4de C:\TMP\cc8pEkK7.debug.temp.o
 .debug_line    0x0000000000033573      0x3f1 C:\TMP\ccjYWdo8.debug.temp.o
 .debug_line    0x0000000000033964      0x1de C:\TMP\cc6lOQS8.debug.temp.o
 .debug_line    0x0000000000033b42      0x298 C:\TMP\ccdSiSD8.debug.temp.o
 .debug_line    0x0000000000033dda       0x5a C:\TMP\ccOvJtf8.debug.temp.o
 .debug_line    0x0000000000033e34       0x5b C:\TMP\ccfCpGm8.debug.temp.o
 .debug_line    0x0000000000033e8f       0x5b C:\TMP\cciyECk8.debug.temp.o
 .debug_line    0x0000000000033eea       0x5b C:\TMP\ccNMjru7.debug.temp.o
 .debug_line    0x0000000000033f45       0x5b C:\TMP\ccOHIYu6.debug.temp.o
 .debug_line    0x0000000000033fa0       0x5b C:\TMP\ccHWNTz5.debug.temp.o
 .debug_line    0x0000000000033ffb      0x1de C:\TMP\cckt0R54.debug.temp.o
 .debug_line    0x00000000000341d9       0x56 C:\TMP\ccxgYqs4.debug.temp.o
 .debug_line    0x000000000003422f       0x5a C:\TMP\cci7oGH7.debug.temp.o
 .debug_line    0x0000000000034289       0x5c C:\TMP\ccN1xXNa.debug.temp.o
 .debug_line    0x00000000000342e5       0x56 C:\TMP\ccY7fhle.debug.temp.o
 .debug_line    0x000000000003433b       0x5b C:\TMP\ccZunYWh.debug.temp.o
 .debug_line    0x0000000000034396      0x317 C:\TMP\ccIk60kl.debug.temp.o
 .debug_line    0x00000000000346ad       0x59 C:\TMP\ccCYp8Hq.debug.temp.o
 .debug_line    0x0000000000034706      0x1eb C:\TMP\ccb7Y9ct.debug.temp.o
 .debug_line    0x00000000000348f1       0x59 C:\TMP\ccoejxMv.debug.temp.o
 .debug_line    0x000000000003494a      0x244 C:\TMP\ccnavPMy.debug.temp.o
 .debug_line    0x0000000000034b8e      0x308 C:\TMP\ccUPHQDB.debug.temp.o
 .debug_line    0x0000000000034e96      0x336 C:\TMP\ccJAggLD.debug.temp.o
 .debug_line    0x00000000000351cc      0x367 C:\TMP\ccilbTEF.debug.temp.o
 .debug_line    0x0000000000035533      0x250 C:\TMP\ccFjeTCH.debug.temp.o
 .debug_line    0x0000000000035783      0x352 C:\TMP\ccSIdX1J.debug.temp.o
 .debug_line    0x0000000000035ad5      0x30c C:\TMP\ccUmTSEN.debug.temp.o
 .debug_line    0x0000000000035de1      0x317 C:\TMP\ccV1rVaP.debug.temp.o
 .debug_line    0x00000000000360f8       0x58 C:\TMP\ccP8RQsZ.debug.temp.o
 .debug_line    0x0000000000036150       0x5c C:\TMP\ccay3R84.debug.temp.o
 .debug_line    0x00000000000361ac      0x2e6 C:\TMP\ccbR25Aa.debug.temp.o
 .debug_line    0x0000000000036492      0x3d3 C:\TMP\cc2AYnug.debug.temp.o
 .debug_line    0x0000000000036865      0x365 C:\TMP\ccr4Uoem.debug.temp.o
 .debug_line    0x0000000000036bca      0x4bd C:\TMP\cc86GFer.debug.temp.o
 .debug_line    0x0000000000037087       0x9c C:\TMP\cclQcF5v.debug.temp.o
 .debug_line    0x0000000000037123      0x347 C:\TMP\ccoQ710A.debug.temp.o
 .debug_line    0x000000000003746a      0x430 C:\TMP\cchhZsnG.debug.temp.o
 .debug_line    0x000000000003789a      0x34d C:\TMP\ccMFLQQK.debug.temp.o
 .debug_line    0x0000000000037be7      0x2e8 C:\TMP\cc73bCxY.debug.temp.o
 .debug_line    0x0000000000037ecf      0x2d4 C:\TMP\cc1ZuUu6.debug.temp.o
 .debug_line    0x00000000000381a3      0x1b1 C:\TMP\ccAAaiva.debug.temp.o
 .debug_line    0x0000000000038354      0x347 C:\TMP\ccxvIJsi.debug.temp.o
 .debug_line    0x000000000003869b      0x19e C:\TMP\cc4eRrlq.debug.temp.o
 .debug_line    0x0000000000038839      0x1a2 C:\TMP\ccpQ84Ey.debug.temp.o
 .debug_line    0x00000000000389db      0x1b0 C:\TMP\cckeIrPG.debug.temp.o
 .debug_line    0x0000000000038b8b      0x374 C:\TMP\ccxHDcgO.debug.temp.o
 .debug_line    0x0000000000038eff      0x39b C:\TMP\ccglMxxV.debug.temp.o
 .debug_line    0x000000000003929a      0x1f0 build/objs/ci130x_startup.o
 .debug_line    0x000000000003948a      0xcea ../../../libs\libnewlib_port.a(sbrk.o)
 .debug_line    0x000000000003a174      0x2c8 ../../../libs\libfreertos_port.a(portasm.o)
 .debug_line    0x000000000003a43c      0x19c d:/software/yuyin/qiqiyinqiluntai/riscv-nuclei-elf-gcc-9.2.0.0/gcc_fix_raissrc/bin/../lib/gcc/riscv-nuclei-elf/9.2.0/rv32imafc/ilp32f\libgcc.a(save-restore.o)
 .debug_line    0x000000000003a5d8     0x1637 d:/software/yuyin/qiqiyinqiluntai/riscv-nuclei-elf-gcc-9.2.0.0/gcc_fix_raissrc/bin/../lib/gcc/riscv-nuclei-elf/9.2.0/rv32imafc/ilp32f\libgcc.a(adddf3.o)
 .debug_line    0x000000000003bc0f     0x1289 d:/software/yuyin/qiqiyinqiluntai/riscv-nuclei-elf-gcc-9.2.0.0/gcc_fix_raissrc/bin/../lib/gcc/riscv-nuclei-elf/9.2.0/rv32imafc/ilp32f\libgcc.a(divdf3.o)
 .debug_line    0x000000000003ce98      0x34a d:/software/yuyin/qiqiyinqiluntai/riscv-nuclei-elf-gcc-9.2.0.0/gcc_fix_raissrc/bin/../lib/gcc/riscv-nuclei-elf/9.2.0/rv32imafc/ilp32f\libgcc.a(eqdf2.o)
 .debug_line    0x000000000003d1e2      0x377 d:/software/yuyin/qiqiyinqiluntai/riscv-nuclei-elf-gcc-9.2.0.0/gcc_fix_raissrc/bin/../lib/gcc/riscv-nuclei-elf/9.2.0/rv32imafc/ilp32f\libgcc.a(gedf2.o)
 .debug_line    0x000000000003d559      0x377 d:/software/yuyin/qiqiyinqiluntai/riscv-nuclei-elf-gcc-9.2.0.0/gcc_fix_raissrc/bin/../lib/gcc/riscv-nuclei-elf/9.2.0/rv32imafc/ilp32f\libgcc.a(ledf2.o)
 .debug_line    0x000000000003d8d0     0x1099 d:/software/yuyin/qiqiyinqiluntai/riscv-nuclei-elf-gcc-9.2.0.0/gcc_fix_raissrc/bin/../lib/gcc/riscv-nuclei-elf/9.2.0/rv32imafc/ilp32f\libgcc.a(muldf3.o)
 .debug_line    0x000000000003e969     0x1673 d:/software/yuyin/qiqiyinqiluntai/riscv-nuclei-elf-gcc-9.2.0.0/gcc_fix_raissrc/bin/../lib/gcc/riscv-nuclei-elf/9.2.0/rv32imafc/ilp32f\libgcc.a(subdf3.o)
 .debug_line    0x000000000003ffdc      0x2a3 d:/software/yuyin/qiqiyinqiluntai/riscv-nuclei-elf-gcc-9.2.0.0/gcc_fix_raissrc/bin/../lib/gcc/riscv-nuclei-elf/9.2.0/rv32imafc/ilp32f\libgcc.a(unorddf2.o)
 .debug_line    0x000000000004027f      0x345 d:/software/yuyin/qiqiyinqiluntai/riscv-nuclei-elf-gcc-9.2.0.0/gcc_fix_raissrc/bin/../lib/gcc/riscv-nuclei-elf/9.2.0/rv32imafc/ilp32f\libgcc.a(fixdfsi.o)
 .debug_line    0x00000000000405c4      0x2bb d:/software/yuyin/qiqiyinqiluntai/riscv-nuclei-elf-gcc-9.2.0.0/gcc_fix_raissrc/bin/../lib/gcc/riscv-nuclei-elf/9.2.0/rv32imafc/ilp32f\libgcc.a(floatsidf.o)
 .debug_line    0x000000000004087f      0x41f d:/software/yuyin/qiqiyinqiluntai/riscv-nuclei-elf-gcc-9.2.0.0/gcc_fix_raissrc/bin/../lib/gcc/riscv-nuclei-elf/9.2.0/rv32imafc/ilp32f\libgcc.a(extendsfdf2.o)
 .debug_line    0x0000000000040c9e      0x701 d:/software/yuyin/qiqiyinqiluntai/riscv-nuclei-elf-gcc-9.2.0.0/gcc_fix_raissrc/bin/../lib/gcc/riscv-nuclei-elf/9.2.0/rv32imafc/ilp32f\libgcc.a(truncdfsf2.o)
 .debug_line    0x000000000004139f      0x35c d:/software/yuyin/qiqiyinqiluntai/riscv-nuclei-elf-gcc-9.2.0.0/gcc_fix_raissrc/bin/../lib/gcc/riscv-nuclei-elf/9.2.0/rv32imafc/ilp32f\libgcc.a(_clzsi2.o)
 .debug_line    0x00000000000416fb      0x2d0 d:/software/yuyin/qiqiyinqiluntai/riscv-nuclei-elf-gcc-9.2.0.0/gcc_fix_raissrc/bin/../lib/gcc/riscv-nuclei-elf/9.2.0/rv32imafc/ilp32f\libgcc.a(_clz.o)

.debug_str      0x0000000000000000    0x1b024
 .debug_str     0x0000000000000000      0x472 C:\TMP\nn_denoise_rtc_sample.elf.UaA6UP.ltrans0.ltrans.o
                                        0x579 (size before relaxing)
 .debug_str     0x0000000000000472      0x1dd C:\TMP\nn_denoise_rtc_sample.elf.UaA6UP.ltrans1.ltrans.o
                                        0x649 (size before relaxing)
 .debug_str     0x000000000000064f      0x8cd C:\TMP\cctaoPDg.debug.temp.o
                                        0xe61 (size before relaxing)
 .debug_str     0x0000000000000f1c      0x22c C:\TMP\ccCToAL5.debug.temp.o
                                        0x8db (size before relaxing)
 .debug_str     0x0000000000001148       0x31 C:\TMP\ccz04okV.debug.temp.o
                                        0x6cd (size before relaxing)
 .debug_str     0x0000000000001179      0x744 C:\TMP\cc6vsEGK.debug.temp.o
                                       0x126f (size before relaxing)
 .debug_str     0x00000000000018bd      0x298 C:\TMP\ccjlrN7y.debug.temp.o
                                        0x94d (size before relaxing)
 .debug_str     0x0000000000001b55      0x300 C:\TMP\ccXGdyWc.debug.temp.o
                                        0x5c3 (size before relaxing)
 .debug_str     0x0000000000001e55      0x3cb C:\TMP\ccFAmeNP.debug.temp.o
                                        0xa6e (size before relaxing)
 .debug_str     0x0000000000002220       0xb1 C:\TMP\ccKRTuHD.debug.temp.o
                                        0x7bd (size before relaxing)
 .debug_str     0x00000000000022d1      0x61a C:\TMP\ccBXiG2r.debug.temp.o
                                       0x124f (size before relaxing)
 .debug_str     0x00000000000028eb      0x4e6 C:\TMP\ccs58sqf.debug.temp.o
                                       0x10cb (size before relaxing)
 .debug_str     0x0000000000002dd1      0xd29 C:\TMP\ccHdpmJ2.debug.temp.o
                                       0x1a46 (size before relaxing)
 .debug_str     0x0000000000003afa      0x514 C:\TMP\ccKJkjtQ.debug.temp.o
                                        0xce8 (size before relaxing)
 .debug_str     0x000000000000400e      0x237 C:\TMP\ccn4Qw8D.debug.temp.o
                                        0xd50 (size before relaxing)
 .debug_str     0x0000000000004245      0x235 C:\TMP\ccmasFKv.debug.temp.o
                                        0xd2c (size before relaxing)
 .debug_str     0x000000000000447a       0x4b C:\TMP\ccTZ3wdn.debug.temp.o
                                        0x691 (size before relaxing)
 .debug_str     0x00000000000044c5      0x3a7 C:\TMP\ccggCs7e.debug.temp.o
                                        0xb0d (size before relaxing)
 .debug_str     0x000000000000486c      0x214 C:\TMP\ccWkJizX.debug.temp.o
                                        0x8dd (size before relaxing)
 .debug_str     0x0000000000004a80      0x224 C:\TMP\ccivKHaE.debug.temp.o
                                        0x905 (size before relaxing)
 .debug_str     0x0000000000004ca4      0x545 C:\TMP\cc10euNu.debug.temp.o
                                       0x18ae (size before relaxing)
 .debug_str     0x00000000000051e9     0x11d3 C:\TMP\ccigKZgl.debug.temp.o
                                       0x18a7 (size before relaxing)
 .debug_str     0x00000000000063bc      0x46f C:\TMP\ccR44K0a.debug.temp.o
                                       0x1080 (size before relaxing)
 .debug_str     0x000000000000682b      0xb90 C:\TMP\ccYCqfB0.debug.temp.o
                                       0x18e7 (size before relaxing)
 .debug_str     0x00000000000073bb      0x7af C:\TMP\ccHMzaHQ.debug.temp.o
                                       0x1dfd (size before relaxing)
 .debug_str     0x0000000000007b6a      0x24c C:\TMP\ccDnfoxA.debug.temp.o
                                       0x106c (size before relaxing)
 .debug_str     0x0000000000007db6      0x2a1 C:\TMP\ccawFlHQ.debug.temp.o
                                        0x6fe (size before relaxing)
 .debug_str     0x0000000000008057       0x98 C:\TMP\ccA627dC.debug.temp.o
                                       0x1bd0 (size before relaxing)
 .debug_str     0x00000000000080ef      0x5fc C:\TMP\ccJhqD3u.debug.temp.o
                                       0x116d (size before relaxing)
 .debug_str     0x00000000000086eb      0x16a C:\TMP\ccwryuXn.debug.temp.o
                                        0x841 (size before relaxing)
 .debug_str     0x0000000000008855      0x429 C:\TMP\ccDJjK7f.debug.temp.o
                                       0x1050 (size before relaxing)
 .debug_str     0x0000000000008c7e      0x63d C:\TMP\ccgciA87.debug.temp.o
                                       0x12b7 (size before relaxing)
 .debug_str     0x00000000000092bb      0x2ca C:\TMP\ccH2VtA0.debug.temp.o
                                       0x11f3 (size before relaxing)
 .debug_str     0x0000000000009585      0x32a C:\TMP\ccGCA6SS.debug.temp.o
                                       0x1fdd (size before relaxing)
 .debug_str     0x00000000000098af      0x32f C:\TMP\cc1XjE8O.debug.temp.o
                                        0xbb8 (size before relaxing)
 .debug_str     0x0000000000009bde       0x94 C:\TMP\ccU23UeL.debug.temp.o
                                        0x6df (size before relaxing)
 .debug_str     0x0000000000009c72     0x1382 C:\TMP\ccjNAsDy.debug.temp.o
                                       0x1fe6 (size before relaxing)
 .debug_str     0x000000000000aff4       0xb8 C:\TMP\ccmVTzzu.debug.temp.o
                                       0x197e (size before relaxing)
 .debug_str     0x000000000000b0ac      0xa04 C:\TMP\ccdkiSng.debug.temp.o
                                       0x1b50 (size before relaxing)
 .debug_str     0x000000000000bab0      0x160 C:\TMP\cckcO8Mb.debug.temp.o
                                        0x8a5 (size before relaxing)
 .debug_str     0x000000000000bc10      0x788 C:\TMP\ccaOP0u1.debug.temp.o
                                       0x1232 (size before relaxing)
 .debug_str     0x000000000000c398      0x37c C:\TMP\ccRu4BNV.debug.temp.o
                                        0xa5a (size before relaxing)
 .debug_str     0x000000000000c714      0x164 C:\TMP\cc8Hw6wQ.debug.temp.o
                                        0x823 (size before relaxing)
 .debug_str     0x000000000000c878      0x82e C:\TMP\ccfcoYkL.debug.temp.o
                                       0x1292 (size before relaxing)
 .debug_str     0x000000000000d0a6     0x17ce C:\TMP\ccWsxzZF.debug.temp.o
                                       0x2573 (size before relaxing)
 .debug_str     0x000000000000e874      0x470 C:\TMP\ccVjmDWB.debug.temp.o
                                        0xb64 (size before relaxing)
 .debug_str     0x000000000000ece4       0x76 C:\TMP\ccQDtwGA.debug.temp.o
                                        0x715 (size before relaxing)
 .debug_str     0x000000000000ed5a      0x497 C:\TMP\ccfPOqCy.debug.temp.o
                                       0x12bc (size before relaxing)
 .debug_str     0x000000000000f1f1      0x51b C:\TMP\ccceEVow.debug.temp.o
                                        0x88b (size before relaxing)
 .debug_str     0x000000000000f70c      0x344 C:\TMP\ccTUAtCu.debug.temp.o
                                        0xaad (size before relaxing)
 .debug_str     0x000000000000fa50      0x4b6 C:\TMP\ccaoPKGs.debug.temp.o
                                        0xdba (size before relaxing)
 .debug_str     0x000000000000ff06      0x5c3 C:\TMP\ccdBoBTk.debug.temp.o
                                       0x11f0 (size before relaxing)
 .debug_str     0x00000000000104c9      0x263 C:\TMP\cc067PEi.debug.temp.o
                                        0xbac (size before relaxing)
 .debug_str     0x000000000001072c      0x145 C:\TMP\ccvzWhcg.debug.temp.o
                                        0x787 (size before relaxing)
 .debug_str     0x0000000000010871      0x1f4 C:\TMP\ccOUr2k7.debug.temp.o
                                       0x146a (size before relaxing)
 .debug_str     0x0000000000010a65       0xf9 C:\TMP\ccX3Lwq4.debug.temp.o
                                        0x8a6 (size before relaxing)
 .debug_str     0x0000000000010b5e       0x5e C:\TMP\ccEW6Jm1.debug.temp.o
                                        0x21d (size before relaxing)
 .debug_str     0x0000000000010bbc       0x40 C:\TMP\ccJ9j1f2.debug.temp.o
                                        0x2d1 (size before relaxing)
 .debug_str     0x0000000000010bfc      0x12b C:\TMP\ccEDWFd3.debug.temp.o
                                       0x10c3 (size before relaxing)
 .debug_str     0x0000000000010d27      0x18f C:\TMP\cc5LZvX3.debug.temp.o
                                       0x168f (size before relaxing)
 .debug_str     0x0000000000010eb6      0x944 C:\TMP\cc1mzK95.debug.temp.o
                                       0x213c (size before relaxing)
 .debug_str     0x00000000000117fa      0x116 C:\TMP\ccCkUBf7.debug.temp.o
                                       0x1278 (size before relaxing)
 .debug_str     0x0000000000011910      0x292 C:\TMP\ccxqSRB7.debug.temp.o
                                        0xcce (size before relaxing)
 .debug_str     0x0000000000011ba2      0x431 C:\TMP\cc8pEkK7.debug.temp.o
                                       0x122e (size before relaxing)
 .debug_str     0x0000000000011fd3      0x118 C:\TMP\ccjYWdo8.debug.temp.o
                                        0xde2 (size before relaxing)
 .debug_str     0x00000000000120eb      0x240 C:\TMP\cc6lOQS8.debug.temp.o
                                        0x905 (size before relaxing)
 .debug_str     0x000000000001232b      0x1dc C:\TMP\ccdSiSD8.debug.temp.o
                                        0x8ea (size before relaxing)
 .debug_str     0x0000000000012507       0x48 C:\TMP\ccOvJtf8.debug.temp.o
                                        0x20c (size before relaxing)
 .debug_str     0x000000000001254f       0x4a C:\TMP\ccfCpGm8.debug.temp.o
                                        0x20e (size before relaxing)
 .debug_str     0x0000000000012599       0x4a C:\TMP\cciyECk8.debug.temp.o
                                        0x20e (size before relaxing)
 .debug_str     0x00000000000125e3       0x4a C:\TMP\ccNMjru7.debug.temp.o
                                        0x20e (size before relaxing)
 .debug_str     0x000000000001262d       0x3a C:\TMP\ccOHIYu6.debug.temp.o
                                        0x20e (size before relaxing)
 .debug_str     0x0000000000012667       0x4a C:\TMP\ccHWNTz5.debug.temp.o
                                        0x20e (size before relaxing)
 .debug_str     0x00000000000126b1      0x215 C:\TMP\cckt0R54.debug.temp.o
                                        0x905 (size before relaxing)
 .debug_str     0x00000000000128c6       0x42 C:\TMP\ccxgYqs4.debug.temp.o
                                        0x206 (size before relaxing)
 .debug_str     0x0000000000012908       0x47 C:\TMP\cci7oGH7.debug.temp.o
                                        0x20b (size before relaxing)
 .debug_str     0x000000000001294f       0x4c C:\TMP\ccN1xXNa.debug.temp.o
                                        0x210 (size before relaxing)
 .debug_str     0x000000000001299b       0x40 C:\TMP\ccY7fhle.debug.temp.o
                                        0x204 (size before relaxing)
 .debug_str     0x00000000000129db       0x57 C:\TMP\ccZunYWh.debug.temp.o
                                        0x21b (size before relaxing)
 .debug_str     0x0000000000012a32      0x189 C:\TMP\ccIk60kl.debug.temp.o
                                        0x88c (size before relaxing)
 .debug_str     0x0000000000012bbb       0x4a C:\TMP\ccCYp8Hq.debug.temp.o
                                        0x2af (size before relaxing)
 .debug_str     0x0000000000012c05       0xd7 C:\TMP\ccb7Y9ct.debug.temp.o
                                        0x7bb (size before relaxing)
 .debug_str     0x0000000000012cdc       0x6e C:\TMP\ccoejxMv.debug.temp.o
                                        0x23a (size before relaxing)
 .debug_str     0x0000000000012d4a      0x236 C:\TMP\ccnavPMy.debug.temp.o
                                        0x9fb (size before relaxing)
 .debug_str     0x0000000000012f80      0x157 C:\TMP\ccUPHQDB.debug.temp.o
                                        0xcc7 (size before relaxing)
 .debug_str     0x00000000000130d7       0xc2 C:\TMP\ccJAggLD.debug.temp.o
                                        0xc06 (size before relaxing)
 .debug_str     0x0000000000013199      0x457 C:\TMP\ccilbTEF.debug.temp.o
                                       0x10cd (size before relaxing)
 .debug_str     0x00000000000135f0       0xd6 C:\TMP\ccFjeTCH.debug.temp.o
                                        0x88a (size before relaxing)
 .debug_str     0x00000000000136c6      0x1b6 C:\TMP\ccSIdX1J.debug.temp.o
                                        0xe97 (size before relaxing)
 .debug_str     0x000000000001387c      0x145 C:\TMP\ccUmTSEN.debug.temp.o
                                        0xbc8 (size before relaxing)
 .debug_str     0x00000000000139c1      0x11a C:\TMP\ccV1rVaP.debug.temp.o
                                        0x974 (size before relaxing)
 .debug_str     0x0000000000013adb       0x6d C:\TMP\ccP8RQsZ.debug.temp.o
                                        0x2ef (size before relaxing)
 .debug_str     0x0000000000013b48       0x31 C:\TMP\ccay3R84.debug.temp.o
                                        0x289 (size before relaxing)
 .debug_str     0x0000000000013b79       0x98 C:\TMP\ccbR25Aa.debug.temp.o
                                        0x9cb (size before relaxing)
 .debug_str     0x0000000000013c11     0x1411 C:\TMP\cc2AYnug.debug.temp.o
                                       0x2ba6 (size before relaxing)
 .debug_str     0x0000000000015022      0x391 C:\TMP\ccr4Uoem.debug.temp.o
                                       0x1bc4 (size before relaxing)
 .debug_str     0x00000000000153b3     0x14f1 C:\TMP\cc86GFer.debug.temp.o
                                       0x3aab (size before relaxing)
 .debug_str     0x00000000000168a4      0x210 C:\TMP\cclQcF5v.debug.temp.o
                                        0x3e8 (size before relaxing)
 .debug_str     0x0000000000016ab4      0x21c C:\TMP\ccoQ710A.debug.temp.o
                                       0x1a20 (size before relaxing)
 .debug_str     0x0000000000016cd0      0x27e C:\TMP\cchhZsnG.debug.temp.o
                                       0x2013 (size before relaxing)
 .debug_str     0x0000000000016f4e      0x11e C:\TMP\ccMFLQQK.debug.temp.o
                                       0x193b (size before relaxing)
 .debug_str     0x000000000001706c      0x370 C:\TMP\cc73bCxY.debug.temp.o
                                        0xe88 (size before relaxing)
 .debug_str     0x00000000000173dc      0x17b C:\TMP\cc1ZuUu6.debug.temp.o
                                        0xa13 (size before relaxing)
 .debug_str     0x0000000000017557      0x119 C:\TMP\ccAAaiva.debug.temp.o
                                        0x9a5 (size before relaxing)
 .debug_str     0x0000000000017670      0x1d0 C:\TMP\ccxvIJsi.debug.temp.o
                                        0xaea (size before relaxing)
 .debug_str     0x0000000000017840      0x778 C:\TMP\cc4eRrlq.debug.temp.o
                                       0x127d (size before relaxing)
 .debug_str     0x0000000000017fb8      0x212 C:\TMP\ccpQ84Ey.debug.temp.o
                                        0x528 (size before relaxing)
 .debug_str     0x00000000000181ca      0xade C:\TMP\cckeIrPG.debug.temp.o
                                       0x1486 (size before relaxing)
 .debug_str     0x0000000000018ca8      0x680 C:\TMP\ccxHDcgO.debug.temp.o
                                        0xf18 (size before relaxing)
 .debug_str     0x0000000000019328      0x246 C:\TMP\ccglMxxV.debug.temp.o
                                       0x1244 (size before relaxing)
 .debug_str     0x000000000001956e       0xba build/objs/ci130x_startup.o
 .debug_str     0x0000000000019628      0xd05 ../../../libs\libnewlib_port.a(sbrk.o)
                                        0xe31 (size before relaxing)
 .debug_str     0x000000000001a32d       0x7e ../../../libs\libfreertos_port.a(portasm.o)
                                         0x8a (size before relaxing)
 .debug_str     0x000000000001a3ab       0xdd d:/software/yuyin/qiqiyinqiluntai/riscv-nuclei-elf-gcc-9.2.0.0/gcc_fix_raissrc/bin/../lib/gcc/riscv-nuclei-elf/9.2.0/rv32imafc/ilp32f\libgcc.a(save-restore.o)
                                         0xe9 (size before relaxing)
 .debug_str     0x000000000001a488      0x25b d:/software/yuyin/qiqiyinqiluntai/riscv-nuclei-elf-gcc-9.2.0.0/gcc_fix_raissrc/bin/../lib/gcc/riscv-nuclei-elf/9.2.0/rv32imafc/ilp32f\libgcc.a(adddf3.o)
                                        0x371 (size before relaxing)
 .debug_str     0x000000000001a6e3      0x1fd d:/software/yuyin/qiqiyinqiluntai/riscv-nuclei-elf-gcc-9.2.0.0/gcc_fix_raissrc/bin/../lib/gcc/riscv-nuclei-elf/9.2.0/rv32imafc/ilp32f\libgcc.a(divdf3.o)
                                        0x433 (size before relaxing)
 .debug_str     0x000000000001a8e0       0x72 d:/software/yuyin/qiqiyinqiluntai/riscv-nuclei-elf-gcc-9.2.0.0/gcc_fix_raissrc/bin/../lib/gcc/riscv-nuclei-elf/9.2.0/rv32imafc/ilp32f\libgcc.a(eqdf2.o)
                                        0x28b (size before relaxing)
 .debug_str     0x000000000001a952       0x77 d:/software/yuyin/qiqiyinqiluntai/riscv-nuclei-elf-gcc-9.2.0.0/gcc_fix_raissrc/bin/../lib/gcc/riscv-nuclei-elf/9.2.0/rv32imafc/ilp32f\libgcc.a(gedf2.o)
                                        0x2af (size before relaxing)
 .debug_str     0x000000000001a9c9       0x53 d:/software/yuyin/qiqiyinqiluntai/riscv-nuclei-elf-gcc-9.2.0.0/gcc_fix_raissrc/bin/../lib/gcc/riscv-nuclei-elf/9.2.0/rv32imafc/ilp32f\libgcc.a(ledf2.o)
                                        0x2af (size before relaxing)
 .debug_str     0x000000000001aa1c      0x17a d:/software/yuyin/qiqiyinqiluntai/riscv-nuclei-elf-gcc-9.2.0.0/gcc_fix_raissrc/bin/../lib/gcc/riscv-nuclei-elf/9.2.0/rv32imafc/ilp32f\libgcc.a(muldf3.o)
                                        0x48b (size before relaxing)
 .debug_str     0x000000000001ab96       0x55 d:/software/yuyin/qiqiyinqiluntai/riscv-nuclei-elf-gcc-9.2.0.0/gcc_fix_raissrc/bin/../lib/gcc/riscv-nuclei-elf/9.2.0/rv32imafc/ilp32f\libgcc.a(subdf3.o)
                                        0x371 (size before relaxing)
 .debug_str     0x000000000001abeb       0x59 d:/software/yuyin/qiqiyinqiluntai/riscv-nuclei-elf-gcc-9.2.0.0/gcc_fix_raissrc/bin/../lib/gcc/riscv-nuclei-elf/9.2.0/rv32imafc/ilp32f\libgcc.a(unorddf2.o)
                                        0x291 (size before relaxing)
 .debug_str     0x000000000001ac44       0x72 d:/software/yuyin/qiqiyinqiluntai/riscv-nuclei-elf-gcc-9.2.0.0/gcc_fix_raissrc/bin/../lib/gcc/riscv-nuclei-elf/9.2.0/rv32imafc/ilp32f\libgcc.a(fixdfsi.o)
                                        0x288 (size before relaxing)
 .debug_str     0x000000000001acb6       0x88 d:/software/yuyin/qiqiyinqiluntai/riscv-nuclei-elf-gcc-9.2.0.0/gcc_fix_raissrc/bin/../lib/gcc/riscv-nuclei-elf/9.2.0/rv32imafc/ilp32f\libgcc.a(floatsidf.o)
                                        0x31e (size before relaxing)
 .debug_str     0x000000000001ad3e       0x99 d:/software/yuyin/qiqiyinqiluntai/riscv-nuclei-elf-gcc-9.2.0.0/gcc_fix_raissrc/bin/../lib/gcc/riscv-nuclei-elf/9.2.0/rv32imafc/ilp32f\libgcc.a(extendsfdf2.o)
                                        0x2ac (size before relaxing)
 .debug_str     0x000000000001add7       0x85 d:/software/yuyin/qiqiyinqiluntai/riscv-nuclei-elf-gcc-9.2.0.0/gcc_fix_raissrc/bin/../lib/gcc/riscv-nuclei-elf/9.2.0/rv32imafc/ilp32f\libgcc.a(truncdfsf2.o)
                                        0x30a (size before relaxing)
 .debug_str     0x000000000001ae5c      0x1c8 d:/software/yuyin/qiqiyinqiluntai/riscv-nuclei-elf-gcc-9.2.0.0/gcc_fix_raissrc/bin/../lib/gcc/riscv-nuclei-elf/9.2.0/rv32imafc/ilp32f\libgcc.a(_clzsi2.o)
                                        0x80f (size before relaxing)
 .debug_str     0x000000000001b024      0x7f2 d:/software/yuyin/qiqiyinqiluntai/riscv-nuclei-elf-gcc-9.2.0.0/gcc_fix_raissrc/bin/../lib/gcc/riscv-nuclei-elf/9.2.0/rv32imafc/ilp32f\libgcc.a(_clz.o)

.comment        0x0000000000000000       0x11
 .comment       0x0000000000000000       0x12 C:\TMP\nn_denoise_rtc_sample.elf.UaA6UP.ltrans0.ltrans.o
 .comment       0x0000000000000000       0x12 C:\TMP\nn_denoise_rtc_sample.elf.UaA6UP.ltrans1.ltrans.o
 .comment       0x0000000000000000       0x11 ../../../libs\libnewlib_port.a(sbrk.o)
                                         0x12 (size before relaxing)
 .comment       0x0000000000000011       0x12 d:/software/yuyin/qiqiyinqiluntai/riscv-nuclei-elf-gcc-9.2.0.0/gcc_fix_raissrc/bin/../lib/gcc/riscv-nuclei-elf/9.2.0/rv32imafc/ilp32f\libgcc.a(adddf3.o)
 .comment       0x0000000000000011       0x12 d:/software/yuyin/qiqiyinqiluntai/riscv-nuclei-elf-gcc-9.2.0.0/gcc_fix_raissrc/bin/../lib/gcc/riscv-nuclei-elf/9.2.0/rv32imafc/ilp32f\libgcc.a(divdf3.o)
 .comment       0x0000000000000011       0x12 d:/software/yuyin/qiqiyinqiluntai/riscv-nuclei-elf-gcc-9.2.0.0/gcc_fix_raissrc/bin/../lib/gcc/riscv-nuclei-elf/9.2.0/rv32imafc/ilp32f\libgcc.a(eqdf2.o)
 .comment       0x0000000000000011       0x12 d:/software/yuyin/qiqiyinqiluntai/riscv-nuclei-elf-gcc-9.2.0.0/gcc_fix_raissrc/bin/../lib/gcc/riscv-nuclei-elf/9.2.0/rv32imafc/ilp32f\libgcc.a(gedf2.o)
 .comment       0x0000000000000011       0x12 d:/software/yuyin/qiqiyinqiluntai/riscv-nuclei-elf-gcc-9.2.0.0/gcc_fix_raissrc/bin/../lib/gcc/riscv-nuclei-elf/9.2.0/rv32imafc/ilp32f\libgcc.a(ledf2.o)
 .comment       0x0000000000000011       0x12 d:/software/yuyin/qiqiyinqiluntai/riscv-nuclei-elf-gcc-9.2.0.0/gcc_fix_raissrc/bin/../lib/gcc/riscv-nuclei-elf/9.2.0/rv32imafc/ilp32f\libgcc.a(muldf3.o)
 .comment       0x0000000000000011       0x12 d:/software/yuyin/qiqiyinqiluntai/riscv-nuclei-elf-gcc-9.2.0.0/gcc_fix_raissrc/bin/../lib/gcc/riscv-nuclei-elf/9.2.0/rv32imafc/ilp32f\libgcc.a(subdf3.o)
 .comment       0x0000000000000011       0x12 d:/software/yuyin/qiqiyinqiluntai/riscv-nuclei-elf-gcc-9.2.0.0/gcc_fix_raissrc/bin/../lib/gcc/riscv-nuclei-elf/9.2.0/rv32imafc/ilp32f\libgcc.a(unorddf2.o)
 .comment       0x0000000000000011       0x12 d:/software/yuyin/qiqiyinqiluntai/riscv-nuclei-elf-gcc-9.2.0.0/gcc_fix_raissrc/bin/../lib/gcc/riscv-nuclei-elf/9.2.0/rv32imafc/ilp32f\libgcc.a(fixdfsi.o)
 .comment       0x0000000000000011       0x12 d:/software/yuyin/qiqiyinqiluntai/riscv-nuclei-elf-gcc-9.2.0.0/gcc_fix_raissrc/bin/../lib/gcc/riscv-nuclei-elf/9.2.0/rv32imafc/ilp32f\libgcc.a(floatsidf.o)
 .comment       0x0000000000000011       0x12 d:/software/yuyin/qiqiyinqiluntai/riscv-nuclei-elf-gcc-9.2.0.0/gcc_fix_raissrc/bin/../lib/gcc/riscv-nuclei-elf/9.2.0/rv32imafc/ilp32f\libgcc.a(extendsfdf2.o)
 .comment       0x0000000000000011       0x12 d:/software/yuyin/qiqiyinqiluntai/riscv-nuclei-elf-gcc-9.2.0.0/gcc_fix_raissrc/bin/../lib/gcc/riscv-nuclei-elf/9.2.0/rv32imafc/ilp32f\libgcc.a(truncdfsf2.o)
 .comment       0x0000000000000011       0x12 d:/software/yuyin/qiqiyinqiluntai/riscv-nuclei-elf-gcc-9.2.0.0/gcc_fix_raissrc/bin/../lib/gcc/riscv-nuclei-elf/9.2.0/rv32imafc/ilp32f\libgcc.a(_clzsi2.o)
 .comment       0x0000000000000011       0x12 d:/software/yuyin/qiqiyinqiluntai/riscv-nuclei-elf-gcc-9.2.0.0/gcc_fix_raissrc/bin/../lib/gcc/riscv-nuclei-elf/9.2.0/rv32imafc/ilp32f\libgcc.a(_clz.o)
 .comment       0x0000000000000011       0x12 d:/software/yuyin/qiqiyinqiluntai/riscv-nuclei-elf-gcc-9.2.0.0/gcc_fix_raissrc/bin/../lib/gcc/riscv-nuclei-elf/9.2.0/../../../../riscv-nuclei-elf/lib/rv32imafc/ilp32f\libg_nano.a(lib_a-atexit.o)
 .comment       0x0000000000000011       0x12 d:/software/yuyin/qiqiyinqiluntai/riscv-nuclei-elf-gcc-9.2.0.0/gcc_fix_raissrc/bin/../lib/gcc/riscv-nuclei-elf/9.2.0/../../../../riscv-nuclei-elf/lib/rv32imafc/ilp32f\libg_nano.a(lib_a-exit.o)
 .comment       0x0000000000000011       0x12 d:/software/yuyin/qiqiyinqiluntai/riscv-nuclei-elf-gcc-9.2.0.0/gcc_fix_raissrc/bin/../lib/gcc/riscv-nuclei-elf/9.2.0/../../../../riscv-nuclei-elf/lib/rv32imafc/ilp32f\libg_nano.a(lib_a-fini.o)
 .comment       0x0000000000000011       0x12 d:/software/yuyin/qiqiyinqiluntai/riscv-nuclei-elf-gcc-9.2.0.0/gcc_fix_raissrc/bin/../lib/gcc/riscv-nuclei-elf/9.2.0/../../../../riscv-nuclei-elf/lib/rv32imafc/ilp32f\libg_nano.a(lib_a-impure.o)
 .comment       0x0000000000000011       0x12 d:/software/yuyin/qiqiyinqiluntai/riscv-nuclei-elf-gcc-9.2.0.0/gcc_fix_raissrc/bin/../lib/gcc/riscv-nuclei-elf/9.2.0/../../../../riscv-nuclei-elf/lib/rv32imafc/ilp32f\libg_nano.a(lib_a-init.o)
 .comment       0x0000000000000011       0x12 d:/software/yuyin/qiqiyinqiluntai/riscv-nuclei-elf-gcc-9.2.0.0/gcc_fix_raissrc/bin/../lib/gcc/riscv-nuclei-elf/9.2.0/../../../../riscv-nuclei-elf/lib/rv32imafc/ilp32f\libg_nano.a(lib_a-__atexit.o)
 .comment       0x0000000000000011       0x12 d:/software/yuyin/qiqiyinqiluntai/riscv-nuclei-elf-gcc-9.2.0.0/gcc_fix_raissrc/bin/../lib/gcc/riscv-nuclei-elf/9.2.0/../../../../riscv-nuclei-elf/lib/rv32imafc/ilp32f\libg_nano.a(lib_a-__call_atexit.o)
 .comment       0x0000000000000011       0x12 d:/software/yuyin/qiqiyinqiluntai/riscv-nuclei-elf-gcc-9.2.0.0/gcc_fix_raissrc/bin/../lib/gcc/riscv-nuclei-elf/9.2.0/../../../../riscv-nuclei-elf/lib/rv32imafc/ilp32f\libg_nano.a(lib_a-calloc.o)
 .comment       0x0000000000000011       0x12 d:/software/yuyin/qiqiyinqiluntai/riscv-nuclei-elf-gcc-9.2.0.0/gcc_fix_raissrc/bin/../lib/gcc/riscv-nuclei-elf/9.2.0/../../../../riscv-nuclei-elf/lib/rv32imafc/ilp32f\libg_nano.a(lib_a-fprintf.o)
 .comment       0x0000000000000011       0x12 d:/software/yuyin/qiqiyinqiluntai/riscv-nuclei-elf-gcc-9.2.0.0/gcc_fix_raissrc/bin/../lib/gcc/riscv-nuclei-elf/9.2.0/../../../../riscv-nuclei-elf/lib/rv32imafc/ilp32f\libg_nano.a(lib_a-nano-callocr.o)
 .comment       0x0000000000000011       0x12 d:/software/yuyin/qiqiyinqiluntai/riscv-nuclei-elf-gcc-9.2.0.0/gcc_fix_raissrc/bin/../lib/gcc/riscv-nuclei-elf/9.2.0/../../../../riscv-nuclei-elf/lib/rv32imafc/ilp32f\libg_nano.a(lib_a-nano-mallocr.o)
 .comment       0x0000000000000011       0x12 d:/software/yuyin/qiqiyinqiluntai/riscv-nuclei-elf-gcc-9.2.0.0/gcc_fix_raissrc/bin/../lib/gcc/riscv-nuclei-elf/9.2.0/../../../../riscv-nuclei-elf/lib/rv32imafc/ilp32f\libg_nano.a(lib_a-nano-vfprintf.o)
 .comment       0x0000000000000011       0x12 d:/software/yuyin/qiqiyinqiluntai/riscv-nuclei-elf-gcc-9.2.0.0/gcc_fix_raissrc/bin/../lib/gcc/riscv-nuclei-elf/9.2.0/../../../../riscv-nuclei-elf/lib/rv32imafc/ilp32f\libg_nano.a(lib_a-realloc.o)
 .comment       0x0000000000000011       0x12 d:/software/yuyin/qiqiyinqiluntai/riscv-nuclei-elf-gcc-9.2.0.0/gcc_fix_raissrc/bin/../lib/gcc/riscv-nuclei-elf/9.2.0/../../../../riscv-nuclei-elf/lib/rv32imafc/ilp32f\libg_nano.a(lib_a-sbrkr.o)
 .comment       0x0000000000000011       0x12 d:/software/yuyin/qiqiyinqiluntai/riscv-nuclei-elf-gcc-9.2.0.0/gcc_fix_raissrc/bin/../lib/gcc/riscv-nuclei-elf/9.2.0/../../../../riscv-nuclei-elf/lib/rv32imafc/ilp32f\libg_nano.a(lib_a-wbuf.o)
 .comment       0x0000000000000011       0x12 d:/software/yuyin/qiqiyinqiluntai/riscv-nuclei-elf-gcc-9.2.0.0/gcc_fix_raissrc/bin/../lib/gcc/riscv-nuclei-elf/9.2.0/../../../../riscv-nuclei-elf/lib/rv32imafc/ilp32f\libg_nano.a(lib_a-wsetup.o)
 .comment       0x0000000000000011       0x12 d:/software/yuyin/qiqiyinqiluntai/riscv-nuclei-elf-gcc-9.2.0.0/gcc_fix_raissrc/bin/../lib/gcc/riscv-nuclei-elf/9.2.0/../../../../riscv-nuclei-elf/lib/rv32imafc/ilp32f\libg_nano.a(lib_a-fflush.o)
 .comment       0x0000000000000011       0x12 d:/software/yuyin/qiqiyinqiluntai/riscv-nuclei-elf-gcc-9.2.0.0/gcc_fix_raissrc/bin/../lib/gcc/riscv-nuclei-elf/9.2.0/../../../../riscv-nuclei-elf/lib/rv32imafc/ilp32f\libg_nano.a(lib_a-findfp.o)
 .comment       0x0000000000000011       0x12 d:/software/yuyin/qiqiyinqiluntai/riscv-nuclei-elf-gcc-9.2.0.0/gcc_fix_raissrc/bin/../lib/gcc/riscv-nuclei-elf/9.2.0/../../../../riscv-nuclei-elf/lib/rv32imafc/ilp32f\libg_nano.a(lib_a-fwalk.o)
 .comment       0x0000000000000011       0x12 d:/software/yuyin/qiqiyinqiluntai/riscv-nuclei-elf-gcc-9.2.0.0/gcc_fix_raissrc/bin/../lib/gcc/riscv-nuclei-elf/9.2.0/../../../../riscv-nuclei-elf/lib/rv32imafc/ilp32f\libg_nano.a(lib_a-makebuf.o)
 .comment       0x0000000000000011       0x12 d:/software/yuyin/qiqiyinqiluntai/riscv-nuclei-elf-gcc-9.2.0.0/gcc_fix_raissrc/bin/../lib/gcc/riscv-nuclei-elf/9.2.0/../../../../riscv-nuclei-elf/lib/rv32imafc/ilp32f\libg_nano.a(lib_a-memchr.o)
 .comment       0x0000000000000011       0x12 d:/software/yuyin/qiqiyinqiluntai/riscv-nuclei-elf-gcc-9.2.0.0/gcc_fix_raissrc/bin/../lib/gcc/riscv-nuclei-elf/9.2.0/../../../../riscv-nuclei-elf/lib/rv32imafc/ilp32f\libg_nano.a(lib_a-nano-freer.o)
 .comment       0x0000000000000011       0x12 d:/software/yuyin/qiqiyinqiluntai/riscv-nuclei-elf-gcc-9.2.0.0/gcc_fix_raissrc/bin/../lib/gcc/riscv-nuclei-elf/9.2.0/../../../../riscv-nuclei-elf/lib/rv32imafc/ilp32f\libg_nano.a(lib_a-nano-reallocr.o)
 .comment       0x0000000000000011       0x12 d:/software/yuyin/qiqiyinqiluntai/riscv-nuclei-elf-gcc-9.2.0.0/gcc_fix_raissrc/bin/../lib/gcc/riscv-nuclei-elf/9.2.0/../../../../riscv-nuclei-elf/lib/rv32imafc/ilp32f\libg_nano.a(lib_a-nano-vfprintf_i.o)
 .comment       0x0000000000000011       0x12 d:/software/yuyin/qiqiyinqiluntai/riscv-nuclei-elf-gcc-9.2.0.0/gcc_fix_raissrc/bin/../lib/gcc/riscv-nuclei-elf/9.2.0/../../../../riscv-nuclei-elf/lib/rv32imafc/ilp32f\libg_nano.a(lib_a-reent.o)
 .comment       0x0000000000000011       0x12 d:/software/yuyin/qiqiyinqiluntai/riscv-nuclei-elf-gcc-9.2.0.0/gcc_fix_raissrc/bin/../lib/gcc/riscv-nuclei-elf/9.2.0/../../../../riscv-nuclei-elf/lib/rv32imafc/ilp32f\libg_nano.a(lib_a-stdio.o)
 .comment       0x0000000000000011       0x12 d:/software/yuyin/qiqiyinqiluntai/riscv-nuclei-elf-gcc-9.2.0.0/gcc_fix_raissrc/bin/../lib/gcc/riscv-nuclei-elf/9.2.0/../../../../riscv-nuclei-elf/lib/rv32imafc/ilp32f\libg_nano.a(lib_a-writer.o)
 .comment       0x0000000000000011       0x12 d:/software/yuyin/qiqiyinqiluntai/riscv-nuclei-elf-gcc-9.2.0.0/gcc_fix_raissrc/bin/../lib/gcc/riscv-nuclei-elf/9.2.0/../../../../riscv-nuclei-elf/lib/rv32imafc/ilp32f\libg_nano.a(lib_a-closer.o)
 .comment       0x0000000000000011       0x12 d:/software/yuyin/qiqiyinqiluntai/riscv-nuclei-elf-gcc-9.2.0.0/gcc_fix_raissrc/bin/../lib/gcc/riscv-nuclei-elf/9.2.0/../../../../riscv-nuclei-elf/lib/rv32imafc/ilp32f\libg_nano.a(lib_a-fstatr.o)
 .comment       0x0000000000000011       0x12 d:/software/yuyin/qiqiyinqiluntai/riscv-nuclei-elf-gcc-9.2.0.0/gcc_fix_raissrc/bin/../lib/gcc/riscv-nuclei-elf/9.2.0/../../../../riscv-nuclei-elf/lib/rv32imafc/ilp32f\libg_nano.a(lib_a-isattyr.o)
 .comment       0x0000000000000011       0x12 d:/software/yuyin/qiqiyinqiluntai/riscv-nuclei-elf-gcc-9.2.0.0/gcc_fix_raissrc/bin/../lib/gcc/riscv-nuclei-elf/9.2.0/../../../../riscv-nuclei-elf/lib/rv32imafc/ilp32f\libg_nano.a(lib_a-lseekr.o)
 .comment       0x0000000000000011       0x12 d:/software/yuyin/qiqiyinqiluntai/riscv-nuclei-elf-gcc-9.2.0.0/gcc_fix_raissrc/bin/../lib/gcc/riscv-nuclei-elf/9.2.0/../../../../riscv-nuclei-elf/lib/rv32imafc/ilp32f\libg_nano.a(lib_a-nano-msizer.o)
 .comment       0x0000000000000011       0x12 d:/software/yuyin/qiqiyinqiluntai/riscv-nuclei-elf-gcc-9.2.0.0/gcc_fix_raissrc/bin/../lib/gcc/riscv-nuclei-elf/9.2.0/../../../../riscv-nuclei-elf/lib/rv32imafc/ilp32f\libg_nano.a(lib_a-readr.o)
 .comment       0x0000000000000011       0x12 d:/software/yuyin/qiqiyinqiluntai/riscv-nuclei-elf-gcc-9.2.0.0/gcc_fix_raissrc/bin/../lib/gcc/riscv-nuclei-elf/9.2.0/../../../../riscv-nuclei-elf/lib/rv32imafc/ilp32f\libgloss_nano.a(sys_exit.o)
 .comment       0x0000000000000011       0x12 d:/software/yuyin/qiqiyinqiluntai/riscv-nuclei-elf-gcc-9.2.0.0/gcc_fix_raissrc/bin/../lib/gcc/riscv-nuclei-elf/9.2.0/../../../../riscv-nuclei-elf/lib/rv32imafc/ilp32f\libgloss_nano.a(sys_close.o)
 .comment       0x0000000000000011       0x12 d:/software/yuyin/qiqiyinqiluntai/riscv-nuclei-elf-gcc-9.2.0.0/gcc_fix_raissrc/bin/../lib/gcc/riscv-nuclei-elf/9.2.0/../../../../riscv-nuclei-elf/lib/rv32imafc/ilp32f\libgloss_nano.a(sys_fstat.o)
 .comment       0x0000000000000011       0x12 d:/software/yuyin/qiqiyinqiluntai/riscv-nuclei-elf-gcc-9.2.0.0/gcc_fix_raissrc/bin/../lib/gcc/riscv-nuclei-elf/9.2.0/../../../../riscv-nuclei-elf/lib/rv32imafc/ilp32f\libgloss_nano.a(sys_isatty.o)
 .comment       0x0000000000000011       0x12 d:/software/yuyin/qiqiyinqiluntai/riscv-nuclei-elf-gcc-9.2.0.0/gcc_fix_raissrc/bin/../lib/gcc/riscv-nuclei-elf/9.2.0/../../../../riscv-nuclei-elf/lib/rv32imafc/ilp32f\libgloss_nano.a(sys_lseek.o)
 .comment       0x0000000000000011       0x12 d:/software/yuyin/qiqiyinqiluntai/riscv-nuclei-elf-gcc-9.2.0.0/gcc_fix_raissrc/bin/../lib/gcc/riscv-nuclei-elf/9.2.0/../../../../riscv-nuclei-elf/lib/rv32imafc/ilp32f\libgloss_nano.a(sys_read.o)
 .comment       0x0000000000000011       0x12 d:/software/yuyin/qiqiyinqiluntai/riscv-nuclei-elf-gcc-9.2.0.0/gcc_fix_raissrc/bin/../lib/gcc/riscv-nuclei-elf/9.2.0/../../../../riscv-nuclei-elf/lib/rv32imafc/ilp32f\libgloss_nano.a(sys_write.o)
 .comment       0x0000000000000011       0x12 d:/software/yuyin/qiqiyinqiluntai/riscv-nuclei-elf-gcc-9.2.0.0/gcc_fix_raissrc/bin/../lib/gcc/riscv-nuclei-elf/9.2.0/../../../../riscv-nuclei-elf/lib/rv32imafc/ilp32f\libgloss_nano.a(sys_conv_stat.o)
 .comment       0x0000000000000011       0x12 d:/software/yuyin/qiqiyinqiluntai/riscv-nuclei-elf-gcc-9.2.0.0/gcc_fix_raissrc/bin/../lib/gcc/riscv-nuclei-elf/9.2.0/../../../../riscv-nuclei-elf/lib/rv32imafc/ilp32f\libc_nano.a(lib_a-errno.o)
 .comment       0x0000000000000011       0x12 d:/software/yuyin/qiqiyinqiluntai/riscv-nuclei-elf-gcc-9.2.0.0/gcc_fix_raissrc/bin/../lib/gcc/riscv-nuclei-elf/9.2.0/../../../../riscv-nuclei-elf/lib/rv32imafc/ilp32f\libm.a(lib_a-s_floor.o)
 .comment       0x0000000000000011       0x12 d:/software/yuyin/qiqiyinqiluntai/riscv-nuclei-elf-gcc-9.2.0.0/gcc_fix_raissrc/bin/../lib/gcc/riscv-nuclei-elf/9.2.0/../../../../riscv-nuclei-elf/lib/rv32imafc/ilp32f\libm.a(lib_a-w_acos.o)
 .comment       0x0000000000000011       0x12 d:/software/yuyin/qiqiyinqiluntai/riscv-nuclei-elf-gcc-9.2.0.0/gcc_fix_raissrc/bin/../lib/gcc/riscv-nuclei-elf/9.2.0/../../../../riscv-nuclei-elf/lib/rv32imafc/ilp32f\libm.a(lib_a-w_exp.o)
 .comment       0x0000000000000011       0x12 d:/software/yuyin/qiqiyinqiluntai/riscv-nuclei-elf-gcc-9.2.0.0/gcc_fix_raissrc/bin/../lib/gcc/riscv-nuclei-elf/9.2.0/../../../../riscv-nuclei-elf/lib/rv32imafc/ilp32f\libm.a(lib_a-wf_pow.o)
 .comment       0x0000000000000011       0x12 d:/software/yuyin/qiqiyinqiluntai/riscv-nuclei-elf-gcc-9.2.0.0/gcc_fix_raissrc/bin/../lib/gcc/riscv-nuclei-elf/9.2.0/../../../../riscv-nuclei-elf/lib/rv32imafc/ilp32f\libm.a(lib_a-w_log.o)
 .comment       0x0000000000000011       0x12 d:/software/yuyin/qiqiyinqiluntai/riscv-nuclei-elf-gcc-9.2.0.0/gcc_fix_raissrc/bin/../lib/gcc/riscv-nuclei-elf/9.2.0/../../../../riscv-nuclei-elf/lib/rv32imafc/ilp32f\libm.a(lib_a-w_sqrt.o)
 .comment       0x0000000000000011       0x12 d:/software/yuyin/qiqiyinqiluntai/riscv-nuclei-elf-gcc-9.2.0.0/gcc_fix_raissrc/bin/../lib/gcc/riscv-nuclei-elf/9.2.0/../../../../riscv-nuclei-elf/lib/rv32imafc/ilp32f\libm.a(lib_a-e_acos.o)
 .comment       0x0000000000000011       0x12 d:/software/yuyin/qiqiyinqiluntai/riscv-nuclei-elf-gcc-9.2.0.0/gcc_fix_raissrc/bin/../lib/gcc/riscv-nuclei-elf/9.2.0/../../../../riscv-nuclei-elf/lib/rv32imafc/ilp32f\libm.a(lib_a-e_exp.o)
 .comment       0x0000000000000011       0x12 d:/software/yuyin/qiqiyinqiluntai/riscv-nuclei-elf-gcc-9.2.0.0/gcc_fix_raissrc/bin/../lib/gcc/riscv-nuclei-elf/9.2.0/../../../../riscv-nuclei-elf/lib/rv32imafc/ilp32f\libm.a(lib_a-ef_pow.o)
 .comment       0x0000000000000011       0x12 d:/software/yuyin/qiqiyinqiluntai/riscv-nuclei-elf-gcc-9.2.0.0/gcc_fix_raissrc/bin/../lib/gcc/riscv-nuclei-elf/9.2.0/../../../../riscv-nuclei-elf/lib/rv32imafc/ilp32f\libm.a(lib_a-ef_sqrt.o)
 .comment       0x0000000000000011       0x12 d:/software/yuyin/qiqiyinqiluntai/riscv-nuclei-elf-gcc-9.2.0.0/gcc_fix_raissrc/bin/../lib/gcc/riscv-nuclei-elf/9.2.0/../../../../riscv-nuclei-elf/lib/rv32imafc/ilp32f\libm.a(lib_a-e_log.o)
 .comment       0x0000000000000011       0x12 d:/software/yuyin/qiqiyinqiluntai/riscv-nuclei-elf-gcc-9.2.0.0/gcc_fix_raissrc/bin/../lib/gcc/riscv-nuclei-elf/9.2.0/../../../../riscv-nuclei-elf/lib/rv32imafc/ilp32f\libm.a(lib_a-e_sqrt.o)
 .comment       0x0000000000000011       0x12 d:/software/yuyin/qiqiyinqiluntai/riscv-nuclei-elf-gcc-9.2.0.0/gcc_fix_raissrc/bin/../lib/gcc/riscv-nuclei-elf/9.2.0/../../../../riscv-nuclei-elf/lib/rv32imafc/ilp32f\libm.a(lib_a-s_fabs.o)
 .comment       0x0000000000000011       0x12 d:/software/yuyin/qiqiyinqiluntai/riscv-nuclei-elf-gcc-9.2.0.0/gcc_fix_raissrc/bin/../lib/gcc/riscv-nuclei-elf/9.2.0/../../../../riscv-nuclei-elf/lib/rv32imafc/ilp32f\libm.a(lib_a-sf_finite.o)
 .comment       0x0000000000000011       0x12 d:/software/yuyin/qiqiyinqiluntai/riscv-nuclei-elf-gcc-9.2.0.0/gcc_fix_raissrc/bin/../lib/gcc/riscv-nuclei-elf/9.2.0/../../../../riscv-nuclei-elf/lib/rv32imafc/ilp32f\libm.a(lib_a-s_finite.o)
 .comment       0x0000000000000011       0x12 d:/software/yuyin/qiqiyinqiluntai/riscv-nuclei-elf-gcc-9.2.0.0/gcc_fix_raissrc/bin/../lib/gcc/riscv-nuclei-elf/9.2.0/../../../../riscv-nuclei-elf/lib/rv32imafc/ilp32f\libm.a(lib_a-sf_nan.o)
 .comment       0x0000000000000011       0x12 d:/software/yuyin/qiqiyinqiluntai/riscv-nuclei-elf-gcc-9.2.0.0/gcc_fix_raissrc/bin/../lib/gcc/riscv-nuclei-elf/9.2.0/../../../../riscv-nuclei-elf/lib/rv32imafc/ilp32f\libm.a(lib_a-sf_rint.o)
 .comment       0x0000000000000011       0x12 d:/software/yuyin/qiqiyinqiluntai/riscv-nuclei-elf-gcc-9.2.0.0/gcc_fix_raissrc/bin/../lib/gcc/riscv-nuclei-elf/9.2.0/../../../../riscv-nuclei-elf/lib/rv32imafc/ilp32f\libm.a(lib_a-sf_scalbn.o)
 .comment       0x0000000000000011       0x12 d:/software/yuyin/qiqiyinqiluntai/riscv-nuclei-elf-gcc-9.2.0.0/gcc_fix_raissrc/bin/../lib/gcc/riscv-nuclei-elf/9.2.0/../../../../riscv-nuclei-elf/lib/rv32imafc/ilp32f\libm.a(lib_a-s_lib_ver.o)
 .comment       0x0000000000000011       0x12 d:/software/yuyin/qiqiyinqiluntai/riscv-nuclei-elf-gcc-9.2.0.0/gcc_fix_raissrc/bin/../lib/gcc/riscv-nuclei-elf/9.2.0/../../../../riscv-nuclei-elf/lib/rv32imafc/ilp32f\libm.a(lib_a-s_matherr.o)
 .comment       0x0000000000000011       0x12 d:/software/yuyin/qiqiyinqiluntai/riscv-nuclei-elf-gcc-9.2.0.0/gcc_fix_raissrc/bin/../lib/gcc/riscv-nuclei-elf/9.2.0/../../../../riscv-nuclei-elf/lib/rv32imafc/ilp32f\libm.a(lib_a-s_nan.o)
 .comment       0x0000000000000011       0x12 d:/software/yuyin/qiqiyinqiluntai/riscv-nuclei-elf-gcc-9.2.0.0/gcc_fix_raissrc/bin/../lib/gcc/riscv-nuclei-elf/9.2.0/../../../../riscv-nuclei-elf/lib/rv32imafc/ilp32f\libm.a(lib_a-sf_copysign.o)

.riscv.attributes
                0x0000000000000000       0x30
 .riscv.attributes
                0x0000000000000000       0x30 C:\TMP\nn_denoise_rtc_sample.elf.UaA6UP.ltrans0.ltrans.o
 .riscv.attributes
                0x0000000000000030       0x30 C:\TMP\nn_denoise_rtc_sample.elf.UaA6UP.ltrans1.ltrans.o
 .riscv.attributes
                0x0000000000000060       0x2e build/objs/ci130x_startup.o
 .riscv.attributes
                0x000000000000008e       0x30 ../../../libs\libnewlib_port.a(sbrk.o)
 .riscv.attributes
                0x00000000000000be       0x2e ../../../libs\libfreertos_port.a(portasm.o)
 .riscv.attributes
                0x00000000000000ec       0x2e d:/software/yuyin/qiqiyinqiluntai/riscv-nuclei-elf-gcc-9.2.0.0/gcc_fix_raissrc/bin/../lib/gcc/riscv-nuclei-elf/9.2.0/rv32imafc/ilp32f\libgcc.a(save-restore.o)
 .riscv.attributes
                0x000000000000011a       0x30 d:/software/yuyin/qiqiyinqiluntai/riscv-nuclei-elf-gcc-9.2.0.0/gcc_fix_raissrc/bin/../lib/gcc/riscv-nuclei-elf/9.2.0/rv32imafc/ilp32f\libgcc.a(adddf3.o)
 .riscv.attributes
                0x000000000000014a       0x30 d:/software/yuyin/qiqiyinqiluntai/riscv-nuclei-elf-gcc-9.2.0.0/gcc_fix_raissrc/bin/../lib/gcc/riscv-nuclei-elf/9.2.0/rv32imafc/ilp32f\libgcc.a(divdf3.o)
 .riscv.attributes
                0x000000000000017a       0x30 d:/software/yuyin/qiqiyinqiluntai/riscv-nuclei-elf-gcc-9.2.0.0/gcc_fix_raissrc/bin/../lib/gcc/riscv-nuclei-elf/9.2.0/rv32imafc/ilp32f\libgcc.a(eqdf2.o)
 .riscv.attributes
                0x00000000000001aa       0x30 d:/software/yuyin/qiqiyinqiluntai/riscv-nuclei-elf-gcc-9.2.0.0/gcc_fix_raissrc/bin/../lib/gcc/riscv-nuclei-elf/9.2.0/rv32imafc/ilp32f\libgcc.a(gedf2.o)
 .riscv.attributes
                0x00000000000001da       0x30 d:/software/yuyin/qiqiyinqiluntai/riscv-nuclei-elf-gcc-9.2.0.0/gcc_fix_raissrc/bin/../lib/gcc/riscv-nuclei-elf/9.2.0/rv32imafc/ilp32f\libgcc.a(ledf2.o)
 .riscv.attributes
                0x000000000000020a       0x30 d:/software/yuyin/qiqiyinqiluntai/riscv-nuclei-elf-gcc-9.2.0.0/gcc_fix_raissrc/bin/../lib/gcc/riscv-nuclei-elf/9.2.0/rv32imafc/ilp32f\libgcc.a(muldf3.o)
 .riscv.attributes
                0x000000000000023a       0x30 d:/software/yuyin/qiqiyinqiluntai/riscv-nuclei-elf-gcc-9.2.0.0/gcc_fix_raissrc/bin/../lib/gcc/riscv-nuclei-elf/9.2.0/rv32imafc/ilp32f\libgcc.a(subdf3.o)
 .riscv.attributes
                0x000000000000026a       0x30 d:/software/yuyin/qiqiyinqiluntai/riscv-nuclei-elf-gcc-9.2.0.0/gcc_fix_raissrc/bin/../lib/gcc/riscv-nuclei-elf/9.2.0/rv32imafc/ilp32f\libgcc.a(unorddf2.o)
 .riscv.attributes
                0x000000000000029a       0x30 d:/software/yuyin/qiqiyinqiluntai/riscv-nuclei-elf-gcc-9.2.0.0/gcc_fix_raissrc/bin/../lib/gcc/riscv-nuclei-elf/9.2.0/rv32imafc/ilp32f\libgcc.a(fixdfsi.o)
 .riscv.attributes
                0x00000000000002ca       0x30 d:/software/yuyin/qiqiyinqiluntai/riscv-nuclei-elf-gcc-9.2.0.0/gcc_fix_raissrc/bin/../lib/gcc/riscv-nuclei-elf/9.2.0/rv32imafc/ilp32f\libgcc.a(floatsidf.o)
 .riscv.attributes
                0x00000000000002fa       0x30 d:/software/yuyin/qiqiyinqiluntai/riscv-nuclei-elf-gcc-9.2.0.0/gcc_fix_raissrc/bin/../lib/gcc/riscv-nuclei-elf/9.2.0/rv32imafc/ilp32f\libgcc.a(extendsfdf2.o)
 .riscv.attributes
                0x000000000000032a       0x30 d:/software/yuyin/qiqiyinqiluntai/riscv-nuclei-elf-gcc-9.2.0.0/gcc_fix_raissrc/bin/../lib/gcc/riscv-nuclei-elf/9.2.0/rv32imafc/ilp32f\libgcc.a(truncdfsf2.o)
 .riscv.attributes
                0x000000000000035a       0x30 d:/software/yuyin/qiqiyinqiluntai/riscv-nuclei-elf-gcc-9.2.0.0/gcc_fix_raissrc/bin/../lib/gcc/riscv-nuclei-elf/9.2.0/rv32imafc/ilp32f\libgcc.a(_clzsi2.o)
 .riscv.attributes
                0x000000000000038a       0x30 d:/software/yuyin/qiqiyinqiluntai/riscv-nuclei-elf-gcc-9.2.0.0/gcc_fix_raissrc/bin/../lib/gcc/riscv-nuclei-elf/9.2.0/rv32imafc/ilp32f\libgcc.a(_clz.o)
 .riscv.attributes
                0x00000000000003ba       0x30 d:/software/yuyin/qiqiyinqiluntai/riscv-nuclei-elf-gcc-9.2.0.0/gcc_fix_raissrc/bin/../lib/gcc/riscv-nuclei-elf/9.2.0/../../../../riscv-nuclei-elf/lib/rv32imafc/ilp32f\libg_nano.a(lib_a-atexit.o)
 .riscv.attributes
                0x00000000000003ea       0x30 d:/software/yuyin/qiqiyinqiluntai/riscv-nuclei-elf-gcc-9.2.0.0/gcc_fix_raissrc/bin/../lib/gcc/riscv-nuclei-elf/9.2.0/../../../../riscv-nuclei-elf/lib/rv32imafc/ilp32f\libg_nano.a(lib_a-exit.o)
 .riscv.attributes
                0x000000000000041a       0x30 d:/software/yuyin/qiqiyinqiluntai/riscv-nuclei-elf-gcc-9.2.0.0/gcc_fix_raissrc/bin/../lib/gcc/riscv-nuclei-elf/9.2.0/../../../../riscv-nuclei-elf/lib/rv32imafc/ilp32f\libg_nano.a(lib_a-fini.o)
 .riscv.attributes
                0x000000000000044a       0x30 d:/software/yuyin/qiqiyinqiluntai/riscv-nuclei-elf-gcc-9.2.0.0/gcc_fix_raissrc/bin/../lib/gcc/riscv-nuclei-elf/9.2.0/../../../../riscv-nuclei-elf/lib/rv32imafc/ilp32f\libg_nano.a(lib_a-impure.o)
 .riscv.attributes
                0x000000000000047a       0x30 d:/software/yuyin/qiqiyinqiluntai/riscv-nuclei-elf-gcc-9.2.0.0/gcc_fix_raissrc/bin/../lib/gcc/riscv-nuclei-elf/9.2.0/../../../../riscv-nuclei-elf/lib/rv32imafc/ilp32f\libg_nano.a(lib_a-init.o)
 .riscv.attributes
                0x00000000000004aa       0x30 d:/software/yuyin/qiqiyinqiluntai/riscv-nuclei-elf-gcc-9.2.0.0/gcc_fix_raissrc/bin/../lib/gcc/riscv-nuclei-elf/9.2.0/../../../../riscv-nuclei-elf/lib/rv32imafc/ilp32f\libg_nano.a(lib_a-__atexit.o)
 .riscv.attributes
                0x00000000000004da       0x30 d:/software/yuyin/qiqiyinqiluntai/riscv-nuclei-elf-gcc-9.2.0.0/gcc_fix_raissrc/bin/../lib/gcc/riscv-nuclei-elf/9.2.0/../../../../riscv-nuclei-elf/lib/rv32imafc/ilp32f\libg_nano.a(lib_a-__call_atexit.o)
 .riscv.attributes
                0x000000000000050a       0x30 d:/software/yuyin/qiqiyinqiluntai/riscv-nuclei-elf-gcc-9.2.0.0/gcc_fix_raissrc/bin/../lib/gcc/riscv-nuclei-elf/9.2.0/../../../../riscv-nuclei-elf/lib/rv32imafc/ilp32f\libg_nano.a(lib_a-calloc.o)
 .riscv.attributes
                0x000000000000053a       0x30 d:/software/yuyin/qiqiyinqiluntai/riscv-nuclei-elf-gcc-9.2.0.0/gcc_fix_raissrc/bin/../lib/gcc/riscv-nuclei-elf/9.2.0/../../../../riscv-nuclei-elf/lib/rv32imafc/ilp32f\libg_nano.a(lib_a-fprintf.o)
 .riscv.attributes
                0x000000000000056a       0x30 d:/software/yuyin/qiqiyinqiluntai/riscv-nuclei-elf-gcc-9.2.0.0/gcc_fix_raissrc/bin/../lib/gcc/riscv-nuclei-elf/9.2.0/../../../../riscv-nuclei-elf/lib/rv32imafc/ilp32f\libg_nano.a(lib_a-nano-callocr.o)
 .riscv.attributes
                0x000000000000059a       0x30 d:/software/yuyin/qiqiyinqiluntai/riscv-nuclei-elf-gcc-9.2.0.0/gcc_fix_raissrc/bin/../lib/gcc/riscv-nuclei-elf/9.2.0/../../../../riscv-nuclei-elf/lib/rv32imafc/ilp32f\libg_nano.a(lib_a-nano-mallocr.o)
 .riscv.attributes
                0x00000000000005ca       0x30 d:/software/yuyin/qiqiyinqiluntai/riscv-nuclei-elf-gcc-9.2.0.0/gcc_fix_raissrc/bin/../lib/gcc/riscv-nuclei-elf/9.2.0/../../../../riscv-nuclei-elf/lib/rv32imafc/ilp32f\libg_nano.a(lib_a-nano-vfprintf.o)
 .riscv.attributes
                0x00000000000005fa       0x30 d:/software/yuyin/qiqiyinqiluntai/riscv-nuclei-elf-gcc-9.2.0.0/gcc_fix_raissrc/bin/../lib/gcc/riscv-nuclei-elf/9.2.0/../../../../riscv-nuclei-elf/lib/rv32imafc/ilp32f\libg_nano.a(lib_a-realloc.o)
 .riscv.attributes
                0x000000000000062a       0x30 d:/software/yuyin/qiqiyinqiluntai/riscv-nuclei-elf-gcc-9.2.0.0/gcc_fix_raissrc/bin/../lib/gcc/riscv-nuclei-elf/9.2.0/../../../../riscv-nuclei-elf/lib/rv32imafc/ilp32f\libg_nano.a(lib_a-sbrkr.o)
 .riscv.attributes
                0x000000000000065a       0x30 d:/software/yuyin/qiqiyinqiluntai/riscv-nuclei-elf-gcc-9.2.0.0/gcc_fix_raissrc/bin/../lib/gcc/riscv-nuclei-elf/9.2.0/../../../../riscv-nuclei-elf/lib/rv32imafc/ilp32f\libg_nano.a(lib_a-wbuf.o)
 .riscv.attributes
                0x000000000000068a       0x30 d:/software/yuyin/qiqiyinqiluntai/riscv-nuclei-elf-gcc-9.2.0.0/gcc_fix_raissrc/bin/../lib/gcc/riscv-nuclei-elf/9.2.0/../../../../riscv-nuclei-elf/lib/rv32imafc/ilp32f\libg_nano.a(lib_a-wsetup.o)
 .riscv.attributes
                0x00000000000006ba       0x30 d:/software/yuyin/qiqiyinqiluntai/riscv-nuclei-elf-gcc-9.2.0.0/gcc_fix_raissrc/bin/../lib/gcc/riscv-nuclei-elf/9.2.0/../../../../riscv-nuclei-elf/lib/rv32imafc/ilp32f\libg_nano.a(lib_a-fflush.o)
 .riscv.attributes
                0x00000000000006ea       0x30 d:/software/yuyin/qiqiyinqiluntai/riscv-nuclei-elf-gcc-9.2.0.0/gcc_fix_raissrc/bin/../lib/gcc/riscv-nuclei-elf/9.2.0/../../../../riscv-nuclei-elf/lib/rv32imafc/ilp32f\libg_nano.a(lib_a-findfp.o)
 .riscv.attributes
                0x000000000000071a       0x30 d:/software/yuyin/qiqiyinqiluntai/riscv-nuclei-elf-gcc-9.2.0.0/gcc_fix_raissrc/bin/../lib/gcc/riscv-nuclei-elf/9.2.0/../../../../riscv-nuclei-elf/lib/rv32imafc/ilp32f\libg_nano.a(lib_a-fwalk.o)
 .riscv.attributes
                0x000000000000074a       0x30 d:/software/yuyin/qiqiyinqiluntai/riscv-nuclei-elf-gcc-9.2.0.0/gcc_fix_raissrc/bin/../lib/gcc/riscv-nuclei-elf/9.2.0/../../../../riscv-nuclei-elf/lib/rv32imafc/ilp32f\libg_nano.a(lib_a-makebuf.o)
 .riscv.attributes
                0x000000000000077a       0x30 d:/software/yuyin/qiqiyinqiluntai/riscv-nuclei-elf-gcc-9.2.0.0/gcc_fix_raissrc/bin/../lib/gcc/riscv-nuclei-elf/9.2.0/../../../../riscv-nuclei-elf/lib/rv32imafc/ilp32f\libg_nano.a(lib_a-memchr.o)
 .riscv.attributes
                0x00000000000007aa       0x30 d:/software/yuyin/qiqiyinqiluntai/riscv-nuclei-elf-gcc-9.2.0.0/gcc_fix_raissrc/bin/../lib/gcc/riscv-nuclei-elf/9.2.0/../../../../riscv-nuclei-elf/lib/rv32imafc/ilp32f\libg_nano.a(lib_a-nano-freer.o)
 .riscv.attributes
                0x00000000000007da       0x30 d:/software/yuyin/qiqiyinqiluntai/riscv-nuclei-elf-gcc-9.2.0.0/gcc_fix_raissrc/bin/../lib/gcc/riscv-nuclei-elf/9.2.0/../../../../riscv-nuclei-elf/lib/rv32imafc/ilp32f\libg_nano.a(lib_a-nano-reallocr.o)
 .riscv.attributes
                0x000000000000080a       0x30 d:/software/yuyin/qiqiyinqiluntai/riscv-nuclei-elf-gcc-9.2.0.0/gcc_fix_raissrc/bin/../lib/gcc/riscv-nuclei-elf/9.2.0/../../../../riscv-nuclei-elf/lib/rv32imafc/ilp32f\libg_nano.a(lib_a-nano-vfprintf_i.o)
 .riscv.attributes
                0x000000000000083a       0x30 d:/software/yuyin/qiqiyinqiluntai/riscv-nuclei-elf-gcc-9.2.0.0/gcc_fix_raissrc/bin/../lib/gcc/riscv-nuclei-elf/9.2.0/../../../../riscv-nuclei-elf/lib/rv32imafc/ilp32f\libg_nano.a(lib_a-reent.o)
 .riscv.attributes
                0x000000000000086a       0x30 d:/software/yuyin/qiqiyinqiluntai/riscv-nuclei-elf-gcc-9.2.0.0/gcc_fix_raissrc/bin/../lib/gcc/riscv-nuclei-elf/9.2.0/../../../../riscv-nuclei-elf/lib/rv32imafc/ilp32f\libg_nano.a(lib_a-stdio.o)
 .riscv.attributes
                0x000000000000089a       0x30 d:/software/yuyin/qiqiyinqiluntai/riscv-nuclei-elf-gcc-9.2.0.0/gcc_fix_raissrc/bin/../lib/gcc/riscv-nuclei-elf/9.2.0/../../../../riscv-nuclei-elf/lib/rv32imafc/ilp32f\libg_nano.a(lib_a-writer.o)
 .riscv.attributes
                0x00000000000008ca       0x30 d:/software/yuyin/qiqiyinqiluntai/riscv-nuclei-elf-gcc-9.2.0.0/gcc_fix_raissrc/bin/../lib/gcc/riscv-nuclei-elf/9.2.0/../../../../riscv-nuclei-elf/lib/rv32imafc/ilp32f\libg_nano.a(lib_a-closer.o)
 .riscv.attributes
                0x00000000000008fa       0x30 d:/software/yuyin/qiqiyinqiluntai/riscv-nuclei-elf-gcc-9.2.0.0/gcc_fix_raissrc/bin/../lib/gcc/riscv-nuclei-elf/9.2.0/../../../../riscv-nuclei-elf/lib/rv32imafc/ilp32f\libg_nano.a(lib_a-fstatr.o)
 .riscv.attributes
                0x000000000000092a       0x30 d:/software/yuyin/qiqiyinqiluntai/riscv-nuclei-elf-gcc-9.2.0.0/gcc_fix_raissrc/bin/../lib/gcc/riscv-nuclei-elf/9.2.0/../../../../riscv-nuclei-elf/lib/rv32imafc/ilp32f\libg_nano.a(lib_a-isattyr.o)
 .riscv.attributes
                0x000000000000095a       0x30 d:/software/yuyin/qiqiyinqiluntai/riscv-nuclei-elf-gcc-9.2.0.0/gcc_fix_raissrc/bin/../lib/gcc/riscv-nuclei-elf/9.2.0/../../../../riscv-nuclei-elf/lib/rv32imafc/ilp32f\libg_nano.a(lib_a-lseekr.o)
 .riscv.attributes
                0x000000000000098a       0x30 d:/software/yuyin/qiqiyinqiluntai/riscv-nuclei-elf-gcc-9.2.0.0/gcc_fix_raissrc/bin/../lib/gcc/riscv-nuclei-elf/9.2.0/../../../../riscv-nuclei-elf/lib/rv32imafc/ilp32f\libg_nano.a(lib_a-nano-msizer.o)
 .riscv.attributes
                0x00000000000009ba       0x30 d:/software/yuyin/qiqiyinqiluntai/riscv-nuclei-elf-gcc-9.2.0.0/gcc_fix_raissrc/bin/../lib/gcc/riscv-nuclei-elf/9.2.0/../../../../riscv-nuclei-elf/lib/rv32imafc/ilp32f\libg_nano.a(lib_a-readr.o)
 .riscv.attributes
                0x00000000000009ea       0x30 d:/software/yuyin/qiqiyinqiluntai/riscv-nuclei-elf-gcc-9.2.0.0/gcc_fix_raissrc/bin/../lib/gcc/riscv-nuclei-elf/9.2.0/../../../../riscv-nuclei-elf/lib/rv32imafc/ilp32f\libgloss_nano.a(sys_exit.o)
 .riscv.attributes
                0x0000000000000a1a       0x30 d:/software/yuyin/qiqiyinqiluntai/riscv-nuclei-elf-gcc-9.2.0.0/gcc_fix_raissrc/bin/../lib/gcc/riscv-nuclei-elf/9.2.0/../../../../riscv-nuclei-elf/lib/rv32imafc/ilp32f\libgloss_nano.a(sys_close.o)
 .riscv.attributes
                0x0000000000000a4a       0x30 d:/software/yuyin/qiqiyinqiluntai/riscv-nuclei-elf-gcc-9.2.0.0/gcc_fix_raissrc/bin/../lib/gcc/riscv-nuclei-elf/9.2.0/../../../../riscv-nuclei-elf/lib/rv32imafc/ilp32f\libgloss_nano.a(sys_fstat.o)
 .riscv.attributes
                0x0000000000000a7a       0x30 d:/software/yuyin/qiqiyinqiluntai/riscv-nuclei-elf-gcc-9.2.0.0/gcc_fix_raissrc/bin/../lib/gcc/riscv-nuclei-elf/9.2.0/../../../../riscv-nuclei-elf/lib/rv32imafc/ilp32f\libgloss_nano.a(sys_isatty.o)
 .riscv.attributes
                0x0000000000000aaa       0x30 d:/software/yuyin/qiqiyinqiluntai/riscv-nuclei-elf-gcc-9.2.0.0/gcc_fix_raissrc/bin/../lib/gcc/riscv-nuclei-elf/9.2.0/../../../../riscv-nuclei-elf/lib/rv32imafc/ilp32f\libgloss_nano.a(sys_lseek.o)
 .riscv.attributes
                0x0000000000000ada       0x30 d:/software/yuyin/qiqiyinqiluntai/riscv-nuclei-elf-gcc-9.2.0.0/gcc_fix_raissrc/bin/../lib/gcc/riscv-nuclei-elf/9.2.0/../../../../riscv-nuclei-elf/lib/rv32imafc/ilp32f\libgloss_nano.a(sys_read.o)
 .riscv.attributes
                0x0000000000000b0a       0x30 d:/software/yuyin/qiqiyinqiluntai/riscv-nuclei-elf-gcc-9.2.0.0/gcc_fix_raissrc/bin/../lib/gcc/riscv-nuclei-elf/9.2.0/../../../../riscv-nuclei-elf/lib/rv32imafc/ilp32f\libgloss_nano.a(sys_write.o)
 .riscv.attributes
                0x0000000000000b3a       0x30 d:/software/yuyin/qiqiyinqiluntai/riscv-nuclei-elf-gcc-9.2.0.0/gcc_fix_raissrc/bin/../lib/gcc/riscv-nuclei-elf/9.2.0/../../../../riscv-nuclei-elf/lib/rv32imafc/ilp32f\libgloss_nano.a(sys_conv_stat.o)
 .riscv.attributes
                0x0000000000000b6a       0x30 d:/software/yuyin/qiqiyinqiluntai/riscv-nuclei-elf-gcc-9.2.0.0/gcc_fix_raissrc/bin/../lib/gcc/riscv-nuclei-elf/9.2.0/../../../../riscv-nuclei-elf/lib/rv32imafc/ilp32f\libc_nano.a(lib_a-errno.o)
 .riscv.attributes
                0x0000000000000b9a       0x30 d:/software/yuyin/qiqiyinqiluntai/riscv-nuclei-elf-gcc-9.2.0.0/gcc_fix_raissrc/bin/../lib/gcc/riscv-nuclei-elf/9.2.0/../../../../riscv-nuclei-elf/lib/rv32imafc/ilp32f\libm.a(lib_a-s_floor.o)
 .riscv.attributes
                0x0000000000000bca       0x30 d:/software/yuyin/qiqiyinqiluntai/riscv-nuclei-elf-gcc-9.2.0.0/gcc_fix_raissrc/bin/../lib/gcc/riscv-nuclei-elf/9.2.0/../../../../riscv-nuclei-elf/lib/rv32imafc/ilp32f\libm.a(lib_a-w_acos.o)
 .riscv.attributes
                0x0000000000000bfa       0x30 d:/software/yuyin/qiqiyinqiluntai/riscv-nuclei-elf-gcc-9.2.0.0/gcc_fix_raissrc/bin/../lib/gcc/riscv-nuclei-elf/9.2.0/../../../../riscv-nuclei-elf/lib/rv32imafc/ilp32f\libm.a(lib_a-w_exp.o)
 .riscv.attributes
                0x0000000000000c2a       0x30 d:/software/yuyin/qiqiyinqiluntai/riscv-nuclei-elf-gcc-9.2.0.0/gcc_fix_raissrc/bin/../lib/gcc/riscv-nuclei-elf/9.2.0/../../../../riscv-nuclei-elf/lib/rv32imafc/ilp32f\libm.a(lib_a-wf_pow.o)
 .riscv.attributes
                0x0000000000000c5a       0x30 d:/software/yuyin/qiqiyinqiluntai/riscv-nuclei-elf-gcc-9.2.0.0/gcc_fix_raissrc/bin/../lib/gcc/riscv-nuclei-elf/9.2.0/../../../../riscv-nuclei-elf/lib/rv32imafc/ilp32f\libm.a(lib_a-w_log.o)
 .riscv.attributes
                0x0000000000000c8a       0x30 d:/software/yuyin/qiqiyinqiluntai/riscv-nuclei-elf-gcc-9.2.0.0/gcc_fix_raissrc/bin/../lib/gcc/riscv-nuclei-elf/9.2.0/../../../../riscv-nuclei-elf/lib/rv32imafc/ilp32f\libm.a(lib_a-w_sqrt.o)
 .riscv.attributes
                0x0000000000000cba       0x30 d:/software/yuyin/qiqiyinqiluntai/riscv-nuclei-elf-gcc-9.2.0.0/gcc_fix_raissrc/bin/../lib/gcc/riscv-nuclei-elf/9.2.0/../../../../riscv-nuclei-elf/lib/rv32imafc/ilp32f\libm.a(lib_a-e_acos.o)
 .riscv.attributes
                0x0000000000000cea       0x30 d:/software/yuyin/qiqiyinqiluntai/riscv-nuclei-elf-gcc-9.2.0.0/gcc_fix_raissrc/bin/../lib/gcc/riscv-nuclei-elf/9.2.0/../../../../riscv-nuclei-elf/lib/rv32imafc/ilp32f\libm.a(lib_a-e_exp.o)
 .riscv.attributes
                0x0000000000000d1a       0x30 d:/software/yuyin/qiqiyinqiluntai/riscv-nuclei-elf-gcc-9.2.0.0/gcc_fix_raissrc/bin/../lib/gcc/riscv-nuclei-elf/9.2.0/../../../../riscv-nuclei-elf/lib/rv32imafc/ilp32f\libm.a(lib_a-ef_pow.o)
 .riscv.attributes
                0x0000000000000d4a       0x30 d:/software/yuyin/qiqiyinqiluntai/riscv-nuclei-elf-gcc-9.2.0.0/gcc_fix_raissrc/bin/../lib/gcc/riscv-nuclei-elf/9.2.0/../../../../riscv-nuclei-elf/lib/rv32imafc/ilp32f\libm.a(lib_a-ef_sqrt.o)
 .riscv.attributes
                0x0000000000000d7a       0x30 d:/software/yuyin/qiqiyinqiluntai/riscv-nuclei-elf-gcc-9.2.0.0/gcc_fix_raissrc/bin/../lib/gcc/riscv-nuclei-elf/9.2.0/../../../../riscv-nuclei-elf/lib/rv32imafc/ilp32f\libm.a(lib_a-e_log.o)
 .riscv.attributes
                0x0000000000000daa       0x30 d:/software/yuyin/qiqiyinqiluntai/riscv-nuclei-elf-gcc-9.2.0.0/gcc_fix_raissrc/bin/../lib/gcc/riscv-nuclei-elf/9.2.0/../../../../riscv-nuclei-elf/lib/rv32imafc/ilp32f\libm.a(lib_a-e_sqrt.o)
 .riscv.attributes
                0x0000000000000dda       0x30 d:/software/yuyin/qiqiyinqiluntai/riscv-nuclei-elf-gcc-9.2.0.0/gcc_fix_raissrc/bin/../lib/gcc/riscv-nuclei-elf/9.2.0/../../../../riscv-nuclei-elf/lib/rv32imafc/ilp32f\libm.a(lib_a-s_fabs.o)
 .riscv.attributes
                0x0000000000000e0a       0x30 d:/software/yuyin/qiqiyinqiluntai/riscv-nuclei-elf-gcc-9.2.0.0/gcc_fix_raissrc/bin/../lib/gcc/riscv-nuclei-elf/9.2.0/../../../../riscv-nuclei-elf/lib/rv32imafc/ilp32f\libm.a(lib_a-sf_finite.o)
 .riscv.attributes
                0x0000000000000e3a       0x30 d:/software/yuyin/qiqiyinqiluntai/riscv-nuclei-elf-gcc-9.2.0.0/gcc_fix_raissrc/bin/../lib/gcc/riscv-nuclei-elf/9.2.0/../../../../riscv-nuclei-elf/lib/rv32imafc/ilp32f\libm.a(lib_a-s_finite.o)
 .riscv.attributes
                0x0000000000000e6a       0x30 d:/software/yuyin/qiqiyinqiluntai/riscv-nuclei-elf-gcc-9.2.0.0/gcc_fix_raissrc/bin/../lib/gcc/riscv-nuclei-elf/9.2.0/../../../../riscv-nuclei-elf/lib/rv32imafc/ilp32f\libm.a(lib_a-sf_nan.o)
 .riscv.attributes
                0x0000000000000e9a       0x30 d:/software/yuyin/qiqiyinqiluntai/riscv-nuclei-elf-gcc-9.2.0.0/gcc_fix_raissrc/bin/../lib/gcc/riscv-nuclei-elf/9.2.0/../../../../riscv-nuclei-elf/lib/rv32imafc/ilp32f\libm.a(lib_a-sf_rint.o)
 .riscv.attributes
                0x0000000000000eca       0x30 d:/software/yuyin/qiqiyinqiluntai/riscv-nuclei-elf-gcc-9.2.0.0/gcc_fix_raissrc/bin/../lib/gcc/riscv-nuclei-elf/9.2.0/../../../../riscv-nuclei-elf/lib/rv32imafc/ilp32f\libm.a(lib_a-sf_scalbn.o)
 .riscv.attributes
                0x0000000000000efa       0x30 d:/software/yuyin/qiqiyinqiluntai/riscv-nuclei-elf-gcc-9.2.0.0/gcc_fix_raissrc/bin/../lib/gcc/riscv-nuclei-elf/9.2.0/../../../../riscv-nuclei-elf/lib/rv32imafc/ilp32f\libm.a(lib_a-s_lib_ver.o)
 .riscv.attributes
                0x0000000000000f2a       0x30 d:/software/yuyin/qiqiyinqiluntai/riscv-nuclei-elf-gcc-9.2.0.0/gcc_fix_raissrc/bin/../lib/gcc/riscv-nuclei-elf/9.2.0/../../../../riscv-nuclei-elf/lib/rv32imafc/ilp32f\libm.a(lib_a-s_matherr.o)
 .riscv.attributes
                0x0000000000000f5a       0x30 d:/software/yuyin/qiqiyinqiluntai/riscv-nuclei-elf-gcc-9.2.0.0/gcc_fix_raissrc/bin/../lib/gcc/riscv-nuclei-elf/9.2.0/../../../../riscv-nuclei-elf/lib/rv32imafc/ilp32f\libm.a(lib_a-s_nan.o)
 .riscv.attributes
                0x0000000000000f8a       0x30 d:/software/yuyin/qiqiyinqiluntai/riscv-nuclei-elf-gcc-9.2.0.0/gcc_fix_raissrc/bin/../lib/gcc/riscv-nuclei-elf/9.2.0/../../../../riscv-nuclei-elf/lib/rv32imafc/ilp32f\libm.a(lib_a-sf_copysign.o)

.debug_frame    0x0000000000000000     0x31a4
 .debug_frame   0x0000000000000000     0x1914 C:\TMP\nn_denoise_rtc_sample.elf.UaA6UP.ltrans0.ltrans.o
 .debug_frame   0x0000000000001914     0x1140 C:\TMP\nn_denoise_rtc_sample.elf.UaA6UP.ltrans1.ltrans.o
 .debug_frame   0x0000000000002a54      0x4c4 ../../../libs\libnewlib_port.a(sbrk.o)
 .debug_frame   0x0000000000002f18       0x44 d:/software/yuyin/qiqiyinqiluntai/riscv-nuclei-elf-gcc-9.2.0.0/gcc_fix_raissrc/bin/../lib/gcc/riscv-nuclei-elf/9.2.0/rv32imafc/ilp32f\libgcc.a(adddf3.o)
 .debug_frame   0x0000000000002f5c       0x58 d:/software/yuyin/qiqiyinqiluntai/riscv-nuclei-elf-gcc-9.2.0.0/gcc_fix_raissrc/bin/../lib/gcc/riscv-nuclei-elf/9.2.0/rv32imafc/ilp32f\libgcc.a(divdf3.o)
 .debug_frame   0x0000000000002fb4       0x20 d:/software/yuyin/qiqiyinqiluntai/riscv-nuclei-elf-gcc-9.2.0.0/gcc_fix_raissrc/bin/../lib/gcc/riscv-nuclei-elf/9.2.0/rv32imafc/ilp32f\libgcc.a(eqdf2.o)
 .debug_frame   0x0000000000002fd4       0x20 d:/software/yuyin/qiqiyinqiluntai/riscv-nuclei-elf-gcc-9.2.0.0/gcc_fix_raissrc/bin/../lib/gcc/riscv-nuclei-elf/9.2.0/rv32imafc/ilp32f\libgcc.a(gedf2.o)
 .debug_frame   0x0000000000002ff4       0x20 d:/software/yuyin/qiqiyinqiluntai/riscv-nuclei-elf-gcc-9.2.0.0/gcc_fix_raissrc/bin/../lib/gcc/riscv-nuclei-elf/9.2.0/rv32imafc/ilp32f\libgcc.a(ledf2.o)
 .debug_frame   0x0000000000003014       0x58 d:/software/yuyin/qiqiyinqiluntai/riscv-nuclei-elf-gcc-9.2.0.0/gcc_fix_raissrc/bin/../lib/gcc/riscv-nuclei-elf/9.2.0/rv32imafc/ilp32f\libgcc.a(muldf3.o)
 .debug_frame   0x000000000000306c       0x44 d:/software/yuyin/qiqiyinqiluntai/riscv-nuclei-elf-gcc-9.2.0.0/gcc_fix_raissrc/bin/../lib/gcc/riscv-nuclei-elf/9.2.0/rv32imafc/ilp32f\libgcc.a(subdf3.o)
 .debug_frame   0x00000000000030b0       0x20 d:/software/yuyin/qiqiyinqiluntai/riscv-nuclei-elf-gcc-9.2.0.0/gcc_fix_raissrc/bin/../lib/gcc/riscv-nuclei-elf/9.2.0/rv32imafc/ilp32f\libgcc.a(unorddf2.o)
 .debug_frame   0x00000000000030d0       0x20 d:/software/yuyin/qiqiyinqiluntai/riscv-nuclei-elf-gcc-9.2.0.0/gcc_fix_raissrc/bin/../lib/gcc/riscv-nuclei-elf/9.2.0/rv32imafc/ilp32f\libgcc.a(fixdfsi.o)
 .debug_frame   0x00000000000030f0       0x38 d:/software/yuyin/qiqiyinqiluntai/riscv-nuclei-elf-gcc-9.2.0.0/gcc_fix_raissrc/bin/../lib/gcc/riscv-nuclei-elf/9.2.0/rv32imafc/ilp32f\libgcc.a(floatsidf.o)
 .debug_frame   0x0000000000003128       0x3c d:/software/yuyin/qiqiyinqiluntai/riscv-nuclei-elf-gcc-9.2.0.0/gcc_fix_raissrc/bin/../lib/gcc/riscv-nuclei-elf/9.2.0/rv32imafc/ilp32f\libgcc.a(extendsfdf2.o)
 .debug_frame   0x0000000000003164       0x20 d:/software/yuyin/qiqiyinqiluntai/riscv-nuclei-elf-gcc-9.2.0.0/gcc_fix_raissrc/bin/../lib/gcc/riscv-nuclei-elf/9.2.0/rv32imafc/ilp32f\libgcc.a(truncdfsf2.o)
 .debug_frame   0x0000000000003184       0x20 d:/software/yuyin/qiqiyinqiluntai/riscv-nuclei-elf-gcc-9.2.0.0/gcc_fix_raissrc/bin/../lib/gcc/riscv-nuclei-elf/9.2.0/rv32imafc/ilp32f\libgcc.a(_clzsi2.o)
