Archive member included to satisfy reference by file (symbol)

../../../libs\libasr.a(asr_top_outside_port.o)
                              build/objs/command_info.o (symbol from plugin) (asrtop_asr_system_create_model)
../../../libs\libasr.a(decoder_inner_port_rpmsg.o)
                              build/objs/main.o (symbol from plugin) (decoder_port_inner_rpmsg_init)
../../../libs\libasr.a(decoder_manage.o)
                              decoder_inner_port_rpmsg.o (symbol from plugin) (model_parameter_info_clear)
../../../libs\libasr.a(dynmic_confidence.o)
                              build/objs/system_msg_deal.o (symbol from plugin) (dynmic_confidence_config)
../../../libs\libasr.a(dnn_outside_port.o)
                              decoder_manage.o (symbol from plugin) (get_dnn_version)
../../../libs\libasr.a(flash_manage_outside_port.o)
                              build/objs/ci_flash_data_info.o (symbol from plugin) (is_flash_power_off)
../../../libs\libasr.a(vad_fe_outside_port.o)
                              decoder_manage.o (symbol from plugin) (cmvn_update_mean_var_config)
../../../libs\libasr.a(asr_dealwith_result.o)
                              decoder_manage.o (symbol from plugin) (app_deal_asr_reuslt_callback)
../../../libs\libasr.a(asrbest_result.o)
                              decoder_manage.o (symbol from plugin) (asrbest_result_init)
../../../libs\libasr.a(cmp_twice_confidence.o)
                              decoder_manage.o (symbol from plugin) (cmp_twice_init)
../../../libs\libasr.a(decide_result.o)
                              decoder_manage.o (symbol from plugin) (decide_init)
../../../libs\libeq.a(ci_eq.o)
                              build/objs/system_msg_deal.o (symbol from plugin) (ci_eq_deal)
../../../libs\libeq.a(ci_eq_coef.o)
                              ci_eq.o (symbol from plugin) (eq_coef_highfreq)
../../../libs\libnewlib_port.a(sbrk.o)
                              build/objs/platform_config.o (symbol from plugin) (sbrk)
../../../libs\libfreertos_port.a(port.o)
                              build/objs/event_groups.o (symbol from plugin) (vPortSetMSIPInt)
../../../libs\libfreertos_port.a(portasm.o)
                              port.o (symbol from plugin) (vPortYield)
../../../libs\libdsu.a(ci130x_dsu.o)
                              build/objs/main.o (symbol from plugin) (dsu_init)
../../../libs\libdsu.a(ci130x_mailbox.o)
                              build/objs/platform_config.o (symbol from plugin) (mailbox_preinit)
../../../libs\libdsu.a(ci130x_scu.o)
                              build/objs/ci130x_init.o (symbol from plugin) (scu_unlock_system_config)
../../../libs\libdsu.a(ci130x_efuse.o)
                              ci130x_dsu.o (symbol from plugin) (efuse_unlock)
../../../libs\libdsu.a(ci130x_dpmu.o)
                              build/objs/ci130x_init.o (symbol from plugin) (dpmu_unlock_cfg_config)
../../../libs\libdsu.a(ci130x_nuclear_com.o)
                              build/objs/flash_control_inner_port.o (symbol from plugin) (nuclear_com_registe_serve)
../../../libs\libdsu.a(remote_api_for_host.o)
                              build/objs/main.o (symbol from plugin) (rc_caller_set_ssp_registe)
d:/software/yuyin/qiqiyinqiluntai/riscv-nuclei-elf-gcc-9.2.0.0/gcc_fix_raissrc/bin/../lib/gcc/riscv-nuclei-elf/9.2.0/rv32imafc/ilp32f\libgcc.a(save-restore.o)
                              ../../../libs\libnewlib_port.a(sbrk.o) (__riscv_save_4)
d:/software/yuyin/qiqiyinqiluntai/riscv-nuclei-elf-gcc-9.2.0.0/gcc_fix_raissrc/bin/../lib/gcc/riscv-nuclei-elf/9.2.0/../../../../riscv-nuclei-elf/lib/rv32imafc/ilp32f\libg_nano.a(lib_a-atexit.o)
                              build/objs/ci130x_startup.o (atexit)
d:/software/yuyin/qiqiyinqiluntai/riscv-nuclei-elf-gcc-9.2.0.0/gcc_fix_raissrc/bin/../lib/gcc/riscv-nuclei-elf/9.2.0/../../../../riscv-nuclei-elf/lib/rv32imafc/ilp32f\libg_nano.a(lib_a-exit.o)
                              build/objs/ci130x_startup.o (exit)
d:/software/yuyin/qiqiyinqiluntai/riscv-nuclei-elf-gcc-9.2.0.0/gcc_fix_raissrc/bin/../lib/gcc/riscv-nuclei-elf/9.2.0/../../../../riscv-nuclei-elf/lib/rv32imafc/ilp32f\libg_nano.a(lib_a-fini.o)
                              build/objs/ci130x_startup.o (__libc_fini_array)
d:/software/yuyin/qiqiyinqiluntai/riscv-nuclei-elf-gcc-9.2.0.0/gcc_fix_raissrc/bin/../lib/gcc/riscv-nuclei-elf/9.2.0/../../../../riscv-nuclei-elf/lib/rv32imafc/ilp32f\libg_nano.a(lib_a-impure.o)
                              d:/software/yuyin/qiqiyinqiluntai/riscv-nuclei-elf-gcc-9.2.0.0/gcc_fix_raissrc/bin/../lib/gcc/riscv-nuclei-elf/9.2.0/../../../../riscv-nuclei-elf/lib/rv32imafc/ilp32f\libg_nano.a(lib_a-exit.o) (_global_impure_ptr)
d:/software/yuyin/qiqiyinqiluntai/riscv-nuclei-elf-gcc-9.2.0.0/gcc_fix_raissrc/bin/../lib/gcc/riscv-nuclei-elf/9.2.0/../../../../riscv-nuclei-elf/lib/rv32imafc/ilp32f\libg_nano.a(lib_a-init.o)
                              build/objs/ci130x_startup.o (__libc_init_array)
d:/software/yuyin/qiqiyinqiluntai/riscv-nuclei-elf-gcc-9.2.0.0/gcc_fix_raissrc/bin/../lib/gcc/riscv-nuclei-elf/9.2.0/../../../../riscv-nuclei-elf/lib/rv32imafc/ilp32f\libg_nano.a(lib_a-rand.o)
                              build/objs/command_info.o (symbol from plugin) (rand)
d:/software/yuyin/qiqiyinqiluntai/riscv-nuclei-elf-gcc-9.2.0.0/gcc_fix_raissrc/bin/../lib/gcc/riscv-nuclei-elf/9.2.0/../../../../riscv-nuclei-elf/lib/rv32imafc/ilp32f\libg_nano.a(lib_a-__atexit.o)
                              d:/software/yuyin/qiqiyinqiluntai/riscv-nuclei-elf-gcc-9.2.0.0/gcc_fix_raissrc/bin/../lib/gcc/riscv-nuclei-elf/9.2.0/../../../../riscv-nuclei-elf/lib/rv32imafc/ilp32f\libg_nano.a(lib_a-atexit.o) (__register_exitproc)
d:/software/yuyin/qiqiyinqiluntai/riscv-nuclei-elf-gcc-9.2.0.0/gcc_fix_raissrc/bin/../lib/gcc/riscv-nuclei-elf/9.2.0/../../../../riscv-nuclei-elf/lib/rv32imafc/ilp32f\libg_nano.a(lib_a-__call_atexit.o)
                              d:/software/yuyin/qiqiyinqiluntai/riscv-nuclei-elf-gcc-9.2.0.0/gcc_fix_raissrc/bin/../lib/gcc/riscv-nuclei-elf/9.2.0/../../../../riscv-nuclei-elf/lib/rv32imafc/ilp32f\libg_nano.a(lib_a-__atexit.o) (__call_exitprocs)
d:/software/yuyin/qiqiyinqiluntai/riscv-nuclei-elf-gcc-9.2.0.0/gcc_fix_raissrc/bin/../lib/gcc/riscv-nuclei-elf/9.2.0/../../../../riscv-nuclei-elf/lib/rv32imafc/ilp32f\libgloss_nano.a(sys_exit.o)
                              d:/software/yuyin/qiqiyinqiluntai/riscv-nuclei-elf-gcc-9.2.0.0/gcc_fix_raissrc/bin/../lib/gcc/riscv-nuclei-elf/9.2.0/../../../../riscv-nuclei-elf/lib/rv32imafc/ilp32f\libg_nano.a(lib_a-exit.o) (_exit)
d:/software/yuyin/qiqiyinqiluntai/riscv-nuclei-elf-gcc-9.2.0.0/gcc_fix_raissrc/bin/../lib/gcc/riscv-nuclei-elf/9.2.0/../../../../riscv-nuclei-elf/lib/rv32imafc/ilp32f\libc_nano.a(lib_a-errno.o)
                              d:/software/yuyin/qiqiyinqiluntai/riscv-nuclei-elf-gcc-9.2.0.0/gcc_fix_raissrc/bin/../lib/gcc/riscv-nuclei-elf/9.2.0/../../../../riscv-nuclei-elf/lib/rv32imafc/ilp32f\libgloss_nano.a(sys_exit.o) (__errno)
d:/software/yuyin/qiqiyinqiluntai/riscv-nuclei-elf-gcc-9.2.0.0/gcc_fix_raissrc/bin/../lib/gcc/riscv-nuclei-elf/9.2.0/../../../../riscv-nuclei-elf/lib/rv32imafc/ilp32f\libm.a(lib_a-s_floor.o)
                              C:\TMP\nn_denoise_rtc_sample.elf.zkP8Mf.ltrans0.ltrans.o (floor)
d:/software/yuyin/qiqiyinqiluntai/riscv-nuclei-elf-gcc-9.2.0.0/gcc_fix_raissrc/bin/../lib/gcc/riscv-nuclei-elf/9.2.0/../../../../riscv-nuclei-elf/lib/rv32imafc/ilp32f\libm.a(lib_a-w_acos.o)
                              C:\TMP\nn_denoise_rtc_sample.elf.zkP8Mf.ltrans0.ltrans.o (acos)
d:/software/yuyin/qiqiyinqiluntai/riscv-nuclei-elf-gcc-9.2.0.0/gcc_fix_raissrc/bin/../lib/gcc/riscv-nuclei-elf/9.2.0/../../../../riscv-nuclei-elf/lib/rv32imafc/ilp32f\libm.a(lib_a-w_exp.o)
                              C:\TMP\nn_denoise_rtc_sample.elf.zkP8Mf.ltrans0.ltrans.o (exp)
d:/software/yuyin/qiqiyinqiluntai/riscv-nuclei-elf-gcc-9.2.0.0/gcc_fix_raissrc/bin/../lib/gcc/riscv-nuclei-elf/9.2.0/../../../../riscv-nuclei-elf/lib/rv32imafc/ilp32f\libm.a(lib_a-wf_pow.o)
                              C:\TMP\nn_denoise_rtc_sample.elf.zkP8Mf.ltrans0.ltrans.o (powf)
d:/software/yuyin/qiqiyinqiluntai/riscv-nuclei-elf-gcc-9.2.0.0/gcc_fix_raissrc/bin/../lib/gcc/riscv-nuclei-elf/9.2.0/../../../../riscv-nuclei-elf/lib/rv32imafc/ilp32f\libm.a(lib_a-w_log.o)
                              C:\TMP\nn_denoise_rtc_sample.elf.zkP8Mf.ltrans0.ltrans.o (log)
d:/software/yuyin/qiqiyinqiluntai/riscv-nuclei-elf-gcc-9.2.0.0/gcc_fix_raissrc/bin/../lib/gcc/riscv-nuclei-elf/9.2.0/../../../../riscv-nuclei-elf/lib/rv32imafc/ilp32f\libm.a(lib_a-w_sqrt.o)
                              C:\TMP\nn_denoise_rtc_sample.elf.zkP8Mf.ltrans0.ltrans.o (sqrt)
d:/software/yuyin/qiqiyinqiluntai/riscv-nuclei-elf-gcc-9.2.0.0/gcc_fix_raissrc/bin/../lib/gcc/riscv-nuclei-elf/9.2.0/../../../../riscv-nuclei-elf/lib/rv32imafc/ilp32f\libm.a(lib_a-e_acos.o)
                              d:/software/yuyin/qiqiyinqiluntai/riscv-nuclei-elf-gcc-9.2.0.0/gcc_fix_raissrc/bin/../lib/gcc/riscv-nuclei-elf/9.2.0/../../../../riscv-nuclei-elf/lib/rv32imafc/ilp32f\libm.a(lib_a-w_acos.o) (__ieee754_acos)
d:/software/yuyin/qiqiyinqiluntai/riscv-nuclei-elf-gcc-9.2.0.0/gcc_fix_raissrc/bin/../lib/gcc/riscv-nuclei-elf/9.2.0/../../../../riscv-nuclei-elf/lib/rv32imafc/ilp32f\libm.a(lib_a-e_exp.o)
                              d:/software/yuyin/qiqiyinqiluntai/riscv-nuclei-elf-gcc-9.2.0.0/gcc_fix_raissrc/bin/../lib/gcc/riscv-nuclei-elf/9.2.0/../../../../riscv-nuclei-elf/lib/rv32imafc/ilp32f\libm.a(lib_a-w_exp.o) (__ieee754_exp)
d:/software/yuyin/qiqiyinqiluntai/riscv-nuclei-elf-gcc-9.2.0.0/gcc_fix_raissrc/bin/../lib/gcc/riscv-nuclei-elf/9.2.0/../../../../riscv-nuclei-elf/lib/rv32imafc/ilp32f\libm.a(lib_a-ef_pow.o)
                              d:/software/yuyin/qiqiyinqiluntai/riscv-nuclei-elf-gcc-9.2.0.0/gcc_fix_raissrc/bin/../lib/gcc/riscv-nuclei-elf/9.2.0/../../../../riscv-nuclei-elf/lib/rv32imafc/ilp32f\libm.a(lib_a-wf_pow.o) (__ieee754_powf)
d:/software/yuyin/qiqiyinqiluntai/riscv-nuclei-elf-gcc-9.2.0.0/gcc_fix_raissrc/bin/../lib/gcc/riscv-nuclei-elf/9.2.0/../../../../riscv-nuclei-elf/lib/rv32imafc/ilp32f\libm.a(lib_a-ef_sqrt.o)
                              d:/software/yuyin/qiqiyinqiluntai/riscv-nuclei-elf-gcc-9.2.0.0/gcc_fix_raissrc/bin/../lib/gcc/riscv-nuclei-elf/9.2.0/../../../../riscv-nuclei-elf/lib/rv32imafc/ilp32f\libm.a(lib_a-ef_pow.o) (__ieee754_sqrtf)
d:/software/yuyin/qiqiyinqiluntai/riscv-nuclei-elf-gcc-9.2.0.0/gcc_fix_raissrc/bin/../lib/gcc/riscv-nuclei-elf/9.2.0/../../../../riscv-nuclei-elf/lib/rv32imafc/ilp32f\libm.a(lib_a-e_log.o)
                              d:/software/yuyin/qiqiyinqiluntai/riscv-nuclei-elf-gcc-9.2.0.0/gcc_fix_raissrc/bin/../lib/gcc/riscv-nuclei-elf/9.2.0/../../../../riscv-nuclei-elf/lib/rv32imafc/ilp32f\libm.a(lib_a-w_log.o) (__ieee754_log)
d:/software/yuyin/qiqiyinqiluntai/riscv-nuclei-elf-gcc-9.2.0.0/gcc_fix_raissrc/bin/../lib/gcc/riscv-nuclei-elf/9.2.0/../../../../riscv-nuclei-elf/lib/rv32imafc/ilp32f\libm.a(lib_a-e_sqrt.o)
                              d:/software/yuyin/qiqiyinqiluntai/riscv-nuclei-elf-gcc-9.2.0.0/gcc_fix_raissrc/bin/../lib/gcc/riscv-nuclei-elf/9.2.0/../../../../riscv-nuclei-elf/lib/rv32imafc/ilp32f\libm.a(lib_a-w_sqrt.o) (__ieee754_sqrt)
d:/software/yuyin/qiqiyinqiluntai/riscv-nuclei-elf-gcc-9.2.0.0/gcc_fix_raissrc/bin/../lib/gcc/riscv-nuclei-elf/9.2.0/../../../../riscv-nuclei-elf/lib/rv32imafc/ilp32f\libm.a(lib_a-s_fabs.o)
                              d:/software/yuyin/qiqiyinqiluntai/riscv-nuclei-elf-gcc-9.2.0.0/gcc_fix_raissrc/bin/../lib/gcc/riscv-nuclei-elf/9.2.0/../../../../riscv-nuclei-elf/lib/rv32imafc/ilp32f\libm.a(lib_a-w_acos.o) (fabs)
d:/software/yuyin/qiqiyinqiluntai/riscv-nuclei-elf-gcc-9.2.0.0/gcc_fix_raissrc/bin/../lib/gcc/riscv-nuclei-elf/9.2.0/../../../../riscv-nuclei-elf/lib/rv32imafc/ilp32f\libm.a(lib_a-sf_finite.o)
                              d:/software/yuyin/qiqiyinqiluntai/riscv-nuclei-elf-gcc-9.2.0.0/gcc_fix_raissrc/bin/../lib/gcc/riscv-nuclei-elf/9.2.0/../../../../riscv-nuclei-elf/lib/rv32imafc/ilp32f\libm.a(lib_a-wf_pow.o) (finitef)
d:/software/yuyin/qiqiyinqiluntai/riscv-nuclei-elf-gcc-9.2.0.0/gcc_fix_raissrc/bin/../lib/gcc/riscv-nuclei-elf/9.2.0/../../../../riscv-nuclei-elf/lib/rv32imafc/ilp32f\libm.a(lib_a-s_finite.o)
                              d:/software/yuyin/qiqiyinqiluntai/riscv-nuclei-elf-gcc-9.2.0.0/gcc_fix_raissrc/bin/../lib/gcc/riscv-nuclei-elf/9.2.0/../../../../riscv-nuclei-elf/lib/rv32imafc/ilp32f\libm.a(lib_a-w_exp.o) (finite)
d:/software/yuyin/qiqiyinqiluntai/riscv-nuclei-elf-gcc-9.2.0.0/gcc_fix_raissrc/bin/../lib/gcc/riscv-nuclei-elf/9.2.0/../../../../riscv-nuclei-elf/lib/rv32imafc/ilp32f\libm.a(lib_a-sf_nan.o)
                              d:/software/yuyin/qiqiyinqiluntai/riscv-nuclei-elf-gcc-9.2.0.0/gcc_fix_raissrc/bin/../lib/gcc/riscv-nuclei-elf/9.2.0/../../../../riscv-nuclei-elf/lib/rv32imafc/ilp32f\libm.a(lib_a-ef_pow.o) (nanf)
d:/software/yuyin/qiqiyinqiluntai/riscv-nuclei-elf-gcc-9.2.0.0/gcc_fix_raissrc/bin/../lib/gcc/riscv-nuclei-elf/9.2.0/../../../../riscv-nuclei-elf/lib/rv32imafc/ilp32f\libm.a(lib_a-sf_rint.o)
                              d:/software/yuyin/qiqiyinqiluntai/riscv-nuclei-elf-gcc-9.2.0.0/gcc_fix_raissrc/bin/../lib/gcc/riscv-nuclei-elf/9.2.0/../../../../riscv-nuclei-elf/lib/rv32imafc/ilp32f\libm.a(lib_a-wf_pow.o) (rintf)
d:/software/yuyin/qiqiyinqiluntai/riscv-nuclei-elf-gcc-9.2.0.0/gcc_fix_raissrc/bin/../lib/gcc/riscv-nuclei-elf/9.2.0/../../../../riscv-nuclei-elf/lib/rv32imafc/ilp32f\libm.a(lib_a-sf_scalbn.o)
                              d:/software/yuyin/qiqiyinqiluntai/riscv-nuclei-elf-gcc-9.2.0.0/gcc_fix_raissrc/bin/../lib/gcc/riscv-nuclei-elf/9.2.0/../../../../riscv-nuclei-elf/lib/rv32imafc/ilp32f\libm.a(lib_a-ef_pow.o) (scalbnf)
d:/software/yuyin/qiqiyinqiluntai/riscv-nuclei-elf-gcc-9.2.0.0/gcc_fix_raissrc/bin/../lib/gcc/riscv-nuclei-elf/9.2.0/../../../../riscv-nuclei-elf/lib/rv32imafc/ilp32f\libm.a(lib_a-s_lib_ver.o)
                              d:/software/yuyin/qiqiyinqiluntai/riscv-nuclei-elf-gcc-9.2.0.0/gcc_fix_raissrc/bin/../lib/gcc/riscv-nuclei-elf/9.2.0/../../../../riscv-nuclei-elf/lib/rv32imafc/ilp32f\libm.a(lib_a-w_acos.o) (__fdlib_version)
d:/software/yuyin/qiqiyinqiluntai/riscv-nuclei-elf-gcc-9.2.0.0/gcc_fix_raissrc/bin/../lib/gcc/riscv-nuclei-elf/9.2.0/../../../../riscv-nuclei-elf/lib/rv32imafc/ilp32f\libm.a(lib_a-s_matherr.o)
                              d:/software/yuyin/qiqiyinqiluntai/riscv-nuclei-elf-gcc-9.2.0.0/gcc_fix_raissrc/bin/../lib/gcc/riscv-nuclei-elf/9.2.0/../../../../riscv-nuclei-elf/lib/rv32imafc/ilp32f\libm.a(lib_a-w_acos.o) (matherr)
d:/software/yuyin/qiqiyinqiluntai/riscv-nuclei-elf-gcc-9.2.0.0/gcc_fix_raissrc/bin/../lib/gcc/riscv-nuclei-elf/9.2.0/../../../../riscv-nuclei-elf/lib/rv32imafc/ilp32f\libm.a(lib_a-s_nan.o)
                              d:/software/yuyin/qiqiyinqiluntai/riscv-nuclei-elf-gcc-9.2.0.0/gcc_fix_raissrc/bin/../lib/gcc/riscv-nuclei-elf/9.2.0/../../../../riscv-nuclei-elf/lib/rv32imafc/ilp32f\libm.a(lib_a-w_acos.o) (nan)
d:/software/yuyin/qiqiyinqiluntai/riscv-nuclei-elf-gcc-9.2.0.0/gcc_fix_raissrc/bin/../lib/gcc/riscv-nuclei-elf/9.2.0/../../../../riscv-nuclei-elf/lib/rv32imafc/ilp32f\libm.a(lib_a-sf_copysign.o)
                              d:/software/yuyin/qiqiyinqiluntai/riscv-nuclei-elf-gcc-9.2.0.0/gcc_fix_raissrc/bin/../lib/gcc/riscv-nuclei-elf/9.2.0/../../../../riscv-nuclei-elf/lib/rv32imafc/ilp32f\libm.a(lib_a-sf_scalbn.o) (copysignf)
d:/software/yuyin/qiqiyinqiluntai/riscv-nuclei-elf-gcc-9.2.0.0/gcc_fix_raissrc/bin/../lib/gcc/riscv-nuclei-elf/9.2.0/rv32imafc/ilp32f\libgcc.a(adddf3.o)
                              C:\TMP\nn_denoise_rtc_sample.elf.zkP8Mf.ltrans0.ltrans.o (__adddf3)
d:/software/yuyin/qiqiyinqiluntai/riscv-nuclei-elf-gcc-9.2.0.0/gcc_fix_raissrc/bin/../lib/gcc/riscv-nuclei-elf/9.2.0/rv32imafc/ilp32f\libgcc.a(divdf3.o)
                              C:\TMP\nn_denoise_rtc_sample.elf.zkP8Mf.ltrans0.ltrans.o (__divdf3)
d:/software/yuyin/qiqiyinqiluntai/riscv-nuclei-elf-gcc-9.2.0.0/gcc_fix_raissrc/bin/../lib/gcc/riscv-nuclei-elf/9.2.0/rv32imafc/ilp32f\libgcc.a(eqdf2.o)
                              d:/software/yuyin/qiqiyinqiluntai/riscv-nuclei-elf-gcc-9.2.0.0/gcc_fix_raissrc/bin/../lib/gcc/riscv-nuclei-elf/9.2.0/../../../../riscv-nuclei-elf/lib/rv32imafc/ilp32f\libm.a(lib_a-w_log.o) (__eqdf2)
d:/software/yuyin/qiqiyinqiluntai/riscv-nuclei-elf-gcc-9.2.0.0/gcc_fix_raissrc/bin/../lib/gcc/riscv-nuclei-elf/9.2.0/rv32imafc/ilp32f\libgcc.a(gedf2.o)
                              C:\TMP\nn_denoise_rtc_sample.elf.zkP8Mf.ltrans0.ltrans.o (__gtdf2)
d:/software/yuyin/qiqiyinqiluntai/riscv-nuclei-elf-gcc-9.2.0.0/gcc_fix_raissrc/bin/../lib/gcc/riscv-nuclei-elf/9.2.0/rv32imafc/ilp32f\libgcc.a(ledf2.o)
                              C:\TMP\nn_denoise_rtc_sample.elf.zkP8Mf.ltrans0.ltrans.o (__ltdf2)
d:/software/yuyin/qiqiyinqiluntai/riscv-nuclei-elf-gcc-9.2.0.0/gcc_fix_raissrc/bin/../lib/gcc/riscv-nuclei-elf/9.2.0/rv32imafc/ilp32f\libgcc.a(muldf3.o)
                              C:\TMP\nn_denoise_rtc_sample.elf.zkP8Mf.ltrans0.ltrans.o (__muldf3)
d:/software/yuyin/qiqiyinqiluntai/riscv-nuclei-elf-gcc-9.2.0.0/gcc_fix_raissrc/bin/../lib/gcc/riscv-nuclei-elf/9.2.0/rv32imafc/ilp32f\libgcc.a(subdf3.o)
                              C:\TMP\nn_denoise_rtc_sample.elf.zkP8Mf.ltrans0.ltrans.o (__subdf3)
d:/software/yuyin/qiqiyinqiluntai/riscv-nuclei-elf-gcc-9.2.0.0/gcc_fix_raissrc/bin/../lib/gcc/riscv-nuclei-elf/9.2.0/rv32imafc/ilp32f\libgcc.a(unorddf2.o)
                              d:/software/yuyin/qiqiyinqiluntai/riscv-nuclei-elf-gcc-9.2.0.0/gcc_fix_raissrc/bin/../lib/gcc/riscv-nuclei-elf/9.2.0/../../../../riscv-nuclei-elf/lib/rv32imafc/ilp32f\libm.a(lib_a-w_acos.o) (__unorddf2)
d:/software/yuyin/qiqiyinqiluntai/riscv-nuclei-elf-gcc-9.2.0.0/gcc_fix_raissrc/bin/../lib/gcc/riscv-nuclei-elf/9.2.0/rv32imafc/ilp32f\libgcc.a(fixdfsi.o)
                              C:\TMP\nn_denoise_rtc_sample.elf.zkP8Mf.ltrans0.ltrans.o (__fixdfsi)
d:/software/yuyin/qiqiyinqiluntai/riscv-nuclei-elf-gcc-9.2.0.0/gcc_fix_raissrc/bin/../lib/gcc/riscv-nuclei-elf/9.2.0/rv32imafc/ilp32f\libgcc.a(floatsidf.o)
                              C:\TMP\nn_denoise_rtc_sample.elf.zkP8Mf.ltrans0.ltrans.o (__floatsidf)
d:/software/yuyin/qiqiyinqiluntai/riscv-nuclei-elf-gcc-9.2.0.0/gcc_fix_raissrc/bin/../lib/gcc/riscv-nuclei-elf/9.2.0/rv32imafc/ilp32f\libgcc.a(extendsfdf2.o)
                              C:\TMP\nn_denoise_rtc_sample.elf.zkP8Mf.ltrans0.ltrans.o (__extendsfdf2)
d:/software/yuyin/qiqiyinqiluntai/riscv-nuclei-elf-gcc-9.2.0.0/gcc_fix_raissrc/bin/../lib/gcc/riscv-nuclei-elf/9.2.0/rv32imafc/ilp32f\libgcc.a(truncdfsf2.o)
                              C:\TMP\nn_denoise_rtc_sample.elf.zkP8Mf.ltrans0.ltrans.o (__truncdfsf2)
d:/software/yuyin/qiqiyinqiluntai/riscv-nuclei-elf-gcc-9.2.0.0/gcc_fix_raissrc/bin/../lib/gcc/riscv-nuclei-elf/9.2.0/rv32imafc/ilp32f\libgcc.a(_clzsi2.o)
                              d:/software/yuyin/qiqiyinqiluntai/riscv-nuclei-elf-gcc-9.2.0.0/gcc_fix_raissrc/bin/../lib/gcc/riscv-nuclei-elf/9.2.0/rv32imafc/ilp32f\libgcc.a(adddf3.o) (__clzsi2)
d:/software/yuyin/qiqiyinqiluntai/riscv-nuclei-elf-gcc-9.2.0.0/gcc_fix_raissrc/bin/../lib/gcc/riscv-nuclei-elf/9.2.0/rv32imafc/ilp32f\libgcc.a(_clz.o)
                              d:/software/yuyin/qiqiyinqiluntai/riscv-nuclei-elf-gcc-9.2.0.0/gcc_fix_raissrc/bin/../lib/gcc/riscv-nuclei-elf/9.2.0/rv32imafc/ilp32f\libgcc.a(_clzsi2.o) (__clz_tab)
d:/software/yuyin/qiqiyinqiluntai/riscv-nuclei-elf-gcc-9.2.0.0/gcc_fix_raissrc/bin/../lib/gcc/riscv-nuclei-elf/9.2.0/../../../../riscv-nuclei-elf/lib/rv32imafc/ilp32f\libg_nano.a(lib_a-calloc.o)
                              C:\TMP\nn_denoise_rtc_sample.elf.zkP8Mf.ltrans0.ltrans.o (calloc)
d:/software/yuyin/qiqiyinqiluntai/riscv-nuclei-elf-gcc-9.2.0.0/gcc_fix_raissrc/bin/../lib/gcc/riscv-nuclei-elf/9.2.0/../../../../riscv-nuclei-elf/lib/rv32imafc/ilp32f\libg_nano.a(lib_a-fprintf.o)
                              C:\TMP\nn_denoise_rtc_sample.elf.zkP8Mf.ltrans0.ltrans.o (fprintf)
d:/software/yuyin/qiqiyinqiluntai/riscv-nuclei-elf-gcc-9.2.0.0/gcc_fix_raissrc/bin/../lib/gcc/riscv-nuclei-elf/9.2.0/../../../../riscv-nuclei-elf/lib/rv32imafc/ilp32f\libg_nano.a(lib_a-nano-callocr.o)
                              d:/software/yuyin/qiqiyinqiluntai/riscv-nuclei-elf-gcc-9.2.0.0/gcc_fix_raissrc/bin/../lib/gcc/riscv-nuclei-elf/9.2.0/../../../../riscv-nuclei-elf/lib/rv32imafc/ilp32f\libg_nano.a(lib_a-calloc.o) (_calloc_r)
d:/software/yuyin/qiqiyinqiluntai/riscv-nuclei-elf-gcc-9.2.0.0/gcc_fix_raissrc/bin/../lib/gcc/riscv-nuclei-elf/9.2.0/../../../../riscv-nuclei-elf/lib/rv32imafc/ilp32f\libg_nano.a(lib_a-nano-mallocr.o)
                              d:/software/yuyin/qiqiyinqiluntai/riscv-nuclei-elf-gcc-9.2.0.0/gcc_fix_raissrc/bin/../lib/gcc/riscv-nuclei-elf/9.2.0/../../../../riscv-nuclei-elf/lib/rv32imafc/ilp32f\libg_nano.a(lib_a-nano-callocr.o) (_malloc_r)
d:/software/yuyin/qiqiyinqiluntai/riscv-nuclei-elf-gcc-9.2.0.0/gcc_fix_raissrc/bin/../lib/gcc/riscv-nuclei-elf/9.2.0/../../../../riscv-nuclei-elf/lib/rv32imafc/ilp32f\libg_nano.a(lib_a-nano-vfprintf.o)
                              d:/software/yuyin/qiqiyinqiluntai/riscv-nuclei-elf-gcc-9.2.0.0/gcc_fix_raissrc/bin/../lib/gcc/riscv-nuclei-elf/9.2.0/../../../../riscv-nuclei-elf/lib/rv32imafc/ilp32f\libg_nano.a(lib_a-fprintf.o) (_vfprintf_r)
d:/software/yuyin/qiqiyinqiluntai/riscv-nuclei-elf-gcc-9.2.0.0/gcc_fix_raissrc/bin/../lib/gcc/riscv-nuclei-elf/9.2.0/../../../../riscv-nuclei-elf/lib/rv32imafc/ilp32f\libg_nano.a(lib_a-realloc.o)
                              C:\TMP\nn_denoise_rtc_sample.elf.zkP8Mf.ltrans1.ltrans.o (realloc)
d:/software/yuyin/qiqiyinqiluntai/riscv-nuclei-elf-gcc-9.2.0.0/gcc_fix_raissrc/bin/../lib/gcc/riscv-nuclei-elf/9.2.0/../../../../riscv-nuclei-elf/lib/rv32imafc/ilp32f\libg_nano.a(lib_a-sbrkr.o)
                              d:/software/yuyin/qiqiyinqiluntai/riscv-nuclei-elf-gcc-9.2.0.0/gcc_fix_raissrc/bin/../lib/gcc/riscv-nuclei-elf/9.2.0/../../../../riscv-nuclei-elf/lib/rv32imafc/ilp32f\libg_nano.a(lib_a-nano-mallocr.o) (_sbrk_r)
d:/software/yuyin/qiqiyinqiluntai/riscv-nuclei-elf-gcc-9.2.0.0/gcc_fix_raissrc/bin/../lib/gcc/riscv-nuclei-elf/9.2.0/../../../../riscv-nuclei-elf/lib/rv32imafc/ilp32f\libg_nano.a(lib_a-wbuf.o)
                              d:/software/yuyin/qiqiyinqiluntai/riscv-nuclei-elf-gcc-9.2.0.0/gcc_fix_raissrc/bin/../lib/gcc/riscv-nuclei-elf/9.2.0/../../../../riscv-nuclei-elf/lib/rv32imafc/ilp32f\libg_nano.a(lib_a-nano-vfprintf.o) (__swbuf_r)
d:/software/yuyin/qiqiyinqiluntai/riscv-nuclei-elf-gcc-9.2.0.0/gcc_fix_raissrc/bin/../lib/gcc/riscv-nuclei-elf/9.2.0/../../../../riscv-nuclei-elf/lib/rv32imafc/ilp32f\libg_nano.a(lib_a-wsetup.o)
                              d:/software/yuyin/qiqiyinqiluntai/riscv-nuclei-elf-gcc-9.2.0.0/gcc_fix_raissrc/bin/../lib/gcc/riscv-nuclei-elf/9.2.0/../../../../riscv-nuclei-elf/lib/rv32imafc/ilp32f\libg_nano.a(lib_a-nano-vfprintf.o) (__swsetup_r)
d:/software/yuyin/qiqiyinqiluntai/riscv-nuclei-elf-gcc-9.2.0.0/gcc_fix_raissrc/bin/../lib/gcc/riscv-nuclei-elf/9.2.0/../../../../riscv-nuclei-elf/lib/rv32imafc/ilp32f\libg_nano.a(lib_a-fflush.o)
                              d:/software/yuyin/qiqiyinqiluntai/riscv-nuclei-elf-gcc-9.2.0.0/gcc_fix_raissrc/bin/../lib/gcc/riscv-nuclei-elf/9.2.0/../../../../riscv-nuclei-elf/lib/rv32imafc/ilp32f\libg_nano.a(lib_a-wbuf.o) (_fflush_r)
d:/software/yuyin/qiqiyinqiluntai/riscv-nuclei-elf-gcc-9.2.0.0/gcc_fix_raissrc/bin/../lib/gcc/riscv-nuclei-elf/9.2.0/../../../../riscv-nuclei-elf/lib/rv32imafc/ilp32f\libg_nano.a(lib_a-findfp.o)
                              d:/software/yuyin/qiqiyinqiluntai/riscv-nuclei-elf-gcc-9.2.0.0/gcc_fix_raissrc/bin/../lib/gcc/riscv-nuclei-elf/9.2.0/../../../../riscv-nuclei-elf/lib/rv32imafc/ilp32f\libg_nano.a(lib_a-nano-vfprintf.o) (__sinit)
d:/software/yuyin/qiqiyinqiluntai/riscv-nuclei-elf-gcc-9.2.0.0/gcc_fix_raissrc/bin/../lib/gcc/riscv-nuclei-elf/9.2.0/../../../../riscv-nuclei-elf/lib/rv32imafc/ilp32f\libg_nano.a(lib_a-fvwrite.o)
                              d:/software/yuyin/qiqiyinqiluntai/riscv-nuclei-elf-gcc-9.2.0.0/gcc_fix_raissrc/bin/../lib/gcc/riscv-nuclei-elf/9.2.0/../../../../riscv-nuclei-elf/lib/rv32imafc/ilp32f\libg_nano.a(lib_a-nano-vfprintf.o) (__sfvwrite_r)
d:/software/yuyin/qiqiyinqiluntai/riscv-nuclei-elf-gcc-9.2.0.0/gcc_fix_raissrc/bin/../lib/gcc/riscv-nuclei-elf/9.2.0/../../../../riscv-nuclei-elf/lib/rv32imafc/ilp32f\libg_nano.a(lib_a-fwalk.o)
                              d:/software/yuyin/qiqiyinqiluntai/riscv-nuclei-elf-gcc-9.2.0.0/gcc_fix_raissrc/bin/../lib/gcc/riscv-nuclei-elf/9.2.0/../../../../riscv-nuclei-elf/lib/rv32imafc/ilp32f\libg_nano.a(lib_a-findfp.o) (_fwalk)
d:/software/yuyin/qiqiyinqiluntai/riscv-nuclei-elf-gcc-9.2.0.0/gcc_fix_raissrc/bin/../lib/gcc/riscv-nuclei-elf/9.2.0/../../../../riscv-nuclei-elf/lib/rv32imafc/ilp32f\libg_nano.a(lib_a-makebuf.o)
                              d:/software/yuyin/qiqiyinqiluntai/riscv-nuclei-elf-gcc-9.2.0.0/gcc_fix_raissrc/bin/../lib/gcc/riscv-nuclei-elf/9.2.0/../../../../riscv-nuclei-elf/lib/rv32imafc/ilp32f\libg_nano.a(lib_a-wsetup.o) (__smakebuf_r)
d:/software/yuyin/qiqiyinqiluntai/riscv-nuclei-elf-gcc-9.2.0.0/gcc_fix_raissrc/bin/../lib/gcc/riscv-nuclei-elf/9.2.0/../../../../riscv-nuclei-elf/lib/rv32imafc/ilp32f\libg_nano.a(lib_a-memchr.o)
                              d:/software/yuyin/qiqiyinqiluntai/riscv-nuclei-elf-gcc-9.2.0.0/gcc_fix_raissrc/bin/../lib/gcc/riscv-nuclei-elf/9.2.0/../../../../riscv-nuclei-elf/lib/rv32imafc/ilp32f\libg_nano.a(lib_a-nano-vfprintf.o) (memchr)
d:/software/yuyin/qiqiyinqiluntai/riscv-nuclei-elf-gcc-9.2.0.0/gcc_fix_raissrc/bin/../lib/gcc/riscv-nuclei-elf/9.2.0/../../../../riscv-nuclei-elf/lib/rv32imafc/ilp32f\libg_nano.a(lib_a-nano-freer.o)
                              d:/software/yuyin/qiqiyinqiluntai/riscv-nuclei-elf-gcc-9.2.0.0/gcc_fix_raissrc/bin/../lib/gcc/riscv-nuclei-elf/9.2.0/../../../../riscv-nuclei-elf/lib/rv32imafc/ilp32f\libg_nano.a(lib_a-wsetup.o) (_free_r)
d:/software/yuyin/qiqiyinqiluntai/riscv-nuclei-elf-gcc-9.2.0.0/gcc_fix_raissrc/bin/../lib/gcc/riscv-nuclei-elf/9.2.0/../../../../riscv-nuclei-elf/lib/rv32imafc/ilp32f\libg_nano.a(lib_a-nano-reallocr.o)
                              d:/software/yuyin/qiqiyinqiluntai/riscv-nuclei-elf-gcc-9.2.0.0/gcc_fix_raissrc/bin/../lib/gcc/riscv-nuclei-elf/9.2.0/../../../../riscv-nuclei-elf/lib/rv32imafc/ilp32f\libg_nano.a(lib_a-realloc.o) (_realloc_r)
d:/software/yuyin/qiqiyinqiluntai/riscv-nuclei-elf-gcc-9.2.0.0/gcc_fix_raissrc/bin/../lib/gcc/riscv-nuclei-elf/9.2.0/../../../../riscv-nuclei-elf/lib/rv32imafc/ilp32f\libg_nano.a(lib_a-nano-vfprintf_i.o)
                              d:/software/yuyin/qiqiyinqiluntai/riscv-nuclei-elf-gcc-9.2.0.0/gcc_fix_raissrc/bin/../lib/gcc/riscv-nuclei-elf/9.2.0/../../../../riscv-nuclei-elf/lib/rv32imafc/ilp32f\libg_nano.a(lib_a-nano-vfprintf.o) (_printf_i)
d:/software/yuyin/qiqiyinqiluntai/riscv-nuclei-elf-gcc-9.2.0.0/gcc_fix_raissrc/bin/../lib/gcc/riscv-nuclei-elf/9.2.0/../../../../riscv-nuclei-elf/lib/rv32imafc/ilp32f\libg_nano.a(lib_a-reent.o)
                              d:/software/yuyin/qiqiyinqiluntai/riscv-nuclei-elf-gcc-9.2.0.0/gcc_fix_raissrc/bin/../lib/gcc/riscv-nuclei-elf/9.2.0/../../../../riscv-nuclei-elf/lib/rv32imafc/ilp32f\libg_nano.a(lib_a-sbrkr.o) (errno)
d:/software/yuyin/qiqiyinqiluntai/riscv-nuclei-elf-gcc-9.2.0.0/gcc_fix_raissrc/bin/../lib/gcc/riscv-nuclei-elf/9.2.0/../../../../riscv-nuclei-elf/lib/rv32imafc/ilp32f\libg_nano.a(lib_a-stdio.o)
                              d:/software/yuyin/qiqiyinqiluntai/riscv-nuclei-elf-gcc-9.2.0.0/gcc_fix_raissrc/bin/../lib/gcc/riscv-nuclei-elf/9.2.0/../../../../riscv-nuclei-elf/lib/rv32imafc/ilp32f\libg_nano.a(lib_a-findfp.o) (__sread)
d:/software/yuyin/qiqiyinqiluntai/riscv-nuclei-elf-gcc-9.2.0.0/gcc_fix_raissrc/bin/../lib/gcc/riscv-nuclei-elf/9.2.0/../../../../riscv-nuclei-elf/lib/rv32imafc/ilp32f\libg_nano.a(lib_a-writer.o)
                              d:/software/yuyin/qiqiyinqiluntai/riscv-nuclei-elf-gcc-9.2.0.0/gcc_fix_raissrc/bin/../lib/gcc/riscv-nuclei-elf/9.2.0/../../../../riscv-nuclei-elf/lib/rv32imafc/ilp32f\libg_nano.a(lib_a-stdio.o) (_write_r)
d:/software/yuyin/qiqiyinqiluntai/riscv-nuclei-elf-gcc-9.2.0.0/gcc_fix_raissrc/bin/../lib/gcc/riscv-nuclei-elf/9.2.0/../../../../riscv-nuclei-elf/lib/rv32imafc/ilp32f\libg_nano.a(lib_a-closer.o)
                              d:/software/yuyin/qiqiyinqiluntai/riscv-nuclei-elf-gcc-9.2.0.0/gcc_fix_raissrc/bin/../lib/gcc/riscv-nuclei-elf/9.2.0/../../../../riscv-nuclei-elf/lib/rv32imafc/ilp32f\libg_nano.a(lib_a-stdio.o) (_close_r)
d:/software/yuyin/qiqiyinqiluntai/riscv-nuclei-elf-gcc-9.2.0.0/gcc_fix_raissrc/bin/../lib/gcc/riscv-nuclei-elf/9.2.0/../../../../riscv-nuclei-elf/lib/rv32imafc/ilp32f\libg_nano.a(lib_a-fstatr.o)
                              d:/software/yuyin/qiqiyinqiluntai/riscv-nuclei-elf-gcc-9.2.0.0/gcc_fix_raissrc/bin/../lib/gcc/riscv-nuclei-elf/9.2.0/../../../../riscv-nuclei-elf/lib/rv32imafc/ilp32f\libg_nano.a(lib_a-makebuf.o) (_fstat_r)
d:/software/yuyin/qiqiyinqiluntai/riscv-nuclei-elf-gcc-9.2.0.0/gcc_fix_raissrc/bin/../lib/gcc/riscv-nuclei-elf/9.2.0/../../../../riscv-nuclei-elf/lib/rv32imafc/ilp32f\libg_nano.a(lib_a-isattyr.o)
                              d:/software/yuyin/qiqiyinqiluntai/riscv-nuclei-elf-gcc-9.2.0.0/gcc_fix_raissrc/bin/../lib/gcc/riscv-nuclei-elf/9.2.0/../../../../riscv-nuclei-elf/lib/rv32imafc/ilp32f\libg_nano.a(lib_a-makebuf.o) (_isatty_r)
d:/software/yuyin/qiqiyinqiluntai/riscv-nuclei-elf-gcc-9.2.0.0/gcc_fix_raissrc/bin/../lib/gcc/riscv-nuclei-elf/9.2.0/../../../../riscv-nuclei-elf/lib/rv32imafc/ilp32f\libg_nano.a(lib_a-lseekr.o)
                              d:/software/yuyin/qiqiyinqiluntai/riscv-nuclei-elf-gcc-9.2.0.0/gcc_fix_raissrc/bin/../lib/gcc/riscv-nuclei-elf/9.2.0/../../../../riscv-nuclei-elf/lib/rv32imafc/ilp32f\libg_nano.a(lib_a-stdio.o) (_lseek_r)
d:/software/yuyin/qiqiyinqiluntai/riscv-nuclei-elf-gcc-9.2.0.0/gcc_fix_raissrc/bin/../lib/gcc/riscv-nuclei-elf/9.2.0/../../../../riscv-nuclei-elf/lib/rv32imafc/ilp32f\libg_nano.a(lib_a-nano-msizer.o)
                              d:/software/yuyin/qiqiyinqiluntai/riscv-nuclei-elf-gcc-9.2.0.0/gcc_fix_raissrc/bin/../lib/gcc/riscv-nuclei-elf/9.2.0/../../../../riscv-nuclei-elf/lib/rv32imafc/ilp32f\libg_nano.a(lib_a-nano-reallocr.o) (_malloc_usable_size_r)
d:/software/yuyin/qiqiyinqiluntai/riscv-nuclei-elf-gcc-9.2.0.0/gcc_fix_raissrc/bin/../lib/gcc/riscv-nuclei-elf/9.2.0/../../../../riscv-nuclei-elf/lib/rv32imafc/ilp32f\libg_nano.a(lib_a-readr.o)
                              d:/software/yuyin/qiqiyinqiluntai/riscv-nuclei-elf-gcc-9.2.0.0/gcc_fix_raissrc/bin/../lib/gcc/riscv-nuclei-elf/9.2.0/../../../../riscv-nuclei-elf/lib/rv32imafc/ilp32f\libg_nano.a(lib_a-stdio.o) (_read_r)
d:/software/yuyin/qiqiyinqiluntai/riscv-nuclei-elf-gcc-9.2.0.0/gcc_fix_raissrc/bin/../lib/gcc/riscv-nuclei-elf/9.2.0/../../../../riscv-nuclei-elf/lib/rv32imafc/ilp32f\libgloss_nano.a(sys_close.o)
                              d:/software/yuyin/qiqiyinqiluntai/riscv-nuclei-elf-gcc-9.2.0.0/gcc_fix_raissrc/bin/../lib/gcc/riscv-nuclei-elf/9.2.0/../../../../riscv-nuclei-elf/lib/rv32imafc/ilp32f\libg_nano.a(lib_a-closer.o) (_close)
d:/software/yuyin/qiqiyinqiluntai/riscv-nuclei-elf-gcc-9.2.0.0/gcc_fix_raissrc/bin/../lib/gcc/riscv-nuclei-elf/9.2.0/../../../../riscv-nuclei-elf/lib/rv32imafc/ilp32f\libgloss_nano.a(sys_fstat.o)
                              d:/software/yuyin/qiqiyinqiluntai/riscv-nuclei-elf-gcc-9.2.0.0/gcc_fix_raissrc/bin/../lib/gcc/riscv-nuclei-elf/9.2.0/../../../../riscv-nuclei-elf/lib/rv32imafc/ilp32f\libg_nano.a(lib_a-fstatr.o) (_fstat)
d:/software/yuyin/qiqiyinqiluntai/riscv-nuclei-elf-gcc-9.2.0.0/gcc_fix_raissrc/bin/../lib/gcc/riscv-nuclei-elf/9.2.0/../../../../riscv-nuclei-elf/lib/rv32imafc/ilp32f\libgloss_nano.a(sys_isatty.o)
                              d:/software/yuyin/qiqiyinqiluntai/riscv-nuclei-elf-gcc-9.2.0.0/gcc_fix_raissrc/bin/../lib/gcc/riscv-nuclei-elf/9.2.0/../../../../riscv-nuclei-elf/lib/rv32imafc/ilp32f\libg_nano.a(lib_a-isattyr.o) (_isatty)
d:/software/yuyin/qiqiyinqiluntai/riscv-nuclei-elf-gcc-9.2.0.0/gcc_fix_raissrc/bin/../lib/gcc/riscv-nuclei-elf/9.2.0/../../../../riscv-nuclei-elf/lib/rv32imafc/ilp32f\libgloss_nano.a(sys_lseek.o)
                              d:/software/yuyin/qiqiyinqiluntai/riscv-nuclei-elf-gcc-9.2.0.0/gcc_fix_raissrc/bin/../lib/gcc/riscv-nuclei-elf/9.2.0/../../../../riscv-nuclei-elf/lib/rv32imafc/ilp32f\libg_nano.a(lib_a-lseekr.o) (_lseek)
d:/software/yuyin/qiqiyinqiluntai/riscv-nuclei-elf-gcc-9.2.0.0/gcc_fix_raissrc/bin/../lib/gcc/riscv-nuclei-elf/9.2.0/../../../../riscv-nuclei-elf/lib/rv32imafc/ilp32f\libgloss_nano.a(sys_read.o)
                              d:/software/yuyin/qiqiyinqiluntai/riscv-nuclei-elf-gcc-9.2.0.0/gcc_fix_raissrc/bin/../lib/gcc/riscv-nuclei-elf/9.2.0/../../../../riscv-nuclei-elf/lib/rv32imafc/ilp32f\libg_nano.a(lib_a-readr.o) (_read)
d:/software/yuyin/qiqiyinqiluntai/riscv-nuclei-elf-gcc-9.2.0.0/gcc_fix_raissrc/bin/../lib/gcc/riscv-nuclei-elf/9.2.0/../../../../riscv-nuclei-elf/lib/rv32imafc/ilp32f\libgloss_nano.a(sys_write.o)
                              d:/software/yuyin/qiqiyinqiluntai/riscv-nuclei-elf-gcc-9.2.0.0/gcc_fix_raissrc/bin/../lib/gcc/riscv-nuclei-elf/9.2.0/../../../../riscv-nuclei-elf/lib/rv32imafc/ilp32f\libg_nano.a(lib_a-writer.o) (_write)
d:/software/yuyin/qiqiyinqiluntai/riscv-nuclei-elf-gcc-9.2.0.0/gcc_fix_raissrc/bin/../lib/gcc/riscv-nuclei-elf/9.2.0/../../../../riscv-nuclei-elf/lib/rv32imafc/ilp32f\libgloss_nano.a(sys_conv_stat.o)
                              d:/software/yuyin/qiqiyinqiluntai/riscv-nuclei-elf-gcc-9.2.0.0/gcc_fix_raissrc/bin/../lib/gcc/riscv-nuclei-elf/9.2.0/../../../../riscv-nuclei-elf/lib/rv32imafc/ilp32f\libgloss_nano.a(sys_fstat.o) (_conv_stat)

Allocating common symbols
Common symbol       size              file

errno               0x4               d:/software/yuyin/qiqiyinqiluntai/riscv-nuclei-elf-gcc-9.2.0.0/gcc_fix_raissrc/bin/../lib/gcc/riscv-nuclei-elf/9.2.0/../../../../riscv-nuclei-elf/lib/rv32imafc/ilp32f\libg_nano.a(lib_a-reent.o)

Discarded input sections

 .text          0x0000000000000000        0x0 C:\TMP\nn_denoise_rtc_sample.elf.zkP8Mf.ltrans0.ltrans.o
 .data          0x0000000000000000        0x0 C:\TMP\nn_denoise_rtc_sample.elf.zkP8Mf.ltrans0.ltrans.o
 .bss           0x0000000000000000        0x0 C:\TMP\nn_denoise_rtc_sample.elf.zkP8Mf.ltrans0.ltrans.o
 .sdata2.EFUSE.lto_priv.0
                0x0000000000000000        0x4 C:\TMP\nn_denoise_rtc_sample.elf.zkP8Mf.ltrans0.ltrans.o
 .text          0x0000000000000000        0x0 C:\TMP\nn_denoise_rtc_sample.elf.zkP8Mf.ltrans1.ltrans.o
 .data          0x0000000000000000        0x0 C:\TMP\nn_denoise_rtc_sample.elf.zkP8Mf.ltrans1.ltrans.o
 .bss           0x0000000000000000        0x0 C:\TMP\nn_denoise_rtc_sample.elf.zkP8Mf.ltrans1.ltrans.o
 .text.IISxDMA_TADDR1.part.0
                0x0000000000000000       0x38 C:\TMP\nn_denoise_rtc_sample.elf.zkP8Mf.ltrans1.ltrans.o
 .rodata._exit.str1.4
                0x0000000000000000       0x12 C:\TMP\nn_denoise_rtc_sample.elf.zkP8Mf.ltrans1.ltrans.o
 .text._exit    0x0000000000000000       0x3e C:\TMP\nn_denoise_rtc_sample.elf.zkP8Mf.ltrans1.ltrans.o
 .bss.tmp       0x0000000000000000       0x20 C:\TMP\nn_denoise_rtc_sample.elf.zkP8Mf.ltrans1.ltrans.o
 .sbss.adc_cha0_int_flag
                0x0000000000000000        0x1 C:\TMP\nn_denoise_rtc_sample.elf.zkP8Mf.ltrans1.ltrans.o
 .sbss.adc_cha1_int_flag
                0x0000000000000000        0x1 C:\TMP\nn_denoise_rtc_sample.elf.zkP8Mf.ltrans1.ltrans.o
 .sbss.adc_cha2_int_flag
                0x0000000000000000        0x1 C:\TMP\nn_denoise_rtc_sample.elf.zkP8Mf.ltrans1.ltrans.o
 .sbss.adc_cha3_int_flag
                0x0000000000000000        0x1 C:\TMP\nn_denoise_rtc_sample.elf.zkP8Mf.ltrans1.ltrans.o
 .sbss.adc_cha4_int_flag
                0x0000000000000000        0x1 C:\TMP\nn_denoise_rtc_sample.elf.zkP8Mf.ltrans1.ltrans.o
 .sbss.adc_cha5_int_flag
                0x0000000000000000        0x1 C:\TMP\nn_denoise_rtc_sample.elf.zkP8Mf.ltrans1.ltrans.o
 .sbss.audio_block_size
                0x0000000000000000        0x2 C:\TMP\nn_denoise_rtc_sample.elf.zkP8Mf.ltrans1.ltrans.o
 .sbss.audio_play_status
                0x0000000000000000        0x1 C:\TMP\nn_denoise_rtc_sample.elf.zkP8Mf.ltrans1.ltrans.o
 .sbss.d1_max   0x0000000000000000        0x4 C:\TMP\nn_denoise_rtc_sample.elf.zkP8Mf.ltrans1.ltrans.o
 .sbss.d2_max   0x0000000000000000        0x4 C:\TMP\nn_denoise_rtc_sample.elf.zkP8Mf.ltrans1.ltrans.o
 .sbss.g_scu_int
                0x0000000000000000        0x1 C:\TMP\nn_denoise_rtc_sample.elf.zkP8Mf.ltrans1.ltrans.o
 .sbss.sg_cmp_twice_en
                0x0000000000000000        0x1 C:\TMP\nn_denoise_rtc_sample.elf.zkP8Mf.ltrans1.ltrans.o
 .sbss.sg_dnn_psram_transfer_sram_done
                0x0000000000000000        0x1 C:\TMP\nn_denoise_rtc_sample.elf.zkP8Mf.ltrans1.ltrans.o
 .sbss.src_from_right_mic
                0x0000000000000000        0x1 C:\TMP\nn_denoise_rtc_sample.elf.zkP8Mf.ltrans1.ltrans.o
 .sbss.vad_fe_rpmsg_wait_state
                0x0000000000000000        0x4 C:\TMP\nn_denoise_rtc_sample.elf.zkP8Mf.ltrans1.ltrans.o
 .sdata.sg_adpt_skpdecode_flag
                0x0000000000000000        0x1 C:\TMP\nn_denoise_rtc_sample.elf.zkP8Mf.ltrans1.ltrans.o
 .sdata2.__FUNCTION__.3941
                0x0000000000000000        0x6 C:\TMP\nn_denoise_rtc_sample.elf.zkP8Mf.ltrans1.ltrans.o
 .comment       0x0000000000000000       0x12 C:\TMP\ccRe2uM9.debug.temp.o
 .comment       0x0000000000000000       0x12 C:\TMP\ccic4sZX.debug.temp.o
 .comment       0x0000000000000000       0x12 C:\TMP\ccZbbPsL.debug.temp.o
 .comment       0x0000000000000000       0x12 C:\TMP\ccatLr9y.debug.temp.o
 .comment       0x0000000000000000       0x12 C:\TMP\ccXzUNGm.debug.temp.o
 .debug_info    0x0000000000000000      0x99a C:\TMP\cc6r84ae.debug.temp.o
 .debug_abbrev  0x0000000000000000      0x1e4 C:\TMP\cc6r84ae.debug.temp.o
 .debug_line    0x0000000000000000      0x1cf C:\TMP\cc6r84ae.debug.temp.o
 .debug_str     0x0000000000000000      0x6d9 C:\TMP\cc6r84ae.debug.temp.o
 .comment       0x0000000000000000       0x12 C:\TMP\cc6r84ae.debug.temp.o
 .comment       0x0000000000000000       0x12 C:\TMP\cc330RJ5.debug.temp.o
 .debug_info    0x0000000000000000      0x91a C:\TMP\ccuNPe9W.debug.temp.o
 .debug_abbrev  0x0000000000000000      0x1b1 C:\TMP\ccuNPe9W.debug.temp.o
 .debug_line    0x0000000000000000      0x151 C:\TMP\ccuNPe9W.debug.temp.o
 .debug_str     0x0000000000000000      0x664 C:\TMP\ccuNPe9W.debug.temp.o
 .comment       0x0000000000000000       0x12 C:\TMP\ccuNPe9W.debug.temp.o
 .comment       0x0000000000000000       0x12 C:\TMP\ccZMJiVO.debug.temp.o
 .comment       0x0000000000000000       0x12 C:\TMP\ccWQiWxG.debug.temp.o
 .comment       0x0000000000000000       0x12 C:\TMP\ccPQC6ey.debug.temp.o
 .comment       0x0000000000000000       0x12 C:\TMP\ccEO8o3o.debug.temp.o
 .comment       0x0000000000000000       0x12 C:\TMP\cchENCig.debug.temp.o
 .comment       0x0000000000000000       0x12 C:\TMP\ccugKzo7.debug.temp.o
 .comment       0x0000000000000000       0x12 C:\TMP\cc33AVKX.debug.temp.o
 .comment       0x0000000000000000       0x12 C:\TMP\ccub8EbO.debug.temp.o
 .comment       0x0000000000000000       0x12 C:\TMP\ccBctBoE.debug.temp.o
 .comment       0x0000000000000000       0x12 C:\TMP\ccsvVA2u.debug.temp.o
 .debug_info    0x0000000000000000      0xcde C:\TMP\ccdblYKl.debug.temp.o
 .debug_abbrev  0x0000000000000000      0x25a C:\TMP\ccdblYKl.debug.temp.o
 .debug_line    0x0000000000000000      0x263 C:\TMP\ccdblYKl.debug.temp.o
 .debug_str     0x0000000000000000      0x9ed C:\TMP\ccdblYKl.debug.temp.o
 .comment       0x0000000000000000       0x12 C:\TMP\ccdblYKl.debug.temp.o
 .comment       0x0000000000000000       0x12 C:\TMP\ccm9P8dc.debug.temp.o
 .debug_info    0x0000000000000000      0xdd8 C:\TMP\ccPfYHX1.debug.temp.o
 .debug_abbrev  0x0000000000000000      0x254 C:\TMP\ccPfYHX1.debug.temp.o
 .debug_line    0x0000000000000000      0x2d7 C:\TMP\ccPfYHX1.debug.temp.o
 .debug_str     0x0000000000000000      0xc0e C:\TMP\ccPfYHX1.debug.temp.o
 .comment       0x0000000000000000       0x12 C:\TMP\ccPfYHX1.debug.temp.o
 .comment       0x0000000000000000       0x12 C:\TMP\ccGmwnCR.debug.temp.o
 .comment       0x0000000000000000       0x12 C:\TMP\cc5Q5juH.debug.temp.o
 .comment       0x0000000000000000       0x12 C:\TMP\ccQCgkjB.debug.temp.o
 .comment       0x0000000000000000       0x12 C:\TMP\ccdKMs3u.debug.temp.o
 .comment       0x0000000000000000       0x12 C:\TMP\ccoBX6Ro.debug.temp.o
 .comment       0x0000000000000000       0x12 C:\TMP\ccnkhG7i.debug.temp.o
 .debug_info    0x0000000000000000      0xfc7 C:\TMP\cc4vcB9c.debug.temp.o
 .debug_abbrev  0x0000000000000000      0x29a C:\TMP\cc4vcB9c.debug.temp.o
 .debug_line    0x0000000000000000      0x2b0 C:\TMP\cc4vcB9c.debug.temp.o
 .debug_str     0x0000000000000000      0xd40 C:\TMP\cc4vcB9c.debug.temp.o
 .comment       0x0000000000000000       0x12 C:\TMP\cc4vcB9c.debug.temp.o
 .comment       0x0000000000000000       0x12 C:\TMP\cc3gXLr6.debug.temp.o
 .debug_info    0x0000000000000000     0x1f12 C:\TMP\ccmWz2EZ.debug.temp.o
 .debug_abbrev  0x0000000000000000      0x310 C:\TMP\ccmWz2EZ.debug.temp.o
 .debug_line    0x0000000000000000      0x378 C:\TMP\ccmWz2EZ.debug.temp.o
 .debug_str     0x0000000000000000     0x15ad C:\TMP\ccmWz2EZ.debug.temp.o
 .comment       0x0000000000000000       0x12 C:\TMP\ccmWz2EZ.debug.temp.o
 .debug_info    0x0000000000000000      0x9ea C:\TMP\ccv28mjT.debug.temp.o
 .debug_abbrev  0x0000000000000000      0x203 C:\TMP\ccv28mjT.debug.temp.o
 .debug_line    0x0000000000000000      0x15c C:\TMP\ccv28mjT.debug.temp.o
 .debug_str     0x0000000000000000      0x6a4 C:\TMP\ccv28mjT.debug.temp.o
 .comment       0x0000000000000000       0x12 C:\TMP\ccv28mjT.debug.temp.o
 .debug_info    0x0000000000000000      0xb34 C:\TMP\ccqblVJM.debug.temp.o
 .debug_abbrev  0x0000000000000000      0x261 C:\TMP\ccqblVJM.debug.temp.o
 .debug_line    0x0000000000000000      0x268 C:\TMP\ccqblVJM.debug.temp.o
 .debug_str     0x0000000000000000      0x813 C:\TMP\ccqblVJM.debug.temp.o
 .comment       0x0000000000000000       0x12 C:\TMP\ccqblVJM.debug.temp.o
 .debug_info    0x0000000000000000     0x138f C:\TMP\ccb7sZeG.debug.temp.o
 .debug_abbrev  0x0000000000000000      0x250 C:\TMP\ccb7sZeG.debug.temp.o
 .debug_line    0x0000000000000000      0x2e7 C:\TMP\ccb7sZeG.debug.temp.o
 .debug_str     0x0000000000000000      0xbda C:\TMP\ccb7sZeG.debug.temp.o
 .comment       0x0000000000000000       0x12 C:\TMP\ccb7sZeG.debug.temp.o
 .debug_info    0x0000000000000000     0x181e C:\TMP\cceCqj0y.debug.temp.o
 .debug_abbrev  0x0000000000000000      0x2c8 C:\TMP\cceCqj0y.debug.temp.o
 .debug_line    0x0000000000000000      0x300 C:\TMP\cceCqj0y.debug.temp.o
 .debug_str     0x0000000000000000      0xf7a C:\TMP\cceCqj0y.debug.temp.o
 .comment       0x0000000000000000       0x12 C:\TMP\cceCqj0y.debug.temp.o
 .debug_info    0x0000000000000000      0xba7 C:\TMP\ccXwIYxr.debug.temp.o
 .debug_abbrev  0x0000000000000000      0x263 C:\TMP\ccXwIYxr.debug.temp.o
 .debug_line    0x0000000000000000      0x275 C:\TMP\ccXwIYxr.debug.temp.o
 .debug_str     0x0000000000000000      0x75e C:\TMP\ccXwIYxr.debug.temp.o
 .comment       0x0000000000000000       0x12 C:\TMP\ccXwIYxr.debug.temp.o
 .comment       0x0000000000000000       0x12 C:\TMP\ccwmqzwk.debug.temp.o
 .debug_info    0x0000000000000000       0xa2 C:\TMP\ccTVMFzd.debug.temp.o
 .debug_abbrev  0x0000000000000000       0x5f C:\TMP\ccTVMFzd.debug.temp.o
 .debug_line    0x0000000000000000      0x14a C:\TMP\ccTVMFzd.debug.temp.o
 .debug_str     0x0000000000000000      0x279 C:\TMP\ccTVMFzd.debug.temp.o
 .comment       0x0000000000000000       0x12 C:\TMP\ccTVMFzd.debug.temp.o
 .comment       0x0000000000000000       0x12 C:\TMP\cc2DHBC6.debug.temp.o
 .comment       0x0000000000000000       0x12 C:\TMP\cc5K0wMY.debug.temp.o
 .comment       0x0000000000000000       0x12 C:\TMP\ccEc4I9Q.debug.temp.o
 .comment       0x0000000000000000       0x12 C:\TMP\ccJkRDnJ.debug.temp.o
 .comment       0x0000000000000000       0x12 C:\TMP\cccNwCyF.debug.temp.o
 .comment       0x0000000000000000       0x12 C:\TMP\ccrq3XNB.debug.temp.o
 .comment       0x0000000000000000       0x12 C:\TMP\cccKj2Tx.debug.temp.o
 .comment       0x0000000000000000       0x12 C:\TMP\ccR4x2qu.debug.temp.o
 .comment       0x0000000000000000       0x12 C:\TMP\cccP6nKq.debug.temp.o
 .debug_info    0x0000000000000000     0x1049 C:\TMP\ccTgmxom.debug.temp.o
 .debug_abbrev  0x0000000000000000      0x280 C:\TMP\ccTgmxom.debug.temp.o
 .debug_line    0x0000000000000000      0x3b7 C:\TMP\ccTgmxom.debug.temp.o
 .debug_str     0x0000000000000000     0x114f C:\TMP\ccTgmxom.debug.temp.o
 .comment       0x0000000000000000       0x12 C:\TMP\ccTgmxom.debug.temp.o
 .debug_info    0x0000000000000000      0xba7 C:\TMP\cc4l4oTh.debug.temp.o
 .debug_abbrev  0x0000000000000000      0x21b C:\TMP\cc4l4oTh.debug.temp.o
 .debug_line    0x0000000000000000      0x206 C:\TMP\cc4l4oTh.debug.temp.o
 .debug_str     0x0000000000000000      0xb22 C:\TMP\cc4l4oTh.debug.temp.o
 .comment       0x0000000000000000       0x12 C:\TMP\cc4l4oTh.debug.temp.o
 .comment       0x0000000000000000       0x12 C:\TMP\cc7UZkPd.debug.temp.o
 .comment       0x0000000000000000       0x12 C:\TMP\ccGE8QB9.debug.temp.o
 .debug_info    0x0000000000000000      0x99a C:\TMP\ccbk2Ts5.debug.temp.o
 .debug_abbrev  0x0000000000000000      0x1e4 C:\TMP\ccbk2Ts5.debug.temp.o
 .debug_line    0x0000000000000000      0x1cf C:\TMP\ccbk2Ts5.debug.temp.o
 .debug_str     0x0000000000000000      0x6f0 C:\TMP\ccbk2Ts5.debug.temp.o
 .comment       0x0000000000000000       0x12 C:\TMP\ccbk2Ts5.debug.temp.o
 .debug_info    0x0000000000000000      0x99a C:\TMP\cc6e5Ov0.debug.temp.o
 .debug_abbrev  0x0000000000000000      0x1e4 C:\TMP\cc6e5Ov0.debug.temp.o
 .debug_line    0x0000000000000000      0x1cf C:\TMP\cc6e5Ov0.debug.temp.o
 .debug_str     0x0000000000000000      0x6e6 C:\TMP\cc6e5Ov0.debug.temp.o
 .comment       0x0000000000000000       0x12 C:\TMP\cc6e5Ov0.debug.temp.o
 .comment       0x0000000000000000       0x12 C:\TMP\ccBWptpV.debug.temp.o
 .comment       0x0000000000000000       0x12 C:\TMP\ccURSunQ.debug.temp.o
 .debug_info    0x0000000000000000      0xb5d C:\TMP\ccZjqWeR.debug.temp.o
 .debug_abbrev  0x0000000000000000      0x272 C:\TMP\ccZjqWeR.debug.temp.o
 .debug_line    0x0000000000000000      0x34b C:\TMP\ccZjqWeR.debug.temp.o
 .debug_str     0x0000000000000000      0x88b C:\TMP\ccZjqWeR.debug.temp.o
 .comment       0x0000000000000000       0x12 C:\TMP\ccZjqWeR.debug.temp.o
 .comment       0x0000000000000000       0x12 C:\TMP\ccAsH6WR.debug.temp.o
 .comment       0x0000000000000000       0x12 C:\TMP\cc5XVEJS.debug.temp.o
 .comment       0x0000000000000000       0x12 C:\TMP\cckLhgXT.debug.temp.o
 .comment       0x0000000000000000       0x12 C:\TMP\ccbqv85U.debug.temp.o
 .comment       0x0000000000000000       0x12 C:\TMP\ccytHTqV.debug.temp.o
 .debug_info    0x0000000000000000     0x270c C:\TMP\ccpamnCV.debug.temp.o
 .debug_abbrev  0x0000000000000000      0x34b C:\TMP\ccpamnCV.debug.temp.o
 .debug_line    0x0000000000000000      0x2fd C:\TMP\ccpamnCV.debug.temp.o
 .debug_str     0x0000000000000000     0x260e C:\TMP\ccpamnCV.debug.temp.o
 .comment       0x0000000000000000       0x12 C:\TMP\ccpamnCV.debug.temp.o
 .debug_info    0x0000000000000000      0xe7a C:\TMP\ccQpxhjW.debug.temp.o
 .debug_abbrev  0x0000000000000000      0x201 C:\TMP\ccQpxhjW.debug.temp.o
 .debug_line    0x0000000000000000      0x24f C:\TMP\ccQpxhjW.debug.temp.o
 .debug_str     0x0000000000000000      0xbf0 C:\TMP\ccQpxhjW.debug.temp.o
 .comment       0x0000000000000000       0x12 C:\TMP\ccQpxhjW.debug.temp.o
 .comment       0x0000000000000000       0x12 C:\TMP\ccV11MQW.debug.temp.o
 .comment       0x0000000000000000       0x12 C:\TMP\ccsstjAW.debug.temp.o
 .comment       0x0000000000000000       0x12 C:\TMP\ccx6oqaW.debug.temp.o
 .comment       0x0000000000000000       0x12 C:\TMP\cco5IAbW.debug.temp.o
 .comment       0x0000000000000000       0x12 C:\TMP\ccVBBfhW.debug.temp.o
 .comment       0x0000000000000000       0x12 C:\TMP\cc8x4vdW.debug.temp.o
 .debug_info    0x0000000000000000      0xb3b C:\TMP\ccNiuNlV.debug.temp.o
 .debug_abbrev  0x0000000000000000      0x212 C:\TMP\ccNiuNlV.debug.temp.o
 .debug_line    0x0000000000000000      0x22c C:\TMP\ccNiuNlV.debug.temp.o
 .debug_str     0x0000000000000000      0x765 C:\TMP\ccNiuNlV.debug.temp.o
 .comment       0x0000000000000000       0x12 C:\TMP\ccNiuNlV.debug.temp.o
 .debug_info    0x0000000000000000      0xd34 C:\TMP\cc6v8hyU.debug.temp.o
 .debug_abbrev  0x0000000000000000      0x221 C:\TMP\cc6v8hyU.debug.temp.o
 .debug_line    0x0000000000000000      0x1c2 C:\TMP\cc6v8hyU.debug.temp.o
 .debug_str     0x0000000000000000      0xa40 C:\TMP\cc6v8hyU.debug.temp.o
 .comment       0x0000000000000000       0x12 C:\TMP\cc6v8hyU.debug.temp.o
 .comment       0x0000000000000000       0x12 C:\TMP\ccbMp0wT.debug.temp.o
 .comment       0x0000000000000000       0x12 C:\TMP\cc8HGUPS.debug.temp.o
 .comment       0x0000000000000000       0x12 C:\TMP\ccBEpL5V.debug.temp.o
 .debug_info    0x0000000000000000     0x2009 C:\TMP\ccyeBkcZ.debug.temp.o
 .debug_abbrev  0x0000000000000000      0x314 C:\TMP\ccyeBkcZ.debug.temp.o
 .debug_line    0x0000000000000000      0x31c C:\TMP\ccyeBkcZ.debug.temp.o
 .debug_str     0x0000000000000000     0x17c6 C:\TMP\ccyeBkcZ.debug.temp.o
 .comment       0x0000000000000000       0x12 C:\TMP\ccyeBkcZ.debug.temp.o
 .debug_info    0x0000000000000000     0x1e56 C:\TMP\cch9aXJ2.debug.temp.o
 .debug_abbrev  0x0000000000000000      0x333 C:\TMP\cch9aXJ2.debug.temp.o
 .debug_line    0x0000000000000000      0x307 C:\TMP\cch9aXJ2.debug.temp.o
 .debug_str     0x0000000000000000     0x1434 C:\TMP\cch9aXJ2.debug.temp.o
 .comment       0x0000000000000000       0x12 C:\TMP\cch9aXJ2.debug.temp.o
 .comment       0x0000000000000000       0x12 C:\TMP\ccyhfa85.debug.temp.o
 .comment       0x0000000000000000       0x12 C:\TMP\cc9xWLM8.debug.temp.o
 .comment       0x0000000000000000       0x12 C:\TMP\ccEbBLvb.debug.temp.o
 .comment       0x0000000000000000       0x12 C:\TMP\ccRhR60d.debug.temp.o
 .comment       0x0000000000000000       0x12 C:\TMP\ccM6qmXg.debug.temp.o
 .comment       0x0000000000000000       0x12 C:\TMP\ccdIFWXj.debug.temp.o
 .debug_info    0x0000000000000000      0x982 C:\TMP\ccOAI90l.debug.temp.o
 .debug_abbrev  0x0000000000000000      0x1e4 C:\TMP\ccOAI90l.debug.temp.o
 .debug_line    0x0000000000000000      0x2a1 C:\TMP\ccOAI90l.debug.temp.o
 .debug_str     0x0000000000000000      0x6eb C:\TMP\ccOAI90l.debug.temp.o
 .comment       0x0000000000000000       0x12 C:\TMP\ccOAI90l.debug.temp.o
 .comment       0x0000000000000000       0x12 C:\TMP\ccV9u5Un.debug.temp.o
 .comment       0x0000000000000000       0x12 C:\TMP\ccQAqWfq.debug.temp.o
 .comment       0x0000000000000000       0x12 C:\TMP\ccHX6jFs.debug.temp.o
 .comment       0x0000000000000000       0x12 C:\TMP\cc6xhiVu.debug.temp.o
 .comment       0x0000000000000000       0x12 C:\TMP\ccXWohnw.debug.temp.o
 .comment       0x0000000000000000       0x12 C:\TMP\ccmz0QFx.debug.temp.o
 .comment       0x0000000000000000       0x12 C:\TMP\cczVgW2y.debug.temp.o
 .comment       0x0000000000000000       0x12 C:\TMP\ccy6oWQA.debug.temp.o
 .comment       0x0000000000000000       0x12 C:\TMP\cc50xFvC.debug.temp.o
 .comment       0x0000000000000000       0x12 C:\TMP\cc4nq0bI.debug.temp.o
 .comment       0x0000000000000000       0x12 C:\TMP\ccN0MuCN.debug.temp.o
 .comment       0x0000000000000000       0x12 C:\TMP\cceSZ1tT.debug.temp.o
 .comment       0x0000000000000000       0x12 C:\TMP\cctXkWpZ.debug.temp.o
 .comment       0x0000000000000000       0x12 C:\TMP\ccoWt374.debug.temp.o
 .comment       0x0000000000000000       0x12 C:\TMP\ccD3fz69.debug.temp.o
 .comment       0x0000000000000000       0x12 C:\TMP\ccMxZs9e.debug.temp.o
 .comment       0x0000000000000000       0x12 C:\TMP\ccDukIYj.debug.temp.o
 .comment       0x0000000000000000       0x12 C:\TMP\ccGlFAco.debug.temp.o
 .comment       0x0000000000000000       0x12 C:\TMP\ccvxowRs.debug.temp.o
 .comment       0x0000000000000000       0x12 C:\TMP\cc8YymFx.debug.temp.o
 .debug_info    0x0000000000000000      0xdd4 C:\TMP\ccrmQWjC.debug.temp.o
 .debug_abbrev  0x0000000000000000      0x2d9 C:\TMP\ccrmQWjC.debug.temp.o
 .debug_line    0x0000000000000000      0x25f C:\TMP\ccrmQWjC.debug.temp.o
 .debug_str     0x0000000000000000      0x84f C:\TMP\ccrmQWjC.debug.temp.o
 .comment       0x0000000000000000       0x12 C:\TMP\ccrmQWjC.debug.temp.o
 .comment       0x0000000000000000       0x12 C:\TMP\ccaZgpaG.debug.temp.o
 .comment       0x0000000000000000       0x12 C:\TMP\ccJoDn5J.debug.temp.o
 .comment       0x0000000000000000       0x12 C:\TMP\ccQ1tWQN.debug.temp.o
 .comment       0x0000000000000000       0x12 C:\TMP\ccFTay3R.debug.temp.o
 .comment       0x0000000000000000       0x12 C:\TMP\cc6AqT6V.debug.temp.o
 .comment       0x0000000000000000       0x12 C:\TMP\ccV61963.debug.temp.o
 .comment       0x0000000000000000       0x12 C:\TMP\ccq2XLTb.debug.temp.o
 .comment       0x0000000000000000       0x12 C:\TMP\ccLSjj7j.debug.temp.o
 .comment       0x0000000000000000       0x12 C:\TMP\ccocCxEr.debug.temp.o
 .debug_info    0x0000000000000000     0x1966 C:\TMP\ccnHOasy.debug.temp.o
 .debug_abbrev  0x0000000000000000      0x2d4 C:\TMP\ccnHOasy.debug.temp.o
 .debug_line    0x0000000000000000      0x223 C:\TMP\ccnHOasy.debug.temp.o
 .debug_str     0x0000000000000000      0x86b C:\TMP\ccnHOasy.debug.temp.o
 .comment       0x0000000000000000       0x12 C:\TMP\ccnHOasy.debug.temp.o
 .comment       0x0000000000000000       0x12 C:\TMP\ccQPtw6E.debug.temp.o
 .comment       0x0000000000000000       0x12 C:\TMP\ccfwBp7L.debug.temp.o
 .debug_info    0x0000000000000000     0x1149 C:\TMP\cci5y2YS.debug.temp.o
 .debug_abbrev  0x0000000000000000      0x2dd C:\TMP\cci5y2YS.debug.temp.o
 .debug_line    0x0000000000000000      0x322 C:\TMP\cci5y2YS.debug.temp.o
 .debug_str     0x0000000000000000      0xaa6 C:\TMP\cci5y2YS.debug.temp.o
 .comment       0x0000000000000000       0x12 C:\TMP\cci5y2YS.debug.temp.o
 .debug_info    0x0000000000000000      0x9cf C:\TMP\cc9RE2UZ.debug.temp.o
 .debug_abbrev  0x0000000000000000      0x1d8 C:\TMP\cc9RE2UZ.debug.temp.o
 .debug_line    0x0000000000000000      0x1d0 C:\TMP\cc9RE2UZ.debug.temp.o
 .debug_str     0x0000000000000000      0x6e9 C:\TMP\cc9RE2UZ.debug.temp.o
 .comment       0x0000000000000000       0x12 C:\TMP\cc9RE2UZ.debug.temp.o
 .debug_info    0x0000000000000000       0x1d C:\TMP\ccigpmk6.debug.temp.o
 .debug_abbrev  0x0000000000000000       0x10 C:\TMP\ccigpmk6.debug.temp.o
 .debug_line    0x0000000000000000       0x1e C:\TMP\ccigpmk6.debug.temp.o
 .debug_str     0x0000000000000000      0x1e0 C:\TMP\ccigpmk6.debug.temp.o
 .comment       0x0000000000000000       0x12 C:\TMP\ccigpmk6.debug.temp.o
 .comment       0x0000000000000000       0x12 C:\TMP\ccNpeBGg.debug.temp.o
 .comment       0x0000000000000000       0x12 C:\TMP\cc01EbPq.debug.temp.o
 .comment       0x0000000000000000       0x12 C:\TMP\cc1veHoB.debug.temp.o
 .comment       0x0000000000000000       0x12 C:\TMP\ccQJsI2L.debug.temp.o
 .comment       0x0000000000000000       0x12 C:\TMP\ccr0jXsW.debug.temp.o
 .comment       0x0000000000000000       0x12 C:\TMP\ccijgA95.debug.temp.o
 .comment       0x0000000000000000       0x12 C:\TMP\ccHPGNGf.debug.temp.o
 .comment       0x0000000000000000       0x12 C:\TMP\ccU5Lwip.debug.temp.o
 .comment       0x0000000000000000       0x12 C:\TMP\cc3TjNgz.debug.temp.o
 .comment       0x0000000000000000       0x12 C:\TMP\ccs0E09I.debug.temp.o
 .debug_info    0x0000000000000000     0x1e75 C:\TMP\cckdMU7K.debug.temp.o
 .debug_abbrev  0x0000000000000000      0x359 C:\TMP\cckdMU7K.debug.temp.o
 .debug_line    0x0000000000000000      0x487 C:\TMP\cckdMU7K.debug.temp.o
 .debug_str     0x0000000000000000     0x14d9 C:\TMP\cckdMU7K.debug.temp.o
 .comment       0x0000000000000000       0x12 C:\TMP\cckdMU7K.debug.temp.o
 .debug_info    0x0000000000000000     0x1357 C:\TMP\ccSVUyiN.debug.temp.o
 .debug_abbrev  0x0000000000000000      0x265 C:\TMP\ccSVUyiN.debug.temp.o
 .debug_line    0x0000000000000000      0x2a4 C:\TMP\ccSVUyiN.debug.temp.o
 .debug_str     0x0000000000000000      0xc84 C:\TMP\ccSVUyiN.debug.temp.o
 .comment       0x0000000000000000       0x12 C:\TMP\ccSVUyiN.debug.temp.o
 .comment       0x0000000000000000       0x12 C:\TMP\ccQTc5EO.debug.temp.o
 .debug_info    0x0000000000000000     0x13d7 C:\TMP\ccoEMkSP.debug.temp.o
 .debug_abbrev  0x0000000000000000      0x26f C:\TMP\ccoEMkSP.debug.temp.o
 .debug_line    0x0000000000000000      0x32f C:\TMP\ccoEMkSP.debug.temp.o
 .debug_str     0x0000000000000000      0xd45 C:\TMP\ccoEMkSP.debug.temp.o
 .comment       0x0000000000000000       0x12 C:\TMP\ccoEMkSP.debug.temp.o
 .comment       0x0000000000000000       0x12 C:\TMP\ccA17twR.debug.temp.o
 .comment       0x0000000000000000       0x12 C:\TMP\cc8lCJ5S.debug.temp.o
 .comment       0x0000000000000000       0x12 C:\TMP\ccGIxAHT.debug.temp.o
 .comment       0x0000000000000000       0x12 C:\TMP\cc6yGvKU.debug.temp.o
 .comment       0x0000000000000000       0x12 C:\TMP\cc0wL0DV.debug.temp.o
 .comment       0x0000000000000000       0x12 C:\TMP\cceDtUNV.debug.temp.o
 .comment       0x0000000000000000       0x12 C:\TMP\ccOGkUSV.debug.temp.o
 .comment       0x0000000000000000       0x12 C:\TMP\ccW7cbbW.debug.temp.o
 .text          0x0000000000000000        0x0 build/objs/ci130x_vtable.o
 .data          0x0000000000000000        0x0 build/objs/ci130x_vtable.o
 .bss           0x0000000000000000        0x0 build/objs/ci130x_vtable.o
 .debug_line    0x0000000000000000       0x51 build/objs/ci130x_vtable.o
 .debug_info    0x0000000000000000       0x26 build/objs/ci130x_vtable.o
 .debug_abbrev  0x0000000000000000       0x14 build/objs/ci130x_vtable.o
 .debug_aranges
                0x0000000000000000       0x20 build/objs/ci130x_vtable.o
 .debug_str     0x0000000000000000       0xb9 build/objs/ci130x_vtable.o
 .riscv.attributes
                0x0000000000000000       0x2e build/objs/ci130x_vtable.o
 .text          0x0000000000000000        0x0 build/objs/ci130x_startup.o
 .data          0x0000000000000000        0x0 build/objs/ci130x_startup.o
 .bss           0x0000000000000000        0x0 build/objs/ci130x_startup.o
 .text          0x0000000000000000        0x0 ../../../libs\libnewlib_port.a(sbrk.o)
 .data          0x0000000000000000        0x0 ../../../libs\libnewlib_port.a(sbrk.o)
 .bss           0x0000000000000000        0x0 ../../../libs\libnewlib_port.a(sbrk.o)
 .text.__env_lock
                0x0000000000000000       0x18 ../../../libs\libnewlib_port.a(sbrk.o)
 .text.__env_unlock
                0x0000000000000000       0x18 ../../../libs\libnewlib_port.a(sbrk.o)
 .text.__wrap__malloc_r
                0x0000000000000000       0x1c ../../../libs\libnewlib_port.a(sbrk.o)
 .text.__wrap__free_r
                0x0000000000000000       0x1c ../../../libs\libnewlib_port.a(sbrk.o)
 .text.__wrap_strcat
                0x0000000000000000       0x18 ../../../libs\libnewlib_port.a(sbrk.o)
 .text.__wrap_strcpy
                0x0000000000000000       0x18 ../../../libs\libnewlib_port.a(sbrk.o)
 .text.__wrap_strlen
                0x0000000000000000       0x18 ../../../libs\libnewlib_port.a(sbrk.o)
 .text.__wrap_strncat
                0x0000000000000000       0x18 ../../../libs\libnewlib_port.a(sbrk.o)
 .text.__wrap_strncmp
                0x0000000000000000       0x18 ../../../libs\libnewlib_port.a(sbrk.o)
 .text.__wrap_strncpy
                0x0000000000000000       0x18 ../../../libs\libnewlib_port.a(sbrk.o)
 .text.__wrap_strstr
                0x0000000000000000       0x18 ../../../libs\libnewlib_port.a(sbrk.o)
 .text.__wrap_stpcpy
                0x0000000000000000       0x18 ../../../libs\libnewlib_port.a(sbrk.o)
 .text.__wrap_stpncpy
                0x0000000000000000       0x18 ../../../libs\libnewlib_port.a(sbrk.o)
 .text.__wrap_strnlen
                0x0000000000000000       0x18 ../../../libs\libnewlib_port.a(sbrk.o)
 .text.__wrap_strtoul
                0x0000000000000000       0x1a ../../../libs\libnewlib_port.a(sbrk.o)
 .text.__wrap_atol
                0x0000000000000000       0x1a ../../../libs\libnewlib_port.a(sbrk.o)
 .text.__wrap_qsort
                0x0000000000000000       0x1a ../../../libs\libnewlib_port.a(sbrk.o)
 .text.__wrap_vsnprintf
                0x0000000000000000       0x1a ../../../libs\libnewlib_port.a(sbrk.o)
 .text.__wrap_sprintf
                0x0000000000000000       0x1a ../../../libs\libnewlib_port.a(sbrk.o)
 .text.__wrap_abs
                0x0000000000000000       0x1a ../../../libs\libnewlib_port.a(sbrk.o)
 .text.__wrap_isnan
                0x0000000000000000       0x1a ../../../libs\libnewlib_port.a(sbrk.o)
 .text.__wrap_isinf
                0x0000000000000000       0x1a ../../../libs\libnewlib_port.a(sbrk.o)
 .text.__wrap_cosf
                0x0000000000000000       0x1a ../../../libs\libnewlib_port.a(sbrk.o)
 .text.__wrap_sinf
                0x0000000000000000       0x1a ../../../libs\libnewlib_port.a(sbrk.o)
 .text.__wrap_tanf
                0x0000000000000000       0x1a ../../../libs\libnewlib_port.a(sbrk.o)
 .text.__wrap_expf
                0x0000000000000000       0x1a ../../../libs\libnewlib_port.a(sbrk.o)
 .text.__wrap_sqrtf
                0x0000000000000000       0x1a ../../../libs\libnewlib_port.a(sbrk.o)
 .text.__wrap_logf
                0x0000000000000000       0x1a ../../../libs\libnewlib_port.a(sbrk.o)
 .text.__wrap_log10f
                0x0000000000000000       0x1a ../../../libs\libnewlib_port.a(sbrk.o)
 .text.__wrap_atoi
                0x0000000000000000       0x38 ../../../libs\libnewlib_port.a(sbrk.o)
 .text          0x0000000000000000        0x0 ../../../libs\libfreertos_port.a(portasm.o)
 .data          0x0000000000000000        0x0 ../../../libs\libfreertos_port.a(portasm.o)
 .bss           0x0000000000000000        0x0 ../../../libs\libfreertos_port.a(portasm.o)
 .data          0x0000000000000000        0x0 d:/software/yuyin/qiqiyinqiluntai/riscv-nuclei-elf-gcc-9.2.0.0/gcc_fix_raissrc/bin/../lib/gcc/riscv-nuclei-elf/9.2.0/rv32imafc/ilp32f\libgcc.a(save-restore.o)
 .bss           0x0000000000000000        0x0 d:/software/yuyin/qiqiyinqiluntai/riscv-nuclei-elf-gcc-9.2.0.0/gcc_fix_raissrc/bin/../lib/gcc/riscv-nuclei-elf/9.2.0/rv32imafc/ilp32f\libgcc.a(save-restore.o)
 .eh_frame      0x0000000000000000       0xf8 d:/software/yuyin/qiqiyinqiluntai/riscv-nuclei-elf-gcc-9.2.0.0/gcc_fix_raissrc/bin/../lib/gcc/riscv-nuclei-elf/9.2.0/rv32imafc/ilp32f\libgcc.a(save-restore.o)
 .data          0x0000000000000000        0x0 d:/software/yuyin/qiqiyinqiluntai/riscv-nuclei-elf-gcc-9.2.0.0/gcc_fix_raissrc/bin/../lib/gcc/riscv-nuclei-elf/9.2.0/rv32imafc/ilp32f\libgcc.a(adddf3.o)
 .bss           0x0000000000000000        0x0 d:/software/yuyin/qiqiyinqiluntai/riscv-nuclei-elf-gcc-9.2.0.0/gcc_fix_raissrc/bin/../lib/gcc/riscv-nuclei-elf/9.2.0/rv32imafc/ilp32f\libgcc.a(adddf3.o)
 .data          0x0000000000000000        0x0 d:/software/yuyin/qiqiyinqiluntai/riscv-nuclei-elf-gcc-9.2.0.0/gcc_fix_raissrc/bin/../lib/gcc/riscv-nuclei-elf/9.2.0/rv32imafc/ilp32f\libgcc.a(divdf3.o)
 .bss           0x0000000000000000        0x0 d:/software/yuyin/qiqiyinqiluntai/riscv-nuclei-elf-gcc-9.2.0.0/gcc_fix_raissrc/bin/../lib/gcc/riscv-nuclei-elf/9.2.0/rv32imafc/ilp32f\libgcc.a(divdf3.o)
 .data          0x0000000000000000        0x0 d:/software/yuyin/qiqiyinqiluntai/riscv-nuclei-elf-gcc-9.2.0.0/gcc_fix_raissrc/bin/../lib/gcc/riscv-nuclei-elf/9.2.0/rv32imafc/ilp32f\libgcc.a(eqdf2.o)
 .bss           0x0000000000000000        0x0 d:/software/yuyin/qiqiyinqiluntai/riscv-nuclei-elf-gcc-9.2.0.0/gcc_fix_raissrc/bin/../lib/gcc/riscv-nuclei-elf/9.2.0/rv32imafc/ilp32f\libgcc.a(eqdf2.o)
 .data          0x0000000000000000        0x0 d:/software/yuyin/qiqiyinqiluntai/riscv-nuclei-elf-gcc-9.2.0.0/gcc_fix_raissrc/bin/../lib/gcc/riscv-nuclei-elf/9.2.0/rv32imafc/ilp32f\libgcc.a(gedf2.o)
 .bss           0x0000000000000000        0x0 d:/software/yuyin/qiqiyinqiluntai/riscv-nuclei-elf-gcc-9.2.0.0/gcc_fix_raissrc/bin/../lib/gcc/riscv-nuclei-elf/9.2.0/rv32imafc/ilp32f\libgcc.a(gedf2.o)
 .data          0x0000000000000000        0x0 d:/software/yuyin/qiqiyinqiluntai/riscv-nuclei-elf-gcc-9.2.0.0/gcc_fix_raissrc/bin/../lib/gcc/riscv-nuclei-elf/9.2.0/rv32imafc/ilp32f\libgcc.a(ledf2.o)
 .bss           0x0000000000000000        0x0 d:/software/yuyin/qiqiyinqiluntai/riscv-nuclei-elf-gcc-9.2.0.0/gcc_fix_raissrc/bin/../lib/gcc/riscv-nuclei-elf/9.2.0/rv32imafc/ilp32f\libgcc.a(ledf2.o)
 .data          0x0000000000000000        0x0 d:/software/yuyin/qiqiyinqiluntai/riscv-nuclei-elf-gcc-9.2.0.0/gcc_fix_raissrc/bin/../lib/gcc/riscv-nuclei-elf/9.2.0/rv32imafc/ilp32f\libgcc.a(muldf3.o)
 .bss           0x0000000000000000        0x0 d:/software/yuyin/qiqiyinqiluntai/riscv-nuclei-elf-gcc-9.2.0.0/gcc_fix_raissrc/bin/../lib/gcc/riscv-nuclei-elf/9.2.0/rv32imafc/ilp32f\libgcc.a(muldf3.o)
 .data          0x0000000000000000        0x0 d:/software/yuyin/qiqiyinqiluntai/riscv-nuclei-elf-gcc-9.2.0.0/gcc_fix_raissrc/bin/../lib/gcc/riscv-nuclei-elf/9.2.0/rv32imafc/ilp32f\libgcc.a(subdf3.o)
 .bss           0x0000000000000000        0x0 d:/software/yuyin/qiqiyinqiluntai/riscv-nuclei-elf-gcc-9.2.0.0/gcc_fix_raissrc/bin/../lib/gcc/riscv-nuclei-elf/9.2.0/rv32imafc/ilp32f\libgcc.a(subdf3.o)
 .data          0x0000000000000000        0x0 d:/software/yuyin/qiqiyinqiluntai/riscv-nuclei-elf-gcc-9.2.0.0/gcc_fix_raissrc/bin/../lib/gcc/riscv-nuclei-elf/9.2.0/rv32imafc/ilp32f\libgcc.a(unorddf2.o)
 .bss           0x0000000000000000        0x0 d:/software/yuyin/qiqiyinqiluntai/riscv-nuclei-elf-gcc-9.2.0.0/gcc_fix_raissrc/bin/../lib/gcc/riscv-nuclei-elf/9.2.0/rv32imafc/ilp32f\libgcc.a(unorddf2.o)
 .data          0x0000000000000000        0x0 d:/software/yuyin/qiqiyinqiluntai/riscv-nuclei-elf-gcc-9.2.0.0/gcc_fix_raissrc/bin/../lib/gcc/riscv-nuclei-elf/9.2.0/rv32imafc/ilp32f\libgcc.a(fixdfsi.o)
 .bss           0x0000000000000000        0x0 d:/software/yuyin/qiqiyinqiluntai/riscv-nuclei-elf-gcc-9.2.0.0/gcc_fix_raissrc/bin/../lib/gcc/riscv-nuclei-elf/9.2.0/rv32imafc/ilp32f\libgcc.a(fixdfsi.o)
 .data          0x0000000000000000        0x0 d:/software/yuyin/qiqiyinqiluntai/riscv-nuclei-elf-gcc-9.2.0.0/gcc_fix_raissrc/bin/../lib/gcc/riscv-nuclei-elf/9.2.0/rv32imafc/ilp32f\libgcc.a(floatsidf.o)
 .bss           0x0000000000000000        0x0 d:/software/yuyin/qiqiyinqiluntai/riscv-nuclei-elf-gcc-9.2.0.0/gcc_fix_raissrc/bin/../lib/gcc/riscv-nuclei-elf/9.2.0/rv32imafc/ilp32f\libgcc.a(floatsidf.o)
 .data          0x0000000000000000        0x0 d:/software/yuyin/qiqiyinqiluntai/riscv-nuclei-elf-gcc-9.2.0.0/gcc_fix_raissrc/bin/../lib/gcc/riscv-nuclei-elf/9.2.0/rv32imafc/ilp32f\libgcc.a(extendsfdf2.o)
 .bss           0x0000000000000000        0x0 d:/software/yuyin/qiqiyinqiluntai/riscv-nuclei-elf-gcc-9.2.0.0/gcc_fix_raissrc/bin/../lib/gcc/riscv-nuclei-elf/9.2.0/rv32imafc/ilp32f\libgcc.a(extendsfdf2.o)
 .data          0x0000000000000000        0x0 d:/software/yuyin/qiqiyinqiluntai/riscv-nuclei-elf-gcc-9.2.0.0/gcc_fix_raissrc/bin/../lib/gcc/riscv-nuclei-elf/9.2.0/rv32imafc/ilp32f\libgcc.a(truncdfsf2.o)
 .bss           0x0000000000000000        0x0 d:/software/yuyin/qiqiyinqiluntai/riscv-nuclei-elf-gcc-9.2.0.0/gcc_fix_raissrc/bin/../lib/gcc/riscv-nuclei-elf/9.2.0/rv32imafc/ilp32f\libgcc.a(truncdfsf2.o)
 .data          0x0000000000000000        0x0 d:/software/yuyin/qiqiyinqiluntai/riscv-nuclei-elf-gcc-9.2.0.0/gcc_fix_raissrc/bin/../lib/gcc/riscv-nuclei-elf/9.2.0/rv32imafc/ilp32f\libgcc.a(_clzsi2.o)
 .bss           0x0000000000000000        0x0 d:/software/yuyin/qiqiyinqiluntai/riscv-nuclei-elf-gcc-9.2.0.0/gcc_fix_raissrc/bin/../lib/gcc/riscv-nuclei-elf/9.2.0/rv32imafc/ilp32f\libgcc.a(_clzsi2.o)
 .text          0x0000000000000000        0x0 d:/software/yuyin/qiqiyinqiluntai/riscv-nuclei-elf-gcc-9.2.0.0/gcc_fix_raissrc/bin/../lib/gcc/riscv-nuclei-elf/9.2.0/rv32imafc/ilp32f\libgcc.a(_clz.o)
 .data          0x0000000000000000        0x0 d:/software/yuyin/qiqiyinqiluntai/riscv-nuclei-elf-gcc-9.2.0.0/gcc_fix_raissrc/bin/../lib/gcc/riscv-nuclei-elf/9.2.0/rv32imafc/ilp32f\libgcc.a(_clz.o)
 .bss           0x0000000000000000        0x0 d:/software/yuyin/qiqiyinqiluntai/riscv-nuclei-elf-gcc-9.2.0.0/gcc_fix_raissrc/bin/../lib/gcc/riscv-nuclei-elf/9.2.0/rv32imafc/ilp32f\libgcc.a(_clz.o)
 .text          0x0000000000000000        0x0 d:/software/yuyin/qiqiyinqiluntai/riscv-nuclei-elf-gcc-9.2.0.0/gcc_fix_raissrc/bin/../lib/gcc/riscv-nuclei-elf/9.2.0/../../../../riscv-nuclei-elf/lib/rv32imafc/ilp32f\libg_nano.a(lib_a-atexit.o)
 .data          0x0000000000000000        0x0 d:/software/yuyin/qiqiyinqiluntai/riscv-nuclei-elf-gcc-9.2.0.0/gcc_fix_raissrc/bin/../lib/gcc/riscv-nuclei-elf/9.2.0/../../../../riscv-nuclei-elf/lib/rv32imafc/ilp32f\libg_nano.a(lib_a-atexit.o)
 .bss           0x0000000000000000        0x0 d:/software/yuyin/qiqiyinqiluntai/riscv-nuclei-elf-gcc-9.2.0.0/gcc_fix_raissrc/bin/../lib/gcc/riscv-nuclei-elf/9.2.0/../../../../riscv-nuclei-elf/lib/rv32imafc/ilp32f\libg_nano.a(lib_a-atexit.o)
 .text          0x0000000000000000        0x0 d:/software/yuyin/qiqiyinqiluntai/riscv-nuclei-elf-gcc-9.2.0.0/gcc_fix_raissrc/bin/../lib/gcc/riscv-nuclei-elf/9.2.0/../../../../riscv-nuclei-elf/lib/rv32imafc/ilp32f\libg_nano.a(lib_a-exit.o)
 .data          0x0000000000000000        0x0 d:/software/yuyin/qiqiyinqiluntai/riscv-nuclei-elf-gcc-9.2.0.0/gcc_fix_raissrc/bin/../lib/gcc/riscv-nuclei-elf/9.2.0/../../../../riscv-nuclei-elf/lib/rv32imafc/ilp32f\libg_nano.a(lib_a-exit.o)
 .bss           0x0000000000000000        0x0 d:/software/yuyin/qiqiyinqiluntai/riscv-nuclei-elf-gcc-9.2.0.0/gcc_fix_raissrc/bin/../lib/gcc/riscv-nuclei-elf/9.2.0/../../../../riscv-nuclei-elf/lib/rv32imafc/ilp32f\libg_nano.a(lib_a-exit.o)
 .text          0x0000000000000000        0x0 d:/software/yuyin/qiqiyinqiluntai/riscv-nuclei-elf-gcc-9.2.0.0/gcc_fix_raissrc/bin/../lib/gcc/riscv-nuclei-elf/9.2.0/../../../../riscv-nuclei-elf/lib/rv32imafc/ilp32f\libg_nano.a(lib_a-fini.o)
 .data          0x0000000000000000        0x0 d:/software/yuyin/qiqiyinqiluntai/riscv-nuclei-elf-gcc-9.2.0.0/gcc_fix_raissrc/bin/../lib/gcc/riscv-nuclei-elf/9.2.0/../../../../riscv-nuclei-elf/lib/rv32imafc/ilp32f\libg_nano.a(lib_a-fini.o)
 .bss           0x0000000000000000        0x0 d:/software/yuyin/qiqiyinqiluntai/riscv-nuclei-elf-gcc-9.2.0.0/gcc_fix_raissrc/bin/../lib/gcc/riscv-nuclei-elf/9.2.0/../../../../riscv-nuclei-elf/lib/rv32imafc/ilp32f\libg_nano.a(lib_a-fini.o)
 .text          0x0000000000000000        0x0 d:/software/yuyin/qiqiyinqiluntai/riscv-nuclei-elf-gcc-9.2.0.0/gcc_fix_raissrc/bin/../lib/gcc/riscv-nuclei-elf/9.2.0/../../../../riscv-nuclei-elf/lib/rv32imafc/ilp32f\libg_nano.a(lib_a-impure.o)
 .data          0x0000000000000000        0x0 d:/software/yuyin/qiqiyinqiluntai/riscv-nuclei-elf-gcc-9.2.0.0/gcc_fix_raissrc/bin/../lib/gcc/riscv-nuclei-elf/9.2.0/../../../../riscv-nuclei-elf/lib/rv32imafc/ilp32f\libg_nano.a(lib_a-impure.o)
 .bss           0x0000000000000000        0x0 d:/software/yuyin/qiqiyinqiluntai/riscv-nuclei-elf-gcc-9.2.0.0/gcc_fix_raissrc/bin/../lib/gcc/riscv-nuclei-elf/9.2.0/../../../../riscv-nuclei-elf/lib/rv32imafc/ilp32f\libg_nano.a(lib_a-impure.o)
 .text          0x0000000000000000        0x0 d:/software/yuyin/qiqiyinqiluntai/riscv-nuclei-elf-gcc-9.2.0.0/gcc_fix_raissrc/bin/../lib/gcc/riscv-nuclei-elf/9.2.0/../../../../riscv-nuclei-elf/lib/rv32imafc/ilp32f\libg_nano.a(lib_a-init.o)
 .data          0x0000000000000000        0x0 d:/software/yuyin/qiqiyinqiluntai/riscv-nuclei-elf-gcc-9.2.0.0/gcc_fix_raissrc/bin/../lib/gcc/riscv-nuclei-elf/9.2.0/../../../../riscv-nuclei-elf/lib/rv32imafc/ilp32f\libg_nano.a(lib_a-init.o)
 .bss           0x0000000000000000        0x0 d:/software/yuyin/qiqiyinqiluntai/riscv-nuclei-elf-gcc-9.2.0.0/gcc_fix_raissrc/bin/../lib/gcc/riscv-nuclei-elf/9.2.0/../../../../riscv-nuclei-elf/lib/rv32imafc/ilp32f\libg_nano.a(lib_a-init.o)
 .text          0x0000000000000000        0x0 d:/software/yuyin/qiqiyinqiluntai/riscv-nuclei-elf-gcc-9.2.0.0/gcc_fix_raissrc/bin/../lib/gcc/riscv-nuclei-elf/9.2.0/../../../../riscv-nuclei-elf/lib/rv32imafc/ilp32f\libg_nano.a(lib_a-rand.o)
 .data          0x0000000000000000        0x0 d:/software/yuyin/qiqiyinqiluntai/riscv-nuclei-elf-gcc-9.2.0.0/gcc_fix_raissrc/bin/../lib/gcc/riscv-nuclei-elf/9.2.0/../../../../riscv-nuclei-elf/lib/rv32imafc/ilp32f\libg_nano.a(lib_a-rand.o)
 .bss           0x0000000000000000        0x0 d:/software/yuyin/qiqiyinqiluntai/riscv-nuclei-elf-gcc-9.2.0.0/gcc_fix_raissrc/bin/../lib/gcc/riscv-nuclei-elf/9.2.0/../../../../riscv-nuclei-elf/lib/rv32imafc/ilp32f\libg_nano.a(lib_a-rand.o)
 .text.srand    0x0000000000000000       0x60 d:/software/yuyin/qiqiyinqiluntai/riscv-nuclei-elf-gcc-9.2.0.0/gcc_fix_raissrc/bin/../lib/gcc/riscv-nuclei-elf/9.2.0/../../../../riscv-nuclei-elf/lib/rv32imafc/ilp32f\libg_nano.a(lib_a-rand.o)
 .text.rand     0x0000000000000000       0x8e d:/software/yuyin/qiqiyinqiluntai/riscv-nuclei-elf-gcc-9.2.0.0/gcc_fix_raissrc/bin/../lib/gcc/riscv-nuclei-elf/9.2.0/../../../../riscv-nuclei-elf/lib/rv32imafc/ilp32f\libg_nano.a(lib_a-rand.o)
 .comment       0x0000000000000000       0x12 d:/software/yuyin/qiqiyinqiluntai/riscv-nuclei-elf-gcc-9.2.0.0/gcc_fix_raissrc/bin/../lib/gcc/riscv-nuclei-elf/9.2.0/../../../../riscv-nuclei-elf/lib/rv32imafc/ilp32f\libg_nano.a(lib_a-rand.o)
 .riscv.attributes
                0x0000000000000000       0x30 d:/software/yuyin/qiqiyinqiluntai/riscv-nuclei-elf-gcc-9.2.0.0/gcc_fix_raissrc/bin/../lib/gcc/riscv-nuclei-elf/9.2.0/../../../../riscv-nuclei-elf/lib/rv32imafc/ilp32f\libg_nano.a(lib_a-rand.o)
 .text          0x0000000000000000        0x0 d:/software/yuyin/qiqiyinqiluntai/riscv-nuclei-elf-gcc-9.2.0.0/gcc_fix_raissrc/bin/../lib/gcc/riscv-nuclei-elf/9.2.0/../../../../riscv-nuclei-elf/lib/rv32imafc/ilp32f\libg_nano.a(lib_a-__atexit.o)
 .data          0x0000000000000000        0x0 d:/software/yuyin/qiqiyinqiluntai/riscv-nuclei-elf-gcc-9.2.0.0/gcc_fix_raissrc/bin/../lib/gcc/riscv-nuclei-elf/9.2.0/../../../../riscv-nuclei-elf/lib/rv32imafc/ilp32f\libg_nano.a(lib_a-__atexit.o)
 .bss           0x0000000000000000        0x0 d:/software/yuyin/qiqiyinqiluntai/riscv-nuclei-elf-gcc-9.2.0.0/gcc_fix_raissrc/bin/../lib/gcc/riscv-nuclei-elf/9.2.0/../../../../riscv-nuclei-elf/lib/rv32imafc/ilp32f\libg_nano.a(lib_a-__atexit.o)
 .sdata.__atexit_dummy
                0x0000000000000000        0x4 d:/software/yuyin/qiqiyinqiluntai/riscv-nuclei-elf-gcc-9.2.0.0/gcc_fix_raissrc/bin/../lib/gcc/riscv-nuclei-elf/9.2.0/../../../../riscv-nuclei-elf/lib/rv32imafc/ilp32f\libg_nano.a(lib_a-__atexit.o)
 .text          0x0000000000000000        0x0 d:/software/yuyin/qiqiyinqiluntai/riscv-nuclei-elf-gcc-9.2.0.0/gcc_fix_raissrc/bin/../lib/gcc/riscv-nuclei-elf/9.2.0/../../../../riscv-nuclei-elf/lib/rv32imafc/ilp32f\libg_nano.a(lib_a-__call_atexit.o)
 .data          0x0000000000000000        0x0 d:/software/yuyin/qiqiyinqiluntai/riscv-nuclei-elf-gcc-9.2.0.0/gcc_fix_raissrc/bin/../lib/gcc/riscv-nuclei-elf/9.2.0/../../../../riscv-nuclei-elf/lib/rv32imafc/ilp32f\libg_nano.a(lib_a-__call_atexit.o)
 .bss           0x0000000000000000        0x0 d:/software/yuyin/qiqiyinqiluntai/riscv-nuclei-elf-gcc-9.2.0.0/gcc_fix_raissrc/bin/../lib/gcc/riscv-nuclei-elf/9.2.0/../../../../riscv-nuclei-elf/lib/rv32imafc/ilp32f\libg_nano.a(lib_a-__call_atexit.o)
 .text          0x0000000000000000        0x0 d:/software/yuyin/qiqiyinqiluntai/riscv-nuclei-elf-gcc-9.2.0.0/gcc_fix_raissrc/bin/../lib/gcc/riscv-nuclei-elf/9.2.0/../../../../riscv-nuclei-elf/lib/rv32imafc/ilp32f\libg_nano.a(lib_a-calloc.o)
 .data          0x0000000000000000        0x0 d:/software/yuyin/qiqiyinqiluntai/riscv-nuclei-elf-gcc-9.2.0.0/gcc_fix_raissrc/bin/../lib/gcc/riscv-nuclei-elf/9.2.0/../../../../riscv-nuclei-elf/lib/rv32imafc/ilp32f\libg_nano.a(lib_a-calloc.o)
 .bss           0x0000000000000000        0x0 d:/software/yuyin/qiqiyinqiluntai/riscv-nuclei-elf-gcc-9.2.0.0/gcc_fix_raissrc/bin/../lib/gcc/riscv-nuclei-elf/9.2.0/../../../../riscv-nuclei-elf/lib/rv32imafc/ilp32f\libg_nano.a(lib_a-calloc.o)
 .text          0x0000000000000000        0x0 d:/software/yuyin/qiqiyinqiluntai/riscv-nuclei-elf-gcc-9.2.0.0/gcc_fix_raissrc/bin/../lib/gcc/riscv-nuclei-elf/9.2.0/../../../../riscv-nuclei-elf/lib/rv32imafc/ilp32f\libg_nano.a(lib_a-fprintf.o)
 .data          0x0000000000000000        0x0 d:/software/yuyin/qiqiyinqiluntai/riscv-nuclei-elf-gcc-9.2.0.0/gcc_fix_raissrc/bin/../lib/gcc/riscv-nuclei-elf/9.2.0/../../../../riscv-nuclei-elf/lib/rv32imafc/ilp32f\libg_nano.a(lib_a-fprintf.o)
 .bss           0x0000000000000000        0x0 d:/software/yuyin/qiqiyinqiluntai/riscv-nuclei-elf-gcc-9.2.0.0/gcc_fix_raissrc/bin/../lib/gcc/riscv-nuclei-elf/9.2.0/../../../../riscv-nuclei-elf/lib/rv32imafc/ilp32f\libg_nano.a(lib_a-fprintf.o)
 .text._fprintf_r
                0x0000000000000000       0x20 d:/software/yuyin/qiqiyinqiluntai/riscv-nuclei-elf-gcc-9.2.0.0/gcc_fix_raissrc/bin/../lib/gcc/riscv-nuclei-elf/9.2.0/../../../../riscv-nuclei-elf/lib/rv32imafc/ilp32f\libg_nano.a(lib_a-fprintf.o)
 .text          0x0000000000000000        0x0 d:/software/yuyin/qiqiyinqiluntai/riscv-nuclei-elf-gcc-9.2.0.0/gcc_fix_raissrc/bin/../lib/gcc/riscv-nuclei-elf/9.2.0/../../../../riscv-nuclei-elf/lib/rv32imafc/ilp32f\libg_nano.a(lib_a-nano-callocr.o)
 .data          0x0000000000000000        0x0 d:/software/yuyin/qiqiyinqiluntai/riscv-nuclei-elf-gcc-9.2.0.0/gcc_fix_raissrc/bin/../lib/gcc/riscv-nuclei-elf/9.2.0/../../../../riscv-nuclei-elf/lib/rv32imafc/ilp32f\libg_nano.a(lib_a-nano-callocr.o)
 .bss           0x0000000000000000        0x0 d:/software/yuyin/qiqiyinqiluntai/riscv-nuclei-elf-gcc-9.2.0.0/gcc_fix_raissrc/bin/../lib/gcc/riscv-nuclei-elf/9.2.0/../../../../riscv-nuclei-elf/lib/rv32imafc/ilp32f\libg_nano.a(lib_a-nano-callocr.o)
 .text          0x0000000000000000        0x0 d:/software/yuyin/qiqiyinqiluntai/riscv-nuclei-elf-gcc-9.2.0.0/gcc_fix_raissrc/bin/../lib/gcc/riscv-nuclei-elf/9.2.0/../../../../riscv-nuclei-elf/lib/rv32imafc/ilp32f\libg_nano.a(lib_a-nano-mallocr.o)
 .data          0x0000000000000000        0x0 d:/software/yuyin/qiqiyinqiluntai/riscv-nuclei-elf-gcc-9.2.0.0/gcc_fix_raissrc/bin/../lib/gcc/riscv-nuclei-elf/9.2.0/../../../../riscv-nuclei-elf/lib/rv32imafc/ilp32f\libg_nano.a(lib_a-nano-mallocr.o)
 .bss           0x0000000000000000        0x0 d:/software/yuyin/qiqiyinqiluntai/riscv-nuclei-elf-gcc-9.2.0.0/gcc_fix_raissrc/bin/../lib/gcc/riscv-nuclei-elf/9.2.0/../../../../riscv-nuclei-elf/lib/rv32imafc/ilp32f\libg_nano.a(lib_a-nano-mallocr.o)
 .text          0x0000000000000000        0x0 d:/software/yuyin/qiqiyinqiluntai/riscv-nuclei-elf-gcc-9.2.0.0/gcc_fix_raissrc/bin/../lib/gcc/riscv-nuclei-elf/9.2.0/../../../../riscv-nuclei-elf/lib/rv32imafc/ilp32f\libg_nano.a(lib_a-nano-vfprintf.o)
 .data          0x0000000000000000        0x0 d:/software/yuyin/qiqiyinqiluntai/riscv-nuclei-elf-gcc-9.2.0.0/gcc_fix_raissrc/bin/../lib/gcc/riscv-nuclei-elf/9.2.0/../../../../riscv-nuclei-elf/lib/rv32imafc/ilp32f\libg_nano.a(lib_a-nano-vfprintf.o)
 .bss           0x0000000000000000        0x0 d:/software/yuyin/qiqiyinqiluntai/riscv-nuclei-elf-gcc-9.2.0.0/gcc_fix_raissrc/bin/../lib/gcc/riscv-nuclei-elf/9.2.0/../../../../riscv-nuclei-elf/lib/rv32imafc/ilp32f\libg_nano.a(lib_a-nano-vfprintf.o)
 .text.__sprint_r
                0x0000000000000000       0x2c d:/software/yuyin/qiqiyinqiluntai/riscv-nuclei-elf-gcc-9.2.0.0/gcc_fix_raissrc/bin/../lib/gcc/riscv-nuclei-elf/9.2.0/../../../../riscv-nuclei-elf/lib/rv32imafc/ilp32f\libg_nano.a(lib_a-nano-vfprintf.o)
 .text.vfprintf
                0x0000000000000000       0x16 d:/software/yuyin/qiqiyinqiluntai/riscv-nuclei-elf-gcc-9.2.0.0/gcc_fix_raissrc/bin/../lib/gcc/riscv-nuclei-elf/9.2.0/../../../../riscv-nuclei-elf/lib/rv32imafc/ilp32f\libg_nano.a(lib_a-nano-vfprintf.o)
 .text          0x0000000000000000        0x0 d:/software/yuyin/qiqiyinqiluntai/riscv-nuclei-elf-gcc-9.2.0.0/gcc_fix_raissrc/bin/../lib/gcc/riscv-nuclei-elf/9.2.0/../../../../riscv-nuclei-elf/lib/rv32imafc/ilp32f\libg_nano.a(lib_a-realloc.o)
 .data          0x0000000000000000        0x0 d:/software/yuyin/qiqiyinqiluntai/riscv-nuclei-elf-gcc-9.2.0.0/gcc_fix_raissrc/bin/../lib/gcc/riscv-nuclei-elf/9.2.0/../../../../riscv-nuclei-elf/lib/rv32imafc/ilp32f\libg_nano.a(lib_a-realloc.o)
 .bss           0x0000000000000000        0x0 d:/software/yuyin/qiqiyinqiluntai/riscv-nuclei-elf-gcc-9.2.0.0/gcc_fix_raissrc/bin/../lib/gcc/riscv-nuclei-elf/9.2.0/../../../../riscv-nuclei-elf/lib/rv32imafc/ilp32f\libg_nano.a(lib_a-realloc.o)
 .text          0x0000000000000000        0x0 d:/software/yuyin/qiqiyinqiluntai/riscv-nuclei-elf-gcc-9.2.0.0/gcc_fix_raissrc/bin/../lib/gcc/riscv-nuclei-elf/9.2.0/../../../../riscv-nuclei-elf/lib/rv32imafc/ilp32f\libg_nano.a(lib_a-sbrkr.o)
 .data          0x0000000000000000        0x0 d:/software/yuyin/qiqiyinqiluntai/riscv-nuclei-elf-gcc-9.2.0.0/gcc_fix_raissrc/bin/../lib/gcc/riscv-nuclei-elf/9.2.0/../../../../riscv-nuclei-elf/lib/rv32imafc/ilp32f\libg_nano.a(lib_a-sbrkr.o)
 .bss           0x0000000000000000        0x0 d:/software/yuyin/qiqiyinqiluntai/riscv-nuclei-elf-gcc-9.2.0.0/gcc_fix_raissrc/bin/../lib/gcc/riscv-nuclei-elf/9.2.0/../../../../riscv-nuclei-elf/lib/rv32imafc/ilp32f\libg_nano.a(lib_a-sbrkr.o)
 .text          0x0000000000000000        0x0 d:/software/yuyin/qiqiyinqiluntai/riscv-nuclei-elf-gcc-9.2.0.0/gcc_fix_raissrc/bin/../lib/gcc/riscv-nuclei-elf/9.2.0/../../../../riscv-nuclei-elf/lib/rv32imafc/ilp32f\libg_nano.a(lib_a-wbuf.o)
 .data          0x0000000000000000        0x0 d:/software/yuyin/qiqiyinqiluntai/riscv-nuclei-elf-gcc-9.2.0.0/gcc_fix_raissrc/bin/../lib/gcc/riscv-nuclei-elf/9.2.0/../../../../riscv-nuclei-elf/lib/rv32imafc/ilp32f\libg_nano.a(lib_a-wbuf.o)
 .bss           0x0000000000000000        0x0 d:/software/yuyin/qiqiyinqiluntai/riscv-nuclei-elf-gcc-9.2.0.0/gcc_fix_raissrc/bin/../lib/gcc/riscv-nuclei-elf/9.2.0/../../../../riscv-nuclei-elf/lib/rv32imafc/ilp32f\libg_nano.a(lib_a-wbuf.o)
 .text.__swbuf  0x0000000000000000       0x14 d:/software/yuyin/qiqiyinqiluntai/riscv-nuclei-elf-gcc-9.2.0.0/gcc_fix_raissrc/bin/../lib/gcc/riscv-nuclei-elf/9.2.0/../../../../riscv-nuclei-elf/lib/rv32imafc/ilp32f\libg_nano.a(lib_a-wbuf.o)
 .text          0x0000000000000000        0x0 d:/software/yuyin/qiqiyinqiluntai/riscv-nuclei-elf-gcc-9.2.0.0/gcc_fix_raissrc/bin/../lib/gcc/riscv-nuclei-elf/9.2.0/../../../../riscv-nuclei-elf/lib/rv32imafc/ilp32f\libg_nano.a(lib_a-wsetup.o)
 .data          0x0000000000000000        0x0 d:/software/yuyin/qiqiyinqiluntai/riscv-nuclei-elf-gcc-9.2.0.0/gcc_fix_raissrc/bin/../lib/gcc/riscv-nuclei-elf/9.2.0/../../../../riscv-nuclei-elf/lib/rv32imafc/ilp32f\libg_nano.a(lib_a-wsetup.o)
 .bss           0x0000000000000000        0x0 d:/software/yuyin/qiqiyinqiluntai/riscv-nuclei-elf-gcc-9.2.0.0/gcc_fix_raissrc/bin/../lib/gcc/riscv-nuclei-elf/9.2.0/../../../../riscv-nuclei-elf/lib/rv32imafc/ilp32f\libg_nano.a(lib_a-wsetup.o)
 .text          0x0000000000000000        0x0 d:/software/yuyin/qiqiyinqiluntai/riscv-nuclei-elf-gcc-9.2.0.0/gcc_fix_raissrc/bin/../lib/gcc/riscv-nuclei-elf/9.2.0/../../../../riscv-nuclei-elf/lib/rv32imafc/ilp32f\libg_nano.a(lib_a-fflush.o)
 .data          0x0000000000000000        0x0 d:/software/yuyin/qiqiyinqiluntai/riscv-nuclei-elf-gcc-9.2.0.0/gcc_fix_raissrc/bin/../lib/gcc/riscv-nuclei-elf/9.2.0/../../../../riscv-nuclei-elf/lib/rv32imafc/ilp32f\libg_nano.a(lib_a-fflush.o)
 .bss           0x0000000000000000        0x0 d:/software/yuyin/qiqiyinqiluntai/riscv-nuclei-elf-gcc-9.2.0.0/gcc_fix_raissrc/bin/../lib/gcc/riscv-nuclei-elf/9.2.0/../../../../riscv-nuclei-elf/lib/rv32imafc/ilp32f\libg_nano.a(lib_a-fflush.o)
 .text.fflush   0x0000000000000000       0x2c d:/software/yuyin/qiqiyinqiluntai/riscv-nuclei-elf-gcc-9.2.0.0/gcc_fix_raissrc/bin/../lib/gcc/riscv-nuclei-elf/9.2.0/../../../../riscv-nuclei-elf/lib/rv32imafc/ilp32f\libg_nano.a(lib_a-fflush.o)
 .text          0x0000000000000000        0x0 d:/software/yuyin/qiqiyinqiluntai/riscv-nuclei-elf-gcc-9.2.0.0/gcc_fix_raissrc/bin/../lib/gcc/riscv-nuclei-elf/9.2.0/../../../../riscv-nuclei-elf/lib/rv32imafc/ilp32f\libg_nano.a(lib_a-findfp.o)
 .data          0x0000000000000000        0x0 d:/software/yuyin/qiqiyinqiluntai/riscv-nuclei-elf-gcc-9.2.0.0/gcc_fix_raissrc/bin/../lib/gcc/riscv-nuclei-elf/9.2.0/../../../../riscv-nuclei-elf/lib/rv32imafc/ilp32f\libg_nano.a(lib_a-findfp.o)
 .bss           0x0000000000000000        0x0 d:/software/yuyin/qiqiyinqiluntai/riscv-nuclei-elf-gcc-9.2.0.0/gcc_fix_raissrc/bin/../lib/gcc/riscv-nuclei-elf/9.2.0/../../../../riscv-nuclei-elf/lib/rv32imafc/ilp32f\libg_nano.a(lib_a-findfp.o)
 .text.__fp_lock
                0x0000000000000000        0x4 d:/software/yuyin/qiqiyinqiluntai/riscv-nuclei-elf-gcc-9.2.0.0/gcc_fix_raissrc/bin/../lib/gcc/riscv-nuclei-elf/9.2.0/../../../../riscv-nuclei-elf/lib/rv32imafc/ilp32f\libg_nano.a(lib_a-findfp.o)
 .text.__fp_unlock
                0x0000000000000000        0x4 d:/software/yuyin/qiqiyinqiluntai/riscv-nuclei-elf-gcc-9.2.0.0/gcc_fix_raissrc/bin/../lib/gcc/riscv-nuclei-elf/9.2.0/../../../../riscv-nuclei-elf/lib/rv32imafc/ilp32f\libg_nano.a(lib_a-findfp.o)
 .text._cleanup
                0x0000000000000000       0x10 d:/software/yuyin/qiqiyinqiluntai/riscv-nuclei-elf-gcc-9.2.0.0/gcc_fix_raissrc/bin/../lib/gcc/riscv-nuclei-elf/9.2.0/../../../../riscv-nuclei-elf/lib/rv32imafc/ilp32f\libg_nano.a(lib_a-findfp.o)
 .text.__sfp_lock_acquire
                0x0000000000000000        0x2 d:/software/yuyin/qiqiyinqiluntai/riscv-nuclei-elf-gcc-9.2.0.0/gcc_fix_raissrc/bin/../lib/gcc/riscv-nuclei-elf/9.2.0/../../../../riscv-nuclei-elf/lib/rv32imafc/ilp32f\libg_nano.a(lib_a-findfp.o)
 .text.__sfp_lock_release
                0x0000000000000000        0x2 d:/software/yuyin/qiqiyinqiluntai/riscv-nuclei-elf-gcc-9.2.0.0/gcc_fix_raissrc/bin/../lib/gcc/riscv-nuclei-elf/9.2.0/../../../../riscv-nuclei-elf/lib/rv32imafc/ilp32f\libg_nano.a(lib_a-findfp.o)
 .text.__sinit_lock_acquire
                0x0000000000000000        0x2 d:/software/yuyin/qiqiyinqiluntai/riscv-nuclei-elf-gcc-9.2.0.0/gcc_fix_raissrc/bin/../lib/gcc/riscv-nuclei-elf/9.2.0/../../../../riscv-nuclei-elf/lib/rv32imafc/ilp32f\libg_nano.a(lib_a-findfp.o)
 .text.__sinit_lock_release
                0x0000000000000000        0x2 d:/software/yuyin/qiqiyinqiluntai/riscv-nuclei-elf-gcc-9.2.0.0/gcc_fix_raissrc/bin/../lib/gcc/riscv-nuclei-elf/9.2.0/../../../../riscv-nuclei-elf/lib/rv32imafc/ilp32f\libg_nano.a(lib_a-findfp.o)
 .text.__fp_lock_all
                0x0000000000000000       0x18 d:/software/yuyin/qiqiyinqiluntai/riscv-nuclei-elf-gcc-9.2.0.0/gcc_fix_raissrc/bin/../lib/gcc/riscv-nuclei-elf/9.2.0/../../../../riscv-nuclei-elf/lib/rv32imafc/ilp32f\libg_nano.a(lib_a-findfp.o)
 .text.__fp_unlock_all
                0x0000000000000000       0x18 d:/software/yuyin/qiqiyinqiluntai/riscv-nuclei-elf-gcc-9.2.0.0/gcc_fix_raissrc/bin/../lib/gcc/riscv-nuclei-elf/9.2.0/../../../../riscv-nuclei-elf/lib/rv32imafc/ilp32f\libg_nano.a(lib_a-findfp.o)
 .text          0x0000000000000000        0x0 d:/software/yuyin/qiqiyinqiluntai/riscv-nuclei-elf-gcc-9.2.0.0/gcc_fix_raissrc/bin/../lib/gcc/riscv-nuclei-elf/9.2.0/../../../../riscv-nuclei-elf/lib/rv32imafc/ilp32f\libg_nano.a(lib_a-fvwrite.o)
 .data          0x0000000000000000        0x0 d:/software/yuyin/qiqiyinqiluntai/riscv-nuclei-elf-gcc-9.2.0.0/gcc_fix_raissrc/bin/../lib/gcc/riscv-nuclei-elf/9.2.0/../../../../riscv-nuclei-elf/lib/rv32imafc/ilp32f\libg_nano.a(lib_a-fvwrite.o)
 .bss           0x0000000000000000        0x0 d:/software/yuyin/qiqiyinqiluntai/riscv-nuclei-elf-gcc-9.2.0.0/gcc_fix_raissrc/bin/../lib/gcc/riscv-nuclei-elf/9.2.0/../../../../riscv-nuclei-elf/lib/rv32imafc/ilp32f\libg_nano.a(lib_a-fvwrite.o)
 .text.__sfvwrite_r
                0x0000000000000000      0x316 d:/software/yuyin/qiqiyinqiluntai/riscv-nuclei-elf-gcc-9.2.0.0/gcc_fix_raissrc/bin/../lib/gcc/riscv-nuclei-elf/9.2.0/../../../../riscv-nuclei-elf/lib/rv32imafc/ilp32f\libg_nano.a(lib_a-fvwrite.o)
 .comment       0x0000000000000000       0x12 d:/software/yuyin/qiqiyinqiluntai/riscv-nuclei-elf-gcc-9.2.0.0/gcc_fix_raissrc/bin/../lib/gcc/riscv-nuclei-elf/9.2.0/../../../../riscv-nuclei-elf/lib/rv32imafc/ilp32f\libg_nano.a(lib_a-fvwrite.o)
 .riscv.attributes
                0x0000000000000000       0x30 d:/software/yuyin/qiqiyinqiluntai/riscv-nuclei-elf-gcc-9.2.0.0/gcc_fix_raissrc/bin/../lib/gcc/riscv-nuclei-elf/9.2.0/../../../../riscv-nuclei-elf/lib/rv32imafc/ilp32f\libg_nano.a(lib_a-fvwrite.o)
 .text          0x0000000000000000        0x0 d:/software/yuyin/qiqiyinqiluntai/riscv-nuclei-elf-gcc-9.2.0.0/gcc_fix_raissrc/bin/../lib/gcc/riscv-nuclei-elf/9.2.0/../../../../riscv-nuclei-elf/lib/rv32imafc/ilp32f\libg_nano.a(lib_a-fwalk.o)
 .data          0x0000000000000000        0x0 d:/software/yuyin/qiqiyinqiluntai/riscv-nuclei-elf-gcc-9.2.0.0/gcc_fix_raissrc/bin/../lib/gcc/riscv-nuclei-elf/9.2.0/../../../../riscv-nuclei-elf/lib/rv32imafc/ilp32f\libg_nano.a(lib_a-fwalk.o)
 .bss           0x0000000000000000        0x0 d:/software/yuyin/qiqiyinqiluntai/riscv-nuclei-elf-gcc-9.2.0.0/gcc_fix_raissrc/bin/../lib/gcc/riscv-nuclei-elf/9.2.0/../../../../riscv-nuclei-elf/lib/rv32imafc/ilp32f\libg_nano.a(lib_a-fwalk.o)
 .text._fwalk   0x0000000000000000       0x62 d:/software/yuyin/qiqiyinqiluntai/riscv-nuclei-elf-gcc-9.2.0.0/gcc_fix_raissrc/bin/../lib/gcc/riscv-nuclei-elf/9.2.0/../../../../riscv-nuclei-elf/lib/rv32imafc/ilp32f\libg_nano.a(lib_a-fwalk.o)
 .text          0x0000000000000000        0x0 d:/software/yuyin/qiqiyinqiluntai/riscv-nuclei-elf-gcc-9.2.0.0/gcc_fix_raissrc/bin/../lib/gcc/riscv-nuclei-elf/9.2.0/../../../../riscv-nuclei-elf/lib/rv32imafc/ilp32f\libg_nano.a(lib_a-makebuf.o)
 .data          0x0000000000000000        0x0 d:/software/yuyin/qiqiyinqiluntai/riscv-nuclei-elf-gcc-9.2.0.0/gcc_fix_raissrc/bin/../lib/gcc/riscv-nuclei-elf/9.2.0/../../../../riscv-nuclei-elf/lib/rv32imafc/ilp32f\libg_nano.a(lib_a-makebuf.o)
 .bss           0x0000000000000000        0x0 d:/software/yuyin/qiqiyinqiluntai/riscv-nuclei-elf-gcc-9.2.0.0/gcc_fix_raissrc/bin/../lib/gcc/riscv-nuclei-elf/9.2.0/../../../../riscv-nuclei-elf/lib/rv32imafc/ilp32f\libg_nano.a(lib_a-makebuf.o)
 .text          0x0000000000000000        0x0 d:/software/yuyin/qiqiyinqiluntai/riscv-nuclei-elf-gcc-9.2.0.0/gcc_fix_raissrc/bin/../lib/gcc/riscv-nuclei-elf/9.2.0/../../../../riscv-nuclei-elf/lib/rv32imafc/ilp32f\libg_nano.a(lib_a-memchr.o)
 .data          0x0000000000000000        0x0 d:/software/yuyin/qiqiyinqiluntai/riscv-nuclei-elf-gcc-9.2.0.0/gcc_fix_raissrc/bin/../lib/gcc/riscv-nuclei-elf/9.2.0/../../../../riscv-nuclei-elf/lib/rv32imafc/ilp32f\libg_nano.a(lib_a-memchr.o)
 .bss           0x0000000000000000        0x0 d:/software/yuyin/qiqiyinqiluntai/riscv-nuclei-elf-gcc-9.2.0.0/gcc_fix_raissrc/bin/../lib/gcc/riscv-nuclei-elf/9.2.0/../../../../riscv-nuclei-elf/lib/rv32imafc/ilp32f\libg_nano.a(lib_a-memchr.o)
 .text          0x0000000000000000        0x0 d:/software/yuyin/qiqiyinqiluntai/riscv-nuclei-elf-gcc-9.2.0.0/gcc_fix_raissrc/bin/../lib/gcc/riscv-nuclei-elf/9.2.0/../../../../riscv-nuclei-elf/lib/rv32imafc/ilp32f\libg_nano.a(lib_a-nano-freer.o)
 .data          0x0000000000000000        0x0 d:/software/yuyin/qiqiyinqiluntai/riscv-nuclei-elf-gcc-9.2.0.0/gcc_fix_raissrc/bin/../lib/gcc/riscv-nuclei-elf/9.2.0/../../../../riscv-nuclei-elf/lib/rv32imafc/ilp32f\libg_nano.a(lib_a-nano-freer.o)
 .bss           0x0000000000000000        0x0 d:/software/yuyin/qiqiyinqiluntai/riscv-nuclei-elf-gcc-9.2.0.0/gcc_fix_raissrc/bin/../lib/gcc/riscv-nuclei-elf/9.2.0/../../../../riscv-nuclei-elf/lib/rv32imafc/ilp32f\libg_nano.a(lib_a-nano-freer.o)
 .text          0x0000000000000000        0x0 d:/software/yuyin/qiqiyinqiluntai/riscv-nuclei-elf-gcc-9.2.0.0/gcc_fix_raissrc/bin/../lib/gcc/riscv-nuclei-elf/9.2.0/../../../../riscv-nuclei-elf/lib/rv32imafc/ilp32f\libg_nano.a(lib_a-nano-reallocr.o)
 .data          0x0000000000000000        0x0 d:/software/yuyin/qiqiyinqiluntai/riscv-nuclei-elf-gcc-9.2.0.0/gcc_fix_raissrc/bin/../lib/gcc/riscv-nuclei-elf/9.2.0/../../../../riscv-nuclei-elf/lib/rv32imafc/ilp32f\libg_nano.a(lib_a-nano-reallocr.o)
 .bss           0x0000000000000000        0x0 d:/software/yuyin/qiqiyinqiluntai/riscv-nuclei-elf-gcc-9.2.0.0/gcc_fix_raissrc/bin/../lib/gcc/riscv-nuclei-elf/9.2.0/../../../../riscv-nuclei-elf/lib/rv32imafc/ilp32f\libg_nano.a(lib_a-nano-reallocr.o)
 .text          0x0000000000000000        0x0 d:/software/yuyin/qiqiyinqiluntai/riscv-nuclei-elf-gcc-9.2.0.0/gcc_fix_raissrc/bin/../lib/gcc/riscv-nuclei-elf/9.2.0/../../../../riscv-nuclei-elf/lib/rv32imafc/ilp32f\libg_nano.a(lib_a-nano-vfprintf_i.o)
 .data          0x0000000000000000        0x0 d:/software/yuyin/qiqiyinqiluntai/riscv-nuclei-elf-gcc-9.2.0.0/gcc_fix_raissrc/bin/../lib/gcc/riscv-nuclei-elf/9.2.0/../../../../riscv-nuclei-elf/lib/rv32imafc/ilp32f\libg_nano.a(lib_a-nano-vfprintf_i.o)
 .bss           0x0000000000000000        0x0 d:/software/yuyin/qiqiyinqiluntai/riscv-nuclei-elf-gcc-9.2.0.0/gcc_fix_raissrc/bin/../lib/gcc/riscv-nuclei-elf/9.2.0/../../../../riscv-nuclei-elf/lib/rv32imafc/ilp32f\libg_nano.a(lib_a-nano-vfprintf_i.o)
 .text          0x0000000000000000        0x0 d:/software/yuyin/qiqiyinqiluntai/riscv-nuclei-elf-gcc-9.2.0.0/gcc_fix_raissrc/bin/../lib/gcc/riscv-nuclei-elf/9.2.0/../../../../riscv-nuclei-elf/lib/rv32imafc/ilp32f\libg_nano.a(lib_a-reent.o)
 .data          0x0000000000000000        0x0 d:/software/yuyin/qiqiyinqiluntai/riscv-nuclei-elf-gcc-9.2.0.0/gcc_fix_raissrc/bin/../lib/gcc/riscv-nuclei-elf/9.2.0/../../../../riscv-nuclei-elf/lib/rv32imafc/ilp32f\libg_nano.a(lib_a-reent.o)
 .bss           0x0000000000000000        0x0 d:/software/yuyin/qiqiyinqiluntai/riscv-nuclei-elf-gcc-9.2.0.0/gcc_fix_raissrc/bin/../lib/gcc/riscv-nuclei-elf/9.2.0/../../../../riscv-nuclei-elf/lib/rv32imafc/ilp32f\libg_nano.a(lib_a-reent.o)
 .text.cleanup_glue
                0x0000000000000000       0x2c d:/software/yuyin/qiqiyinqiluntai/riscv-nuclei-elf-gcc-9.2.0.0/gcc_fix_raissrc/bin/../lib/gcc/riscv-nuclei-elf/9.2.0/../../../../riscv-nuclei-elf/lib/rv32imafc/ilp32f\libg_nano.a(lib_a-reent.o)
 .text._reclaim_reent
                0x0000000000000000      0x10a d:/software/yuyin/qiqiyinqiluntai/riscv-nuclei-elf-gcc-9.2.0.0/gcc_fix_raissrc/bin/../lib/gcc/riscv-nuclei-elf/9.2.0/../../../../riscv-nuclei-elf/lib/rv32imafc/ilp32f\libg_nano.a(lib_a-reent.o)
 .text          0x0000000000000000        0x0 d:/software/yuyin/qiqiyinqiluntai/riscv-nuclei-elf-gcc-9.2.0.0/gcc_fix_raissrc/bin/../lib/gcc/riscv-nuclei-elf/9.2.0/../../../../riscv-nuclei-elf/lib/rv32imafc/ilp32f\libg_nano.a(lib_a-stdio.o)
 .data          0x0000000000000000        0x0 d:/software/yuyin/qiqiyinqiluntai/riscv-nuclei-elf-gcc-9.2.0.0/gcc_fix_raissrc/bin/../lib/gcc/riscv-nuclei-elf/9.2.0/../../../../riscv-nuclei-elf/lib/rv32imafc/ilp32f\libg_nano.a(lib_a-stdio.o)
 .bss           0x0000000000000000        0x0 d:/software/yuyin/qiqiyinqiluntai/riscv-nuclei-elf-gcc-9.2.0.0/gcc_fix_raissrc/bin/../lib/gcc/riscv-nuclei-elf/9.2.0/../../../../riscv-nuclei-elf/lib/rv32imafc/ilp32f\libg_nano.a(lib_a-stdio.o)
 .text.__seofread
                0x0000000000000000        0x4 d:/software/yuyin/qiqiyinqiluntai/riscv-nuclei-elf-gcc-9.2.0.0/gcc_fix_raissrc/bin/../lib/gcc/riscv-nuclei-elf/9.2.0/../../../../riscv-nuclei-elf/lib/rv32imafc/ilp32f\libg_nano.a(lib_a-stdio.o)
 .text          0x0000000000000000        0x0 d:/software/yuyin/qiqiyinqiluntai/riscv-nuclei-elf-gcc-9.2.0.0/gcc_fix_raissrc/bin/../lib/gcc/riscv-nuclei-elf/9.2.0/../../../../riscv-nuclei-elf/lib/rv32imafc/ilp32f\libg_nano.a(lib_a-writer.o)
 .data          0x0000000000000000        0x0 d:/software/yuyin/qiqiyinqiluntai/riscv-nuclei-elf-gcc-9.2.0.0/gcc_fix_raissrc/bin/../lib/gcc/riscv-nuclei-elf/9.2.0/../../../../riscv-nuclei-elf/lib/rv32imafc/ilp32f\libg_nano.a(lib_a-writer.o)
 .bss           0x0000000000000000        0x0 d:/software/yuyin/qiqiyinqiluntai/riscv-nuclei-elf-gcc-9.2.0.0/gcc_fix_raissrc/bin/../lib/gcc/riscv-nuclei-elf/9.2.0/../../../../riscv-nuclei-elf/lib/rv32imafc/ilp32f\libg_nano.a(lib_a-writer.o)
 .text          0x0000000000000000        0x0 d:/software/yuyin/qiqiyinqiluntai/riscv-nuclei-elf-gcc-9.2.0.0/gcc_fix_raissrc/bin/../lib/gcc/riscv-nuclei-elf/9.2.0/../../../../riscv-nuclei-elf/lib/rv32imafc/ilp32f\libg_nano.a(lib_a-closer.o)
 .data          0x0000000000000000        0x0 d:/software/yuyin/qiqiyinqiluntai/riscv-nuclei-elf-gcc-9.2.0.0/gcc_fix_raissrc/bin/../lib/gcc/riscv-nuclei-elf/9.2.0/../../../../riscv-nuclei-elf/lib/rv32imafc/ilp32f\libg_nano.a(lib_a-closer.o)
 .bss           0x0000000000000000        0x0 d:/software/yuyin/qiqiyinqiluntai/riscv-nuclei-elf-gcc-9.2.0.0/gcc_fix_raissrc/bin/../lib/gcc/riscv-nuclei-elf/9.2.0/../../../../riscv-nuclei-elf/lib/rv32imafc/ilp32f\libg_nano.a(lib_a-closer.o)
 .text          0x0000000000000000        0x0 d:/software/yuyin/qiqiyinqiluntai/riscv-nuclei-elf-gcc-9.2.0.0/gcc_fix_raissrc/bin/../lib/gcc/riscv-nuclei-elf/9.2.0/../../../../riscv-nuclei-elf/lib/rv32imafc/ilp32f\libg_nano.a(lib_a-fstatr.o)
 .data          0x0000000000000000        0x0 d:/software/yuyin/qiqiyinqiluntai/riscv-nuclei-elf-gcc-9.2.0.0/gcc_fix_raissrc/bin/../lib/gcc/riscv-nuclei-elf/9.2.0/../../../../riscv-nuclei-elf/lib/rv32imafc/ilp32f\libg_nano.a(lib_a-fstatr.o)
 .bss           0x0000000000000000        0x0 d:/software/yuyin/qiqiyinqiluntai/riscv-nuclei-elf-gcc-9.2.0.0/gcc_fix_raissrc/bin/../lib/gcc/riscv-nuclei-elf/9.2.0/../../../../riscv-nuclei-elf/lib/rv32imafc/ilp32f\libg_nano.a(lib_a-fstatr.o)
 .text          0x0000000000000000        0x0 d:/software/yuyin/qiqiyinqiluntai/riscv-nuclei-elf-gcc-9.2.0.0/gcc_fix_raissrc/bin/../lib/gcc/riscv-nuclei-elf/9.2.0/../../../../riscv-nuclei-elf/lib/rv32imafc/ilp32f\libg_nano.a(lib_a-isattyr.o)
 .data          0x0000000000000000        0x0 d:/software/yuyin/qiqiyinqiluntai/riscv-nuclei-elf-gcc-9.2.0.0/gcc_fix_raissrc/bin/../lib/gcc/riscv-nuclei-elf/9.2.0/../../../../riscv-nuclei-elf/lib/rv32imafc/ilp32f\libg_nano.a(lib_a-isattyr.o)
 .bss           0x0000000000000000        0x0 d:/software/yuyin/qiqiyinqiluntai/riscv-nuclei-elf-gcc-9.2.0.0/gcc_fix_raissrc/bin/../lib/gcc/riscv-nuclei-elf/9.2.0/../../../../riscv-nuclei-elf/lib/rv32imafc/ilp32f\libg_nano.a(lib_a-isattyr.o)
 .text          0x0000000000000000        0x0 d:/software/yuyin/qiqiyinqiluntai/riscv-nuclei-elf-gcc-9.2.0.0/gcc_fix_raissrc/bin/../lib/gcc/riscv-nuclei-elf/9.2.0/../../../../riscv-nuclei-elf/lib/rv32imafc/ilp32f\libg_nano.a(lib_a-lseekr.o)
 .data          0x0000000000000000        0x0 d:/software/yuyin/qiqiyinqiluntai/riscv-nuclei-elf-gcc-9.2.0.0/gcc_fix_raissrc/bin/../lib/gcc/riscv-nuclei-elf/9.2.0/../../../../riscv-nuclei-elf/lib/rv32imafc/ilp32f\libg_nano.a(lib_a-lseekr.o)
 .bss           0x0000000000000000        0x0 d:/software/yuyin/qiqiyinqiluntai/riscv-nuclei-elf-gcc-9.2.0.0/gcc_fix_raissrc/bin/../lib/gcc/riscv-nuclei-elf/9.2.0/../../../../riscv-nuclei-elf/lib/rv32imafc/ilp32f\libg_nano.a(lib_a-lseekr.o)
 .text          0x0000000000000000        0x0 d:/software/yuyin/qiqiyinqiluntai/riscv-nuclei-elf-gcc-9.2.0.0/gcc_fix_raissrc/bin/../lib/gcc/riscv-nuclei-elf/9.2.0/../../../../riscv-nuclei-elf/lib/rv32imafc/ilp32f\libg_nano.a(lib_a-nano-msizer.o)
 .data          0x0000000000000000        0x0 d:/software/yuyin/qiqiyinqiluntai/riscv-nuclei-elf-gcc-9.2.0.0/gcc_fix_raissrc/bin/../lib/gcc/riscv-nuclei-elf/9.2.0/../../../../riscv-nuclei-elf/lib/rv32imafc/ilp32f\libg_nano.a(lib_a-nano-msizer.o)
 .bss           0x0000000000000000        0x0 d:/software/yuyin/qiqiyinqiluntai/riscv-nuclei-elf-gcc-9.2.0.0/gcc_fix_raissrc/bin/../lib/gcc/riscv-nuclei-elf/9.2.0/../../../../riscv-nuclei-elf/lib/rv32imafc/ilp32f\libg_nano.a(lib_a-nano-msizer.o)
 .text          0x0000000000000000        0x0 d:/software/yuyin/qiqiyinqiluntai/riscv-nuclei-elf-gcc-9.2.0.0/gcc_fix_raissrc/bin/../lib/gcc/riscv-nuclei-elf/9.2.0/../../../../riscv-nuclei-elf/lib/rv32imafc/ilp32f\libg_nano.a(lib_a-readr.o)
 .data          0x0000000000000000        0x0 d:/software/yuyin/qiqiyinqiluntai/riscv-nuclei-elf-gcc-9.2.0.0/gcc_fix_raissrc/bin/../lib/gcc/riscv-nuclei-elf/9.2.0/../../../../riscv-nuclei-elf/lib/rv32imafc/ilp32f\libg_nano.a(lib_a-readr.o)
 .bss           0x0000000000000000        0x0 d:/software/yuyin/qiqiyinqiluntai/riscv-nuclei-elf-gcc-9.2.0.0/gcc_fix_raissrc/bin/../lib/gcc/riscv-nuclei-elf/9.2.0/../../../../riscv-nuclei-elf/lib/rv32imafc/ilp32f\libg_nano.a(lib_a-readr.o)
 .text          0x0000000000000000        0x0 d:/software/yuyin/qiqiyinqiluntai/riscv-nuclei-elf-gcc-9.2.0.0/gcc_fix_raissrc/bin/../lib/gcc/riscv-nuclei-elf/9.2.0/../../../../riscv-nuclei-elf/lib/rv32imafc/ilp32f\libgloss_nano.a(sys_exit.o)
 .data          0x0000000000000000        0x0 d:/software/yuyin/qiqiyinqiluntai/riscv-nuclei-elf-gcc-9.2.0.0/gcc_fix_raissrc/bin/../lib/gcc/riscv-nuclei-elf/9.2.0/../../../../riscv-nuclei-elf/lib/rv32imafc/ilp32f\libgloss_nano.a(sys_exit.o)
 .bss           0x0000000000000000        0x0 d:/software/yuyin/qiqiyinqiluntai/riscv-nuclei-elf-gcc-9.2.0.0/gcc_fix_raissrc/bin/../lib/gcc/riscv-nuclei-elf/9.2.0/../../../../riscv-nuclei-elf/lib/rv32imafc/ilp32f\libgloss_nano.a(sys_exit.o)
 .text          0x0000000000000000        0x0 d:/software/yuyin/qiqiyinqiluntai/riscv-nuclei-elf-gcc-9.2.0.0/gcc_fix_raissrc/bin/../lib/gcc/riscv-nuclei-elf/9.2.0/../../../../riscv-nuclei-elf/lib/rv32imafc/ilp32f\libgloss_nano.a(sys_close.o)
 .data          0x0000000000000000        0x0 d:/software/yuyin/qiqiyinqiluntai/riscv-nuclei-elf-gcc-9.2.0.0/gcc_fix_raissrc/bin/../lib/gcc/riscv-nuclei-elf/9.2.0/../../../../riscv-nuclei-elf/lib/rv32imafc/ilp32f\libgloss_nano.a(sys_close.o)
 .bss           0x0000000000000000        0x0 d:/software/yuyin/qiqiyinqiluntai/riscv-nuclei-elf-gcc-9.2.0.0/gcc_fix_raissrc/bin/../lib/gcc/riscv-nuclei-elf/9.2.0/../../../../riscv-nuclei-elf/lib/rv32imafc/ilp32f\libgloss_nano.a(sys_close.o)
 .text          0x0000000000000000        0x0 d:/software/yuyin/qiqiyinqiluntai/riscv-nuclei-elf-gcc-9.2.0.0/gcc_fix_raissrc/bin/../lib/gcc/riscv-nuclei-elf/9.2.0/../../../../riscv-nuclei-elf/lib/rv32imafc/ilp32f\libgloss_nano.a(sys_fstat.o)
 .data          0x0000000000000000        0x0 d:/software/yuyin/qiqiyinqiluntai/riscv-nuclei-elf-gcc-9.2.0.0/gcc_fix_raissrc/bin/../lib/gcc/riscv-nuclei-elf/9.2.0/../../../../riscv-nuclei-elf/lib/rv32imafc/ilp32f\libgloss_nano.a(sys_fstat.o)
 .bss           0x0000000000000000        0x0 d:/software/yuyin/qiqiyinqiluntai/riscv-nuclei-elf-gcc-9.2.0.0/gcc_fix_raissrc/bin/../lib/gcc/riscv-nuclei-elf/9.2.0/../../../../riscv-nuclei-elf/lib/rv32imafc/ilp32f\libgloss_nano.a(sys_fstat.o)
 .text          0x0000000000000000        0x0 d:/software/yuyin/qiqiyinqiluntai/riscv-nuclei-elf-gcc-9.2.0.0/gcc_fix_raissrc/bin/../lib/gcc/riscv-nuclei-elf/9.2.0/../../../../riscv-nuclei-elf/lib/rv32imafc/ilp32f\libgloss_nano.a(sys_isatty.o)
 .data          0x0000000000000000        0x0 d:/software/yuyin/qiqiyinqiluntai/riscv-nuclei-elf-gcc-9.2.0.0/gcc_fix_raissrc/bin/../lib/gcc/riscv-nuclei-elf/9.2.0/../../../../riscv-nuclei-elf/lib/rv32imafc/ilp32f\libgloss_nano.a(sys_isatty.o)
 .bss           0x0000000000000000        0x0 d:/software/yuyin/qiqiyinqiluntai/riscv-nuclei-elf-gcc-9.2.0.0/gcc_fix_raissrc/bin/../lib/gcc/riscv-nuclei-elf/9.2.0/../../../../riscv-nuclei-elf/lib/rv32imafc/ilp32f\libgloss_nano.a(sys_isatty.o)
 .text          0x0000000000000000        0x0 d:/software/yuyin/qiqiyinqiluntai/riscv-nuclei-elf-gcc-9.2.0.0/gcc_fix_raissrc/bin/../lib/gcc/riscv-nuclei-elf/9.2.0/../../../../riscv-nuclei-elf/lib/rv32imafc/ilp32f\libgloss_nano.a(sys_lseek.o)
 .data          0x0000000000000000        0x0 d:/software/yuyin/qiqiyinqiluntai/riscv-nuclei-elf-gcc-9.2.0.0/gcc_fix_raissrc/bin/../lib/gcc/riscv-nuclei-elf/9.2.0/../../../../riscv-nuclei-elf/lib/rv32imafc/ilp32f\libgloss_nano.a(sys_lseek.o)
 .bss           0x0000000000000000        0x0 d:/software/yuyin/qiqiyinqiluntai/riscv-nuclei-elf-gcc-9.2.0.0/gcc_fix_raissrc/bin/../lib/gcc/riscv-nuclei-elf/9.2.0/../../../../riscv-nuclei-elf/lib/rv32imafc/ilp32f\libgloss_nano.a(sys_lseek.o)
 .text          0x0000000000000000        0x0 d:/software/yuyin/qiqiyinqiluntai/riscv-nuclei-elf-gcc-9.2.0.0/gcc_fix_raissrc/bin/../lib/gcc/riscv-nuclei-elf/9.2.0/../../../../riscv-nuclei-elf/lib/rv32imafc/ilp32f\libgloss_nano.a(sys_read.o)
 .data          0x0000000000000000        0x0 d:/software/yuyin/qiqiyinqiluntai/riscv-nuclei-elf-gcc-9.2.0.0/gcc_fix_raissrc/bin/../lib/gcc/riscv-nuclei-elf/9.2.0/../../../../riscv-nuclei-elf/lib/rv32imafc/ilp32f\libgloss_nano.a(sys_read.o)
 .bss           0x0000000000000000        0x0 d:/software/yuyin/qiqiyinqiluntai/riscv-nuclei-elf-gcc-9.2.0.0/gcc_fix_raissrc/bin/../lib/gcc/riscv-nuclei-elf/9.2.0/../../../../riscv-nuclei-elf/lib/rv32imafc/ilp32f\libgloss_nano.a(sys_read.o)
 .text          0x0000000000000000        0x0 d:/software/yuyin/qiqiyinqiluntai/riscv-nuclei-elf-gcc-9.2.0.0/gcc_fix_raissrc/bin/../lib/gcc/riscv-nuclei-elf/9.2.0/../../../../riscv-nuclei-elf/lib/rv32imafc/ilp32f\libgloss_nano.a(sys_write.o)
 .data          0x0000000000000000        0x0 d:/software/yuyin/qiqiyinqiluntai/riscv-nuclei-elf-gcc-9.2.0.0/gcc_fix_raissrc/bin/../lib/gcc/riscv-nuclei-elf/9.2.0/../../../../riscv-nuclei-elf/lib/rv32imafc/ilp32f\libgloss_nano.a(sys_write.o)
 .bss           0x0000000000000000        0x0 d:/software/yuyin/qiqiyinqiluntai/riscv-nuclei-elf-gcc-9.2.0.0/gcc_fix_raissrc/bin/../lib/gcc/riscv-nuclei-elf/9.2.0/../../../../riscv-nuclei-elf/lib/rv32imafc/ilp32f\libgloss_nano.a(sys_write.o)
 .text          0x0000000000000000        0x0 d:/software/yuyin/qiqiyinqiluntai/riscv-nuclei-elf-gcc-9.2.0.0/gcc_fix_raissrc/bin/../lib/gcc/riscv-nuclei-elf/9.2.0/../../../../riscv-nuclei-elf/lib/rv32imafc/ilp32f\libgloss_nano.a(sys_conv_stat.o)
 .data          0x0000000000000000        0x0 d:/software/yuyin/qiqiyinqiluntai/riscv-nuclei-elf-gcc-9.2.0.0/gcc_fix_raissrc/bin/../lib/gcc/riscv-nuclei-elf/9.2.0/../../../../riscv-nuclei-elf/lib/rv32imafc/ilp32f\libgloss_nano.a(sys_conv_stat.o)
 .bss           0x0000000000000000        0x0 d:/software/yuyin/qiqiyinqiluntai/riscv-nuclei-elf-gcc-9.2.0.0/gcc_fix_raissrc/bin/../lib/gcc/riscv-nuclei-elf/9.2.0/../../../../riscv-nuclei-elf/lib/rv32imafc/ilp32f\libgloss_nano.a(sys_conv_stat.o)
 .text          0x0000000000000000        0x0 d:/software/yuyin/qiqiyinqiluntai/riscv-nuclei-elf-gcc-9.2.0.0/gcc_fix_raissrc/bin/../lib/gcc/riscv-nuclei-elf/9.2.0/../../../../riscv-nuclei-elf/lib/rv32imafc/ilp32f\libc_nano.a(lib_a-errno.o)
 .data          0x0000000000000000        0x0 d:/software/yuyin/qiqiyinqiluntai/riscv-nuclei-elf-gcc-9.2.0.0/gcc_fix_raissrc/bin/../lib/gcc/riscv-nuclei-elf/9.2.0/../../../../riscv-nuclei-elf/lib/rv32imafc/ilp32f\libc_nano.a(lib_a-errno.o)
 .bss           0x0000000000000000        0x0 d:/software/yuyin/qiqiyinqiluntai/riscv-nuclei-elf-gcc-9.2.0.0/gcc_fix_raissrc/bin/../lib/gcc/riscv-nuclei-elf/9.2.0/../../../../riscv-nuclei-elf/lib/rv32imafc/ilp32f\libc_nano.a(lib_a-errno.o)
 .data          0x0000000000000000        0x0 d:/software/yuyin/qiqiyinqiluntai/riscv-nuclei-elf-gcc-9.2.0.0/gcc_fix_raissrc/bin/../lib/gcc/riscv-nuclei-elf/9.2.0/../../../../riscv-nuclei-elf/lib/rv32imafc/ilp32f\libm.a(lib_a-s_floor.o)
 .bss           0x0000000000000000        0x0 d:/software/yuyin/qiqiyinqiluntai/riscv-nuclei-elf-gcc-9.2.0.0/gcc_fix_raissrc/bin/../lib/gcc/riscv-nuclei-elf/9.2.0/../../../../riscv-nuclei-elf/lib/rv32imafc/ilp32f\libm.a(lib_a-s_floor.o)
 .data          0x0000000000000000        0x0 d:/software/yuyin/qiqiyinqiluntai/riscv-nuclei-elf-gcc-9.2.0.0/gcc_fix_raissrc/bin/../lib/gcc/riscv-nuclei-elf/9.2.0/../../../../riscv-nuclei-elf/lib/rv32imafc/ilp32f\libm.a(lib_a-w_acos.o)
 .bss           0x0000000000000000        0x0 d:/software/yuyin/qiqiyinqiluntai/riscv-nuclei-elf-gcc-9.2.0.0/gcc_fix_raissrc/bin/../lib/gcc/riscv-nuclei-elf/9.2.0/../../../../riscv-nuclei-elf/lib/rv32imafc/ilp32f\libm.a(lib_a-w_acos.o)
 .data          0x0000000000000000        0x0 d:/software/yuyin/qiqiyinqiluntai/riscv-nuclei-elf-gcc-9.2.0.0/gcc_fix_raissrc/bin/../lib/gcc/riscv-nuclei-elf/9.2.0/../../../../riscv-nuclei-elf/lib/rv32imafc/ilp32f\libm.a(lib_a-w_exp.o)
 .bss           0x0000000000000000        0x0 d:/software/yuyin/qiqiyinqiluntai/riscv-nuclei-elf-gcc-9.2.0.0/gcc_fix_raissrc/bin/../lib/gcc/riscv-nuclei-elf/9.2.0/../../../../riscv-nuclei-elf/lib/rv32imafc/ilp32f\libm.a(lib_a-w_exp.o)
 .data          0x0000000000000000        0x0 d:/software/yuyin/qiqiyinqiluntai/riscv-nuclei-elf-gcc-9.2.0.0/gcc_fix_raissrc/bin/../lib/gcc/riscv-nuclei-elf/9.2.0/../../../../riscv-nuclei-elf/lib/rv32imafc/ilp32f\libm.a(lib_a-wf_pow.o)
 .bss           0x0000000000000000        0x0 d:/software/yuyin/qiqiyinqiluntai/riscv-nuclei-elf-gcc-9.2.0.0/gcc_fix_raissrc/bin/../lib/gcc/riscv-nuclei-elf/9.2.0/../../../../riscv-nuclei-elf/lib/rv32imafc/ilp32f\libm.a(lib_a-wf_pow.o)
 .data          0x0000000000000000        0x0 d:/software/yuyin/qiqiyinqiluntai/riscv-nuclei-elf-gcc-9.2.0.0/gcc_fix_raissrc/bin/../lib/gcc/riscv-nuclei-elf/9.2.0/../../../../riscv-nuclei-elf/lib/rv32imafc/ilp32f\libm.a(lib_a-w_log.o)
 .bss           0x0000000000000000        0x0 d:/software/yuyin/qiqiyinqiluntai/riscv-nuclei-elf-gcc-9.2.0.0/gcc_fix_raissrc/bin/../lib/gcc/riscv-nuclei-elf/9.2.0/../../../../riscv-nuclei-elf/lib/rv32imafc/ilp32f\libm.a(lib_a-w_log.o)
 .data          0x0000000000000000        0x0 d:/software/yuyin/qiqiyinqiluntai/riscv-nuclei-elf-gcc-9.2.0.0/gcc_fix_raissrc/bin/../lib/gcc/riscv-nuclei-elf/9.2.0/../../../../riscv-nuclei-elf/lib/rv32imafc/ilp32f\libm.a(lib_a-w_sqrt.o)
 .bss           0x0000000000000000        0x0 d:/software/yuyin/qiqiyinqiluntai/riscv-nuclei-elf-gcc-9.2.0.0/gcc_fix_raissrc/bin/../lib/gcc/riscv-nuclei-elf/9.2.0/../../../../riscv-nuclei-elf/lib/rv32imafc/ilp32f\libm.a(lib_a-w_sqrt.o)
 .data          0x0000000000000000        0x0 d:/software/yuyin/qiqiyinqiluntai/riscv-nuclei-elf-gcc-9.2.0.0/gcc_fix_raissrc/bin/../lib/gcc/riscv-nuclei-elf/9.2.0/../../../../riscv-nuclei-elf/lib/rv32imafc/ilp32f\libm.a(lib_a-e_acos.o)
 .bss           0x0000000000000000        0x0 d:/software/yuyin/qiqiyinqiluntai/riscv-nuclei-elf-gcc-9.2.0.0/gcc_fix_raissrc/bin/../lib/gcc/riscv-nuclei-elf/9.2.0/../../../../riscv-nuclei-elf/lib/rv32imafc/ilp32f\libm.a(lib_a-e_acos.o)
 .data          0x0000000000000000        0x0 d:/software/yuyin/qiqiyinqiluntai/riscv-nuclei-elf-gcc-9.2.0.0/gcc_fix_raissrc/bin/../lib/gcc/riscv-nuclei-elf/9.2.0/../../../../riscv-nuclei-elf/lib/rv32imafc/ilp32f\libm.a(lib_a-e_exp.o)
 .bss           0x0000000000000000        0x0 d:/software/yuyin/qiqiyinqiluntai/riscv-nuclei-elf-gcc-9.2.0.0/gcc_fix_raissrc/bin/../lib/gcc/riscv-nuclei-elf/9.2.0/../../../../riscv-nuclei-elf/lib/rv32imafc/ilp32f\libm.a(lib_a-e_exp.o)
 .data          0x0000000000000000        0x0 d:/software/yuyin/qiqiyinqiluntai/riscv-nuclei-elf-gcc-9.2.0.0/gcc_fix_raissrc/bin/../lib/gcc/riscv-nuclei-elf/9.2.0/../../../../riscv-nuclei-elf/lib/rv32imafc/ilp32f\libm.a(lib_a-ef_pow.o)
 .bss           0x0000000000000000        0x0 d:/software/yuyin/qiqiyinqiluntai/riscv-nuclei-elf-gcc-9.2.0.0/gcc_fix_raissrc/bin/../lib/gcc/riscv-nuclei-elf/9.2.0/../../../../riscv-nuclei-elf/lib/rv32imafc/ilp32f\libm.a(lib_a-ef_pow.o)
 .data          0x0000000000000000        0x0 d:/software/yuyin/qiqiyinqiluntai/riscv-nuclei-elf-gcc-9.2.0.0/gcc_fix_raissrc/bin/../lib/gcc/riscv-nuclei-elf/9.2.0/../../../../riscv-nuclei-elf/lib/rv32imafc/ilp32f\libm.a(lib_a-ef_sqrt.o)
 .bss           0x0000000000000000        0x0 d:/software/yuyin/qiqiyinqiluntai/riscv-nuclei-elf-gcc-9.2.0.0/gcc_fix_raissrc/bin/../lib/gcc/riscv-nuclei-elf/9.2.0/../../../../riscv-nuclei-elf/lib/rv32imafc/ilp32f\libm.a(lib_a-ef_sqrt.o)
 .data          0x0000000000000000        0x0 d:/software/yuyin/qiqiyinqiluntai/riscv-nuclei-elf-gcc-9.2.0.0/gcc_fix_raissrc/bin/../lib/gcc/riscv-nuclei-elf/9.2.0/../../../../riscv-nuclei-elf/lib/rv32imafc/ilp32f\libm.a(lib_a-e_log.o)
 .bss           0x0000000000000000        0x0 d:/software/yuyin/qiqiyinqiluntai/riscv-nuclei-elf-gcc-9.2.0.0/gcc_fix_raissrc/bin/../lib/gcc/riscv-nuclei-elf/9.2.0/../../../../riscv-nuclei-elf/lib/rv32imafc/ilp32f\libm.a(lib_a-e_log.o)
 .data          0x0000000000000000        0x0 d:/software/yuyin/qiqiyinqiluntai/riscv-nuclei-elf-gcc-9.2.0.0/gcc_fix_raissrc/bin/../lib/gcc/riscv-nuclei-elf/9.2.0/../../../../riscv-nuclei-elf/lib/rv32imafc/ilp32f\libm.a(lib_a-e_sqrt.o)
 .bss           0x0000000000000000        0x0 d:/software/yuyin/qiqiyinqiluntai/riscv-nuclei-elf-gcc-9.2.0.0/gcc_fix_raissrc/bin/../lib/gcc/riscv-nuclei-elf/9.2.0/../../../../riscv-nuclei-elf/lib/rv32imafc/ilp32f\libm.a(lib_a-e_sqrt.o)
 .data          0x0000000000000000        0x0 d:/software/yuyin/qiqiyinqiluntai/riscv-nuclei-elf-gcc-9.2.0.0/gcc_fix_raissrc/bin/../lib/gcc/riscv-nuclei-elf/9.2.0/../../../../riscv-nuclei-elf/lib/rv32imafc/ilp32f\libm.a(lib_a-s_fabs.o)
 .bss           0x0000000000000000        0x0 d:/software/yuyin/qiqiyinqiluntai/riscv-nuclei-elf-gcc-9.2.0.0/gcc_fix_raissrc/bin/../lib/gcc/riscv-nuclei-elf/9.2.0/../../../../riscv-nuclei-elf/lib/rv32imafc/ilp32f\libm.a(lib_a-s_fabs.o)
 .data          0x0000000000000000        0x0 d:/software/yuyin/qiqiyinqiluntai/riscv-nuclei-elf-gcc-9.2.0.0/gcc_fix_raissrc/bin/../lib/gcc/riscv-nuclei-elf/9.2.0/../../../../riscv-nuclei-elf/lib/rv32imafc/ilp32f\libm.a(lib_a-sf_finite.o)
 .bss           0x0000000000000000        0x0 d:/software/yuyin/qiqiyinqiluntai/riscv-nuclei-elf-gcc-9.2.0.0/gcc_fix_raissrc/bin/../lib/gcc/riscv-nuclei-elf/9.2.0/../../../../riscv-nuclei-elf/lib/rv32imafc/ilp32f\libm.a(lib_a-sf_finite.o)
 .data          0x0000000000000000        0x0 d:/software/yuyin/qiqiyinqiluntai/riscv-nuclei-elf-gcc-9.2.0.0/gcc_fix_raissrc/bin/../lib/gcc/riscv-nuclei-elf/9.2.0/../../../../riscv-nuclei-elf/lib/rv32imafc/ilp32f\libm.a(lib_a-s_finite.o)
 .bss           0x0000000000000000        0x0 d:/software/yuyin/qiqiyinqiluntai/riscv-nuclei-elf-gcc-9.2.0.0/gcc_fix_raissrc/bin/../lib/gcc/riscv-nuclei-elf/9.2.0/../../../../riscv-nuclei-elf/lib/rv32imafc/ilp32f\libm.a(lib_a-s_finite.o)
 .data          0x0000000000000000        0x0 d:/software/yuyin/qiqiyinqiluntai/riscv-nuclei-elf-gcc-9.2.0.0/gcc_fix_raissrc/bin/../lib/gcc/riscv-nuclei-elf/9.2.0/../../../../riscv-nuclei-elf/lib/rv32imafc/ilp32f\libm.a(lib_a-sf_nan.o)
 .bss           0x0000000000000000        0x0 d:/software/yuyin/qiqiyinqiluntai/riscv-nuclei-elf-gcc-9.2.0.0/gcc_fix_raissrc/bin/../lib/gcc/riscv-nuclei-elf/9.2.0/../../../../riscv-nuclei-elf/lib/rv32imafc/ilp32f\libm.a(lib_a-sf_nan.o)
 .data          0x0000000000000000        0x0 d:/software/yuyin/qiqiyinqiluntai/riscv-nuclei-elf-gcc-9.2.0.0/gcc_fix_raissrc/bin/../lib/gcc/riscv-nuclei-elf/9.2.0/../../../../riscv-nuclei-elf/lib/rv32imafc/ilp32f\libm.a(lib_a-sf_rint.o)
 .bss           0x0000000000000000        0x0 d:/software/yuyin/qiqiyinqiluntai/riscv-nuclei-elf-gcc-9.2.0.0/gcc_fix_raissrc/bin/../lib/gcc/riscv-nuclei-elf/9.2.0/../../../../riscv-nuclei-elf/lib/rv32imafc/ilp32f\libm.a(lib_a-sf_rint.o)
 .data          0x0000000000000000        0x0 d:/software/yuyin/qiqiyinqiluntai/riscv-nuclei-elf-gcc-9.2.0.0/gcc_fix_raissrc/bin/../lib/gcc/riscv-nuclei-elf/9.2.0/../../../../riscv-nuclei-elf/lib/rv32imafc/ilp32f\libm.a(lib_a-sf_scalbn.o)
 .bss           0x0000000000000000        0x0 d:/software/yuyin/qiqiyinqiluntai/riscv-nuclei-elf-gcc-9.2.0.0/gcc_fix_raissrc/bin/../lib/gcc/riscv-nuclei-elf/9.2.0/../../../../riscv-nuclei-elf/lib/rv32imafc/ilp32f\libm.a(lib_a-sf_scalbn.o)
 .text          0x0000000000000000        0x0 d:/software/yuyin/qiqiyinqiluntai/riscv-nuclei-elf-gcc-9.2.0.0/gcc_fix_raissrc/bin/../lib/gcc/riscv-nuclei-elf/9.2.0/../../../../riscv-nuclei-elf/lib/rv32imafc/ilp32f\libm.a(lib_a-s_lib_ver.o)
 .data          0x0000000000000000        0x0 d:/software/yuyin/qiqiyinqiluntai/riscv-nuclei-elf-gcc-9.2.0.0/gcc_fix_raissrc/bin/../lib/gcc/riscv-nuclei-elf/9.2.0/../../../../riscv-nuclei-elf/lib/rv32imafc/ilp32f\libm.a(lib_a-s_lib_ver.o)
 .bss           0x0000000000000000        0x0 d:/software/yuyin/qiqiyinqiluntai/riscv-nuclei-elf-gcc-9.2.0.0/gcc_fix_raissrc/bin/../lib/gcc/riscv-nuclei-elf/9.2.0/../../../../riscv-nuclei-elf/lib/rv32imafc/ilp32f\libm.a(lib_a-s_lib_ver.o)
 .data          0x0000000000000000        0x0 d:/software/yuyin/qiqiyinqiluntai/riscv-nuclei-elf-gcc-9.2.0.0/gcc_fix_raissrc/bin/../lib/gcc/riscv-nuclei-elf/9.2.0/../../../../riscv-nuclei-elf/lib/rv32imafc/ilp32f\libm.a(lib_a-s_matherr.o)
 .bss           0x0000000000000000        0x0 d:/software/yuyin/qiqiyinqiluntai/riscv-nuclei-elf-gcc-9.2.0.0/gcc_fix_raissrc/bin/../lib/gcc/riscv-nuclei-elf/9.2.0/../../../../riscv-nuclei-elf/lib/rv32imafc/ilp32f\libm.a(lib_a-s_matherr.o)
 .data          0x0000000000000000        0x0 d:/software/yuyin/qiqiyinqiluntai/riscv-nuclei-elf-gcc-9.2.0.0/gcc_fix_raissrc/bin/../lib/gcc/riscv-nuclei-elf/9.2.0/../../../../riscv-nuclei-elf/lib/rv32imafc/ilp32f\libm.a(lib_a-s_nan.o)
 .bss           0x0000000000000000        0x0 d:/software/yuyin/qiqiyinqiluntai/riscv-nuclei-elf-gcc-9.2.0.0/gcc_fix_raissrc/bin/../lib/gcc/riscv-nuclei-elf/9.2.0/../../../../riscv-nuclei-elf/lib/rv32imafc/ilp32f\libm.a(lib_a-s_nan.o)
 .data          0x0000000000000000        0x0 d:/software/yuyin/qiqiyinqiluntai/riscv-nuclei-elf-gcc-9.2.0.0/gcc_fix_raissrc/bin/../lib/gcc/riscv-nuclei-elf/9.2.0/../../../../riscv-nuclei-elf/lib/rv32imafc/ilp32f\libm.a(lib_a-sf_copysign.o)
 .bss           0x0000000000000000        0x0 d:/software/yuyin/qiqiyinqiluntai/riscv-nuclei-elf-gcc-9.2.0.0/gcc_fix_raissrc/bin/../lib/gcc/riscv-nuclei-elf/9.2.0/../../../../riscv-nuclei-elf/lib/rv32imafc/ilp32f\libm.a(lib_a-sf_copysign.o)

Memory Configuration

Name             Origin             Length             Attributes
BOOT_PARAMETER   0x000000001ff50a00 0x0000000000000200
SHARE_SRAM       0x000000001ff50c00 0x0000000000000400
SRAM             0x000000001ff51000 0x0000000000087000 xrw
*default*        0x0000000000000000 0xffffffffffffffff

Linker script and memory map

LOAD C:\TMP\nn_denoise_rtc_sample.elf.zkP8Mf.ltrans0.ltrans.o
LOAD C:\TMP\nn_denoise_rtc_sample.elf.zkP8Mf.ltrans1.ltrans.o
LOAD C:\TMP\ccRe2uM9.debug.temp.o
LOAD C:\TMP\ccic4sZX.debug.temp.o
LOAD C:\TMP\ccZbbPsL.debug.temp.o
LOAD C:\TMP\ccatLr9y.debug.temp.o
LOAD C:\TMP\ccXzUNGm.debug.temp.o
LOAD C:\TMP\cc6r84ae.debug.temp.o
LOAD C:\TMP\cc330RJ5.debug.temp.o
LOAD C:\TMP\ccuNPe9W.debug.temp.o
LOAD C:\TMP\ccZMJiVO.debug.temp.o
LOAD C:\TMP\ccWQiWxG.debug.temp.o
LOAD C:\TMP\ccPQC6ey.debug.temp.o
LOAD C:\TMP\ccEO8o3o.debug.temp.o
LOAD C:\TMP\cchENCig.debug.temp.o
LOAD C:\TMP\ccugKzo7.debug.temp.o
LOAD C:\TMP\cc33AVKX.debug.temp.o
LOAD C:\TMP\ccub8EbO.debug.temp.o
LOAD C:\TMP\ccBctBoE.debug.temp.o
LOAD C:\TMP\ccsvVA2u.debug.temp.o
LOAD C:\TMP\ccdblYKl.debug.temp.o
LOAD C:\TMP\ccm9P8dc.debug.temp.o
LOAD C:\TMP\ccPfYHX1.debug.temp.o
LOAD C:\TMP\ccGmwnCR.debug.temp.o
LOAD C:\TMP\cc5Q5juH.debug.temp.o
LOAD C:\TMP\ccQCgkjB.debug.temp.o
LOAD C:\TMP\ccdKMs3u.debug.temp.o
LOAD C:\TMP\ccoBX6Ro.debug.temp.o
LOAD C:\TMP\ccnkhG7i.debug.temp.o
LOAD C:\TMP\cc4vcB9c.debug.temp.o
LOAD C:\TMP\cc3gXLr6.debug.temp.o
LOAD C:\TMP\ccmWz2EZ.debug.temp.o
LOAD C:\TMP\ccv28mjT.debug.temp.o
LOAD C:\TMP\ccqblVJM.debug.temp.o
LOAD C:\TMP\ccb7sZeG.debug.temp.o
LOAD C:\TMP\cceCqj0y.debug.temp.o
LOAD C:\TMP\ccXwIYxr.debug.temp.o
LOAD C:\TMP\ccwmqzwk.debug.temp.o
LOAD C:\TMP\ccTVMFzd.debug.temp.o
LOAD C:\TMP\cc2DHBC6.debug.temp.o
LOAD C:\TMP\cc5K0wMY.debug.temp.o
LOAD C:\TMP\ccEc4I9Q.debug.temp.o
LOAD C:\TMP\ccJkRDnJ.debug.temp.o
LOAD C:\TMP\cccNwCyF.debug.temp.o
LOAD C:\TMP\ccrq3XNB.debug.temp.o
LOAD C:\TMP\cccKj2Tx.debug.temp.o
LOAD C:\TMP\ccR4x2qu.debug.temp.o
LOAD C:\TMP\cccP6nKq.debug.temp.o
LOAD C:\TMP\ccTgmxom.debug.temp.o
LOAD C:\TMP\cc4l4oTh.debug.temp.o
LOAD C:\TMP\cc7UZkPd.debug.temp.o
LOAD C:\TMP\ccGE8QB9.debug.temp.o
LOAD C:\TMP\ccbk2Ts5.debug.temp.o
LOAD C:\TMP\cc6e5Ov0.debug.temp.o
LOAD C:\TMP\ccBWptpV.debug.temp.o
LOAD C:\TMP\ccURSunQ.debug.temp.o
LOAD C:\TMP\ccZjqWeR.debug.temp.o
LOAD C:\TMP\ccAsH6WR.debug.temp.o
LOAD C:\TMP\cc5XVEJS.debug.temp.o
LOAD C:\TMP\cckLhgXT.debug.temp.o
LOAD C:\TMP\ccbqv85U.debug.temp.o
LOAD C:\TMP\ccytHTqV.debug.temp.o
LOAD C:\TMP\ccpamnCV.debug.temp.o
LOAD C:\TMP\ccQpxhjW.debug.temp.o
LOAD C:\TMP\ccV11MQW.debug.temp.o
LOAD C:\TMP\ccsstjAW.debug.temp.o
LOAD C:\TMP\ccx6oqaW.debug.temp.o
LOAD C:\TMP\cco5IAbW.debug.temp.o
LOAD C:\TMP\ccVBBfhW.debug.temp.o
LOAD C:\TMP\cc8x4vdW.debug.temp.o
LOAD C:\TMP\ccNiuNlV.debug.temp.o
LOAD C:\TMP\cc6v8hyU.debug.temp.o
LOAD C:\TMP\ccbMp0wT.debug.temp.o
LOAD C:\TMP\cc8HGUPS.debug.temp.o
LOAD C:\TMP\ccBEpL5V.debug.temp.o
LOAD C:\TMP\ccyeBkcZ.debug.temp.o
LOAD C:\TMP\cch9aXJ2.debug.temp.o
LOAD C:\TMP\ccyhfa85.debug.temp.o
LOAD C:\TMP\cc9xWLM8.debug.temp.o
LOAD C:\TMP\ccEbBLvb.debug.temp.o
LOAD C:\TMP\ccRhR60d.debug.temp.o
LOAD C:\TMP\ccM6qmXg.debug.temp.o
LOAD C:\TMP\ccdIFWXj.debug.temp.o
LOAD C:\TMP\ccOAI90l.debug.temp.o
LOAD C:\TMP\ccV9u5Un.debug.temp.o
LOAD C:\TMP\ccQAqWfq.debug.temp.o
LOAD C:\TMP\ccHX6jFs.debug.temp.o
LOAD C:\TMP\cc6xhiVu.debug.temp.o
LOAD C:\TMP\ccXWohnw.debug.temp.o
LOAD C:\TMP\ccmz0QFx.debug.temp.o
LOAD C:\TMP\cczVgW2y.debug.temp.o
LOAD C:\TMP\ccy6oWQA.debug.temp.o
LOAD C:\TMP\cc50xFvC.debug.temp.o
LOAD C:\TMP\cc4nq0bI.debug.temp.o
LOAD C:\TMP\ccN0MuCN.debug.temp.o
LOAD C:\TMP\cceSZ1tT.debug.temp.o
LOAD C:\TMP\cctXkWpZ.debug.temp.o
LOAD C:\TMP\ccoWt374.debug.temp.o
LOAD C:\TMP\ccD3fz69.debug.temp.o
LOAD C:\TMP\ccMxZs9e.debug.temp.o
LOAD C:\TMP\ccDukIYj.debug.temp.o
LOAD C:\TMP\ccGlFAco.debug.temp.o
LOAD C:\TMP\ccvxowRs.debug.temp.o
LOAD C:\TMP\cc8YymFx.debug.temp.o
LOAD C:\TMP\ccrmQWjC.debug.temp.o
LOAD C:\TMP\ccaZgpaG.debug.temp.o
LOAD C:\TMP\ccJoDn5J.debug.temp.o
LOAD C:\TMP\ccQ1tWQN.debug.temp.o
LOAD C:\TMP\ccFTay3R.debug.temp.o
LOAD C:\TMP\cc6AqT6V.debug.temp.o
LOAD C:\TMP\ccV61963.debug.temp.o
LOAD C:\TMP\ccq2XLTb.debug.temp.o
LOAD C:\TMP\ccLSjj7j.debug.temp.o
LOAD C:\TMP\ccocCxEr.debug.temp.o
LOAD C:\TMP\ccnHOasy.debug.temp.o
LOAD C:\TMP\ccQPtw6E.debug.temp.o
LOAD C:\TMP\ccfwBp7L.debug.temp.o
LOAD C:\TMP\cci5y2YS.debug.temp.o
LOAD C:\TMP\cc9RE2UZ.debug.temp.o
LOAD C:\TMP\ccigpmk6.debug.temp.o
LOAD C:\TMP\ccNpeBGg.debug.temp.o
LOAD C:\TMP\cc01EbPq.debug.temp.o
LOAD C:\TMP\cc1veHoB.debug.temp.o
LOAD C:\TMP\ccQJsI2L.debug.temp.o
LOAD C:\TMP\ccr0jXsW.debug.temp.o
LOAD C:\TMP\ccijgA95.debug.temp.o
LOAD C:\TMP\ccHPGNGf.debug.temp.o
LOAD C:\TMP\ccU5Lwip.debug.temp.o
LOAD C:\TMP\cc3TjNgz.debug.temp.o
LOAD C:\TMP\ccs0E09I.debug.temp.o
LOAD C:\TMP\cckdMU7K.debug.temp.o
LOAD C:\TMP\ccSVUyiN.debug.temp.o
LOAD C:\TMP\ccQTc5EO.debug.temp.o
LOAD C:\TMP\ccoEMkSP.debug.temp.o
LOAD C:\TMP\ccA17twR.debug.temp.o
LOAD C:\TMP\cc8lCJ5S.debug.temp.o
LOAD C:\TMP\ccGIxAHT.debug.temp.o
LOAD C:\TMP\cc6yGvKU.debug.temp.o
LOAD C:\TMP\cc0wL0DV.debug.temp.o
LOAD C:\TMP\cceDtUNV.debug.temp.o
LOAD C:\TMP\ccOGkUSV.debug.temp.o
LOAD C:\TMP\ccW7cbbW.debug.temp.o
LOAD build/objs/ci130x_vtable.o
LOAD build/objs/ci130x_startup.o
LOAD ../../../libs\libasr.a
LOAD ../../../libs\libeq.a
LOAD ../../../libs\libdrc.a
LOAD ../../../libs\libnewlib_port.a
LOAD ../../../libs\libfreertos_port.a
LOAD ../../../libs\libdsu.a
LOAD ../../../libs\libflash_encrypt.a
LOAD d:/software/yuyin/qiqiyinqiluntai/riscv-nuclei-elf-gcc-9.2.0.0/gcc_fix_raissrc/bin/../lib/gcc/riscv-nuclei-elf/9.2.0/../../../../riscv-nuclei-elf/lib/rv32imafc/ilp32f\libstdc++.a
LOAD d:/software/yuyin/qiqiyinqiluntai/riscv-nuclei-elf-gcc-9.2.0.0/gcc_fix_raissrc/bin/../lib/gcc/riscv-nuclei-elf/9.2.0/../../../../riscv-nuclei-elf/lib/rv32imafc/ilp32f\libm.a
LOAD d:/software/yuyin/qiqiyinqiluntai/riscv-nuclei-elf-gcc-9.2.0.0/gcc_fix_raissrc/bin/../lib/gcc/riscv-nuclei-elf/9.2.0/rv32imafc/ilp32f\libgcc.a
LOAD d:/software/yuyin/qiqiyinqiluntai/riscv-nuclei-elf-gcc-9.2.0.0/gcc_fix_raissrc/bin/../lib/gcc/riscv-nuclei-elf/9.2.0/../../../../riscv-nuclei-elf/lib/rv32imafc/ilp32f\libg_nano.a
LOAD d:/software/yuyin/qiqiyinqiluntai/riscv-nuclei-elf-gcc-9.2.0.0/gcc_fix_raissrc/bin/../lib/gcc/riscv-nuclei-elf/9.2.0/../../../../riscv-nuclei-elf/lib/rv32imafc/ilp32f\libc_nano.a
LOAD d:/software/yuyin/qiqiyinqiluntai/riscv-nuclei-elf-gcc-9.2.0.0/gcc_fix_raissrc/bin/../lib/gcc/riscv-nuclei-elf/9.2.0/rv32imafc/ilp32f\libgcc.a
START GROUP
LOAD d:/software/yuyin/qiqiyinqiluntai/riscv-nuclei-elf-gcc-9.2.0.0/gcc_fix_raissrc/bin/../lib/gcc/riscv-nuclei-elf/9.2.0/rv32imafc/ilp32f\libgcc.a
LOAD d:/software/yuyin/qiqiyinqiluntai/riscv-nuclei-elf-gcc-9.2.0.0/gcc_fix_raissrc/bin/../lib/gcc/riscv-nuclei-elf/9.2.0/../../../../riscv-nuclei-elf/lib/rv32imafc/ilp32f\libc_nano.a
LOAD d:/software/yuyin/qiqiyinqiluntai/riscv-nuclei-elf-gcc-9.2.0.0/gcc_fix_raissrc/bin/../lib/gcc/riscv-nuclei-elf/9.2.0/../../../../riscv-nuclei-elf/lib/rv32imafc/ilp32f\libgloss_nano.a
END GROUP
                0x0000000000000c00                STACK_SIZE = 0xc00
                0x000000001ffd2000                SRAM_HOST_END_ADDR = 0x1ffd2000
                0x000000001ffd2000                SRAM_HOST_END_ADDR_VPR = 0x1ffd2000
                0x000000001ffd0000                SRAM_HOST_END_ADDR_SED = 0x1ffd0000
                0x000000001ffcc000                SRAM_HOST_END_ADDR_OFFLINE_DUAL_MIC = 0x1ffcc000
                0x000000001ffd7000                SRAM_HOST_END_ADDR_AIOT_DUAL_MIC = 0x1ffd7000
                0x000000001ffcc000                SRAM_HOST_END_ADDR_NN_DENOISE_ASR = 0x1ffcc000
                0x000000001ffd8000                SRAM_HOST_END_ADDR_NN_DENOISE_RTC = 0x1ffd8000
                0x000000001ff50a00                BOOT_PARAMETER_ADDR = 0x1ff50a00
                0x0000000000000200                BOOT_PARAMETER_SIZE = 0x200
                0x000000001ff50c00                SHARE_SRAM_ADDR = 0x1ff50c00
                0x0000000000000400                SHARE_SRAM_SIZE = 0x400
                0x000000001ff51000                SRAM_START_ADDR = 0x1ff51000
                0x000000001ffd8000                SRAM_END_ADDR = SRAM_HOST_END_ADDR_NN_DENOISE_RTC
                0x0000000000087000                SRAM_SIZE = (SRAM_END_ADDR - SRAM_START_ADDR)
                0x0000000000037000                SYS_HEAP_SIZE = 0x37000
                0x0000000000000c00                __stack_size = STACK_SIZE
                0x0000000000000c00                __int_stack_size = STACK_SIZE
                0x0000000000000c00                __stack_size = DEFINED (__stack_size)?__stack_size:0x800
                0x0000000000000c00                __int_stack_size = DEFINED (__int_stack_size)?__int_stack_size:0x400

.boot_parameter
                0x000000001ff50a00      0x116
 *.(boot_parameter)
 .boot_parameter
                0x000000001ff50a00      0x116 C:\TMP\nn_denoise_rtc_sample.elf.zkP8Mf.ltrans1.ltrans.o

.share_memory   0x000000001ff50c00       0xb0
 *(.share_mem)
 .share_mem     0x000000001ff50c00       0xb0 C:\TMP\nn_denoise_rtc_sample.elf.zkP8Mf.ltrans0.ltrans.o
                0x000000001ff50c00                status_list.lto_priv.0

.init           0x000000001ff51000      0x272
 *(.vtable)
 .vtable        0x000000001ff51000      0x100 build/objs/ci130x_vtable.o
                0x000000001ff51000                vector_base
 *(.load_addr)
 .load_addr     0x000000001ff51100       0x3c build/objs/ci130x_startup.o
 *(SORT_NONE(.init))
 .init          0x000000001ff5113c      0x136 build/objs/ci130x_startup.o
                0x000000001ff5113c                _start
                0x000000001ff51162                _virtual_start
                0x000000001ff51250                disable_mcycle_minstret
                0x000000001ff51256                enable_mcycle_minstret
                0x000000001ff5125c                core_wfe_asm

.ilalign        0x000000001ff51272        0x2
                0x000000001ff51274                . = ALIGN (0x4)
 *fill*         0x000000001ff51272        0x2 
                0x000000001ff51274                PROVIDE (_ilm_lma = .)

.ialign         0x000000001ff51274        0x0
                0x000000001ff51274                PROVIDE (_ilm = .)

.text           0x000000001ff51280    0x164e2
 *(.text.unlikely .text.unlikely.*)
 *(.text.startup .text.startup.*)
 .text.startup.main
                0x000000001ff51280      0x556 C:\TMP\nn_denoise_rtc_sample.elf.zkP8Mf.ltrans1.ltrans.o
                0x000000001ff51280                main
 *(.text .text.*)
 .text.filter_mem16.constprop.0
                0x000000001ff517d6       0x84 C:\TMP\nn_denoise_rtc_sample.elf.zkP8Mf.ltrans0.ltrans.o
 .text.iir_mem16.constprop.0
                0x000000001ff5185a       0x66 C:\TMP\nn_denoise_rtc_sample.elf.zkP8Mf.ltrans0.ltrans.o
 .text.vq_nbest.constprop.0
                0x000000001ff518c0       0xc0 C:\TMP\nn_denoise_rtc_sample.elf.zkP8Mf.ltrans0.ltrans.o
 .text.vq_nbest_sign.constprop.0
                0x000000001ff51980       0xf0 C:\TMP\nn_denoise_rtc_sample.elf.zkP8Mf.ltrans0.ltrans.o
 .text.fir_mem16.constprop.0
                0x000000001ff51a70       0x62 C:\TMP\nn_denoise_rtc_sample.elf.zkP8Mf.ltrans0.ltrans.o
 .text.highpass.constprop.0
                0x000000001ff51ad2       0x8e C:\TMP\nn_denoise_rtc_sample.elf.zkP8Mf.ltrans0.ltrans.o
 .text.qmf_synth.constprop.0
                0x000000001ff51b60      0x172 C:\TMP\nn_denoise_rtc_sample.elf.zkP8Mf.ltrans0.ltrans.o
 .text.lsp_quant.constprop.0
                0x000000001ff51cd2       0x86 C:\TMP\nn_denoise_rtc_sample.elf.zkP8Mf.ltrans0.ltrans.o
 .text.lsp_weight_quant.constprop.0
                0x000000001ff51d58       0x92 C:\TMP\nn_denoise_rtc_sample.elf.zkP8Mf.ltrans0.ltrans.o
 .text.rc_callee_alg_aes_addr
                0x000000001ff51dea        0x8 C:\TMP\nn_denoise_rtc_sample.elf.zkP8Mf.ltrans0.ltrans.o
                0x000000001ff51dea                rc_callee_alg_aes_addr
 .text.rc_callee_print_doa_angle_in_host
                0x000000001ff51df2        0x2 C:\TMP\nn_denoise_rtc_sample.elf.zkP8Mf.ltrans0.ltrans.o
                0x000000001ff51df2                rc_callee_print_doa_angle_in_host
 .text.rc_callee_sed_rslt_cb
                0x000000001ff51df4        0x2 C:\TMP\nn_denoise_rtc_sample.elf.zkP8Mf.ltrans0.ltrans.o
                0x000000001ff51df4                rc_callee_sed_rslt_cb
 .text.rc_callee_deal_one_frm_fft_rslt_callback
                0x000000001ff51df6        0x2 C:\TMP\nn_denoise_rtc_sample.elf.zkP8Mf.ltrans0.ltrans.o
                0x000000001ff51df6                rc_callee_deal_one_frm_fft_rslt_callback
 .text.rc_callee_audio_deal_one_frm_callback
                0x000000001ff51df8        0x2 C:\TMP\nn_denoise_rtc_sample.elf.zkP8Mf.ltrans0.ltrans.o
                0x000000001ff51df8                rc_callee_audio_deal_one_frm_callback
 .text.efuse_check_int_state
                0x000000001ff51dfa       0x14 C:\TMP\nn_denoise_rtc_sample.elf.zkP8Mf.ltrans0.ltrans.o
 .text.efuse_int_clear
                0x000000001ff51e0e       0x12 C:\TMP\nn_denoise_rtc_sample.elf.zkP8Mf.ltrans0.ltrans.o
 .text.prvTaskExitError
                0x000000001ff51e20       0x16 C:\TMP\nn_denoise_rtc_sample.elf.zkP8Mf.ltrans0.ltrans.o
 .text.compute_quant_weights
                0x000000001ff51e36       0xba C:\TMP\nn_denoise_rtc_sample.elf.zkP8Mf.ltrans0.ltrans.o
 .text.forced_pitch_unquant
                0x000000001ff51ef0       0x78 C:\TMP\nn_denoise_rtc_sample.elf.zkP8Mf.ltrans0.ltrans.o
                0x000000001ff51ef0                forced_pitch_unquant
 .text.inner_prod
                0x000000001ff51f68       0x48 C:\TMP\nn_denoise_rtc_sample.elf.zkP8Mf.ltrans0.ltrans.o
 .text.interp_pitch.constprop.0
                0x000000001ff51fb0      0x122 C:\TMP\nn_denoise_rtc_sample.elf.zkP8Mf.ltrans0.ltrans.o
 .text.cheb_poly_eva.isra.0
                0x000000001ff520d2       0xa2 C:\TMP\nn_denoise_rtc_sample.elf.zkP8Mf.ltrans0.ltrans.o
 .text.lsp_interpolate
                0x000000001ff52174       0xf6 C:\TMP\nn_denoise_rtc_sample.elf.zkP8Mf.ltrans0.ltrans.o
 .text.lsp_to_lpc
                0x000000001ff5226a      0x1bc C:\TMP\nn_denoise_rtc_sample.elf.zkP8Mf.ltrans0.ltrans.o
 .text._spx_autocorr
                0x000000001ff52426       0x46 C:\TMP\nn_denoise_rtc_sample.elf.zkP8Mf.ltrans0.ltrans.o
 .text._spx_lpc
                0x000000001ff5246c       0xca C:\TMP\nn_denoise_rtc_sample.elf.zkP8Mf.ltrans0.ltrans.o
 .text.compute_impulse_response
                0x000000001ff52536      0x118 C:\TMP\nn_denoise_rtc_sample.elf.zkP8Mf.ltrans0.ltrans.o
 .text.syn_percep_zero16
                0x000000001ff5264e       0x60 C:\TMP\nn_denoise_rtc_sample.elf.zkP8Mf.ltrans0.ltrans.o
 .text.forced_pitch_quant
                0x000000001ff526ae       0xe8 C:\TMP\nn_denoise_rtc_sample.elf.zkP8Mf.ltrans0.ltrans.o
                0x000000001ff526ae                forced_pitch_quant
 .text.signal_mul
                0x000000001ff52796       0x1e C:\TMP\nn_denoise_rtc_sample.elf.zkP8Mf.ltrans0.ltrans.o
 .text.bw_lpc   0x000000001ff527b4       0x26 C:\TMP\nn_denoise_rtc_sample.elf.zkP8Mf.ltrans0.ltrans.o
 .text.sb_decode_lost
                0x000000001ff527da      0x122 C:\TMP\nn_denoise_rtc_sample.elf.zkP8Mf.ltrans0.ltrans.o
 .text.compute_weighted_codebook.isra.0
                0x000000001ff528fc       0x8e C:\TMP\nn_denoise_rtc_sample.elf.zkP8Mf.ltrans0.ltrans.o
 .text.noise_codebook_unquant
                0x000000001ff5298a       0x86 C:\TMP\nn_denoise_rtc_sample.elf.zkP8Mf.ltrans0.ltrans.o
                0x000000001ff5298a                noise_codebook_unquant
 .text.prvCopyDataToQueue.constprop.0
                0x000000001ff52a10       0x94 C:\TMP\nn_denoise_rtc_sample.elf.zkP8Mf.ltrans0.ltrans.o
 .text.lsp_quant_high
                0x000000001ff52aa4      0x152 C:\TMP\nn_denoise_rtc_sample.elf.zkP8Mf.ltrans0.ltrans.o
                0x000000001ff52aa4                lsp_quant_high
 .text.lsp_quant_lbr
                0x000000001ff52bf6      0x168 C:\TMP\nn_denoise_rtc_sample.elf.zkP8Mf.ltrans0.ltrans.o
                0x000000001ff52bf6                lsp_quant_lbr
 .text.lsp_quant_nb
                0x000000001ff52d5e      0x1ca C:\TMP\nn_denoise_rtc_sample.elf.zkP8Mf.ltrans0.ltrans.o
                0x000000001ff52d5e                lsp_quant_nb
 .text.split_cb_search_shape_sign
                0x000000001ff52f28      0x91c C:\TMP\nn_denoise_rtc_sample.elf.zkP8Mf.ltrans0.ltrans.o
                0x000000001ff52f28                split_cb_search_shape_sign
 .text.open_loop_nbest_pitch
                0x000000001ff53844      0x29e C:\TMP\nn_denoise_rtc_sample.elf.zkP8Mf.ltrans0.ltrans.o
 .text.compute_rms
                0x000000001ff53ae2       0x46 C:\TMP\nn_denoise_rtc_sample.elf.zkP8Mf.ltrans0.ltrans.o
 .text.multicomb.constprop.0
                0x000000001ff53b28      0x2e6 C:\TMP\nn_denoise_rtc_sample.elf.zkP8Mf.ltrans0.ltrans.o
 .text.lpc_to_lsp.constprop.0
                0x000000001ff53e0e      0x266 C:\TMP\nn_denoise_rtc_sample.elf.zkP8Mf.ltrans0.ltrans.o
 .text.speex_warning_int.lto_priv.0
                0x000000001ff54074       0x1e C:\TMP\nn_denoise_rtc_sample.elf.zkP8Mf.ltrans0.ltrans.o
 .text.nb_mode_query
                0x000000001ff54092       0x46 C:\TMP\nn_denoise_rtc_sample.elf.zkP8Mf.ltrans0.ltrans.o
                0x000000001ff54092                nb_mode_query
 .text.wb_mode_query
                0x000000001ff540d8       0x48 C:\TMP\nn_denoise_rtc_sample.elf.zkP8Mf.ltrans0.ltrans.o
                0x000000001ff540d8                wb_mode_query
 .text._speex_fatal.constprop.0
                0x000000001ff54120       0x28 C:\TMP\nn_denoise_rtc_sample.elf.zkP8Mf.ltrans0.ltrans.o
 .text.sb_decoder_destroy
                0x000000001ff54148       0x48 C:\TMP\nn_denoise_rtc_sample.elf.zkP8Mf.ltrans0.ltrans.o
                0x000000001ff54148                sb_decoder_destroy
 .text.nb_decoder_destroy
                0x000000001ff54190       0x16 C:\TMP\nn_denoise_rtc_sample.elf.zkP8Mf.ltrans0.ltrans.o
                0x000000001ff54190                nb_decoder_destroy
 .text.rc_callee_malloc_in_host
                0x000000001ff541a6        0xe C:\TMP\nn_denoise_rtc_sample.elf.zkP8Mf.ltrans0.ltrans.o
                0x000000001ff541a6                rc_callee_malloc_in_host
 .text.rc_callee_get_current_model_addr
                0x000000001ff541b4       0x14 C:\TMP\nn_denoise_rtc_sample.elf.zkP8Mf.ltrans0.ltrans.o
                0x000000001ff541b4                rc_callee_get_current_model_addr
 .text.speex_default_user_handler
                0x000000001ff541c8       0x1e C:\TMP\nn_denoise_rtc_sample.elf.zkP8Mf.ltrans0.ltrans.o
 .text.lsp_unquant_high
                0x000000001ff541e6      0x11a C:\TMP\nn_denoise_rtc_sample.elf.zkP8Mf.ltrans0.ltrans.o
                0x000000001ff541e6                lsp_unquant_high
 .text.lsp_unquant_lbr
                0x000000001ff54300      0x166 C:\TMP\nn_denoise_rtc_sample.elf.zkP8Mf.ltrans0.ltrans.o
                0x000000001ff54300                lsp_unquant_lbr
 .text.lsp_unquant_nb
                0x000000001ff54466      0x21e C:\TMP\nn_denoise_rtc_sample.elf.zkP8Mf.ltrans0.ltrans.o
                0x000000001ff54466                lsp_unquant_nb
 .text.split_cb_shape_sign_unquant
                0x000000001ff54684      0x12e C:\TMP\nn_denoise_rtc_sample.elf.zkP8Mf.ltrans0.ltrans.o
                0x000000001ff54684                split_cb_shape_sign_unquant
 .text.noise_codebook_quant
                0x000000001ff547b2       0xa4 C:\TMP\nn_denoise_rtc_sample.elf.zkP8Mf.ltrans0.ltrans.o
                0x000000001ff547b2                noise_codebook_quant
 .text.pitch_unquant_3tap
                0x000000001ff54856      0x270 C:\TMP\nn_denoise_rtc_sample.elf.zkP8Mf.ltrans0.ltrans.o
                0x000000001ff54856                pitch_unquant_3tap
 .text.pitch_search_3tap
                0x000000001ff54ac6      0x73a C:\TMP\nn_denoise_rtc_sample.elf.zkP8Mf.ltrans0.ltrans.o
                0x000000001ff54ac6                pitch_search_3tap
 .text.nb_decoder_ctl
                0x000000001ff55200      0x22e C:\TMP\nn_denoise_rtc_sample.elf.zkP8Mf.ltrans0.ltrans.o
                0x000000001ff55200                nb_decoder_ctl
 .text.nb_encode
                0x000000001ff5542e      0xcba C:\TMP\nn_denoise_rtc_sample.elf.zkP8Mf.ltrans0.ltrans.o
                0x000000001ff5542e                nb_encode
 .text.eclic_set_irq_priority.constprop.0
                0x000000001ff560e8       0x3a C:\TMP\nn_denoise_rtc_sample.elf.zkP8Mf.ltrans0.ltrans.o
                0x000000001ff560e8                eclic_set_irq_priority.constprop.0
 .text.find_id.constprop.0
                0x000000001ff56122       0x46 C:\TMP\nn_denoise_rtc_sample.elf.zkP8Mf.ltrans0.ltrans.o
                0x000000001ff56122                find_id.constprop.0
 .text.ci_eq_deal.constprop.0
                0x000000001ff56168      0x4de C:\TMP\nn_denoise_rtc_sample.elf.zkP8Mf.ltrans0.ltrans.o
                0x000000001ff56168                ci_eq_deal.constprop.0
 .text.cias_speex_compressed_data.constprop.0
                0x000000001ff56646       0xf2 C:\TMP\nn_denoise_rtc_sample.elf.zkP8Mf.ltrans0.ltrans.o
                0x000000001ff56646                cias_speex_compressed_data.constprop.0
 .text.dpmu_unlock_cfg_config
                0x000000001ff56738       0x12 C:\TMP\nn_denoise_rtc_sample.elf.zkP8Mf.ltrans0.ltrans.o
                0x000000001ff56738                dpmu_unlock_cfg_config
 .text.dpmu_config_update_en
                0x000000001ff5674a       0x3c C:\TMP\nn_denoise_rtc_sample.elf.zkP8Mf.ltrans0.ltrans.o
                0x000000001ff5674a                dpmu_config_update_en
 .text.dpmu_ldo3_lv_set
                0x000000001ff56786       0x34 C:\TMP\nn_denoise_rtc_sample.elf.zkP8Mf.ltrans0.ltrans.o
                0x000000001ff56786                dpmu_ldo3_lv_set
 .text.dpmu_ldo2_lv_set
                0x000000001ff567ba       0x30 C:\TMP\nn_denoise_rtc_sample.elf.zkP8Mf.ltrans0.ltrans.o
                0x000000001ff567ba                dpmu_ldo2_lv_set
 .text.dpmu_ldo1_lv_set
                0x000000001ff567ea       0x2a C:\TMP\nn_denoise_rtc_sample.elf.zkP8Mf.ltrans0.ltrans.o
                0x000000001ff567ea                dpmu_ldo1_lv_set
 .text.dpmu_set_pmu_trim_value
                0x000000001ff56814       0x34 C:\TMP\nn_denoise_rtc_sample.elf.zkP8Mf.ltrans0.ltrans.o
                0x000000001ff56814                dpmu_set_pmu_trim_value
 .text.dpmu_set_io_pull
                0x000000001ff56848       0x7a C:\TMP\nn_denoise_rtc_sample.elf.zkP8Mf.ltrans0.ltrans.o
                0x000000001ff56848                dpmu_set_io_pull
 .text.dpmu_set_io_reuse
                0x000000001ff568c2      0x130 C:\TMP\nn_denoise_rtc_sample.elf.zkP8Mf.ltrans0.ltrans.o
                0x000000001ff568c2                dpmu_set_io_reuse
 .text.dpmu_software_reset_system_config
                0x000000001ff569f2       0x2e C:\TMP\nn_denoise_rtc_sample.elf.zkP8Mf.ltrans0.ltrans.o
                0x000000001ff569f2                dpmu_software_reset_system_config
 .text.dpmu_get_pll_frequency
                0x000000001ff56a20       0x3e C:\TMP\nn_denoise_rtc_sample.elf.zkP8Mf.ltrans0.ltrans.o
                0x000000001ff56a20                dpmu_get_pll_frequency
 .text.efuse_read_data
                0x000000001ff56a5e        0xe C:\TMP\nn_denoise_rtc_sample.elf.zkP8Mf.ltrans0.ltrans.o
                0x000000001ff56a5e                efuse_read_data
 .text.AON_EFUSE_IRQHandler
                0x000000001ff56a6c       0x72 C:\TMP\nn_denoise_rtc_sample.elf.zkP8Mf.ltrans0.ltrans.o
                0x000000001ff56a6c                AON_EFUSE_IRQHandler
 .text.efuse_check_idle
                0x000000001ff56ade        0xe C:\TMP\nn_denoise_rtc_sample.elf.zkP8Mf.ltrans0.ltrans.o
                0x000000001ff56ade                efuse_check_idle
 .text.efuse_read_start
                0x000000001ff56aec        0xe C:\TMP\nn_denoise_rtc_sample.elf.zkP8Mf.ltrans0.ltrans.o
                0x000000001ff56aec                efuse_read_start
 .text.efuse_clk_freq_sel
                0x000000001ff56afa       0x10 C:\TMP\nn_denoise_rtc_sample.elf.zkP8Mf.ltrans0.ltrans.o
                0x000000001ff56afa                efuse_clk_freq_sel
 .text.scu_unlock_reset_config
                0x000000001ff56b0a       0x12 C:\TMP\nn_denoise_rtc_sample.elf.zkP8Mf.ltrans0.ltrans.o
                0x000000001ff56b0a                scu_unlock_reset_config
 .text.scu_set_device_reset_release
                0x000000001ff56b1c      0x146 C:\TMP\nn_denoise_rtc_sample.elf.zkP8Mf.ltrans0.ltrans.o
                0x000000001ff56b1c                scu_set_device_reset_release
 .text.scu_set_device_reset
                0x000000001ff56c62      0x150 C:\TMP\nn_denoise_rtc_sample.elf.zkP8Mf.ltrans0.ltrans.o
                0x000000001ff56c62                scu_set_device_reset
 .text.scu_unlock_clk_config
                0x000000001ff56db2       0x12 C:\TMP\nn_denoise_rtc_sample.elf.zkP8Mf.ltrans0.ltrans.o
                0x000000001ff56db2                scu_unlock_clk_config
 .text.scu_iis_codec_mclk_config
                0x000000001ff56dc4       0x8e C:\TMP\nn_denoise_rtc_sample.elf.zkP8Mf.ltrans0.ltrans.o
                0x000000001ff56dc4                scu_iis_codec_mclk_config
 .text.scu_iis_pad_mclk_config
                0x000000001ff56e52       0x74 C:\TMP\nn_denoise_rtc_sample.elf.zkP8Mf.ltrans0.ltrans.o
                0x000000001ff56e52                scu_iis_pad_mclk_config
 .text.scu_iis_pad_clk_config
                0x000000001ff56ec6       0x74 C:\TMP\nn_denoise_rtc_sample.elf.zkP8Mf.ltrans0.ltrans.o
                0x000000001ff56ec6                scu_iis_pad_clk_config
 .text.scu_iis_clk_config
                0x000000001ff56f3a       0xb2 C:\TMP\nn_denoise_rtc_sample.elf.zkP8Mf.ltrans0.ltrans.o
                0x000000001ff56f3a                scu_iis_clk_config
 .text.scu_iis_mclk_Config
                0x000000001ff56fec       0x92 C:\TMP\nn_denoise_rtc_sample.elf.zkP8Mf.ltrans0.ltrans.o
                0x000000001ff56fec                scu_iis_mclk_Config
 .text.scu_set_device_gate
                0x000000001ff5707e      0x1de C:\TMP\nn_denoise_rtc_sample.elf.zkP8Mf.ltrans0.ltrans.o
                0x000000001ff5707e                scu_set_device_gate
 .text.scu_unlock_system_config
                0x000000001ff5725c       0x12 C:\TMP\nn_denoise_rtc_sample.elf.zkP8Mf.ltrans0.ltrans.o
                0x000000001ff5725c                scu_unlock_system_config
 .text.dpmu_pll_config.constprop.0
                0x000000001ff5726e      0x15c C:\TMP\nn_denoise_rtc_sample.elf.zkP8Mf.ltrans0.ltrans.o
                0x000000001ff5726e                dpmu_pll_config.constprop.0
 .text.MAIL_BOX_IRQHandler
                0x000000001ff573ca       0x52 C:\TMP\nn_denoise_rtc_sample.elf.zkP8Mf.ltrans0.ltrans.o
                0x000000001ff573ca                MAIL_BOX_IRQHandler
 .text.xPortSetInterruptMask
                0x000000001ff5741c       0x1e C:\TMP\nn_denoise_rtc_sample.elf.zkP8Mf.ltrans0.ltrans.o
                0x000000001ff5741c                xPortSetInterruptMask
 .text.xQueueGenericSendFromISR.constprop.0
                0x000000001ff5743a       0x70 C:\TMP\nn_denoise_rtc_sample.elf.zkP8Mf.ltrans0.ltrans.o
                0x000000001ff5743a                xQueueGenericSendFromISR.constprop.0
 .text.vPortExitCritical
                0x000000001ff574aa       0x1a C:\TMP\nn_denoise_rtc_sample.elf.zkP8Mf.ltrans0.ltrans.o
                0x000000001ff574aa                vPortExitCritical
 .text.vPortEnterCritical
                0x000000001ff574c4       0x24 C:\TMP\nn_denoise_rtc_sample.elf.zkP8Mf.ltrans0.ltrans.o
                0x000000001ff574c4                vPortEnterCritical
 .text.vPortSetup
                0x000000001ff574e8       0x9e C:\TMP\nn_denoise_rtc_sample.elf.zkP8Mf.ltrans0.ltrans.o
                0x000000001ff574e8                vPortSetup
 .text.vDoTaskSwitchContext
                0x000000001ff57586       0x76 C:\TMP\nn_denoise_rtc_sample.elf.zkP8Mf.ltrans0.ltrans.o
                0x000000001ff57586                vDoTaskSwitchContext
 .text.taskswitch
                0x000000001ff575fc       0x14 C:\TMP\nn_denoise_rtc_sample.elf.zkP8Mf.ltrans0.ltrans.o
                0x000000001ff575fc                taskswitch
 .text.vPortClearMSIPInt
                0x000000001ff57610       0x12 C:\TMP\nn_denoise_rtc_sample.elf.zkP8Mf.ltrans0.ltrans.o
                0x000000001ff57610                vPortClearMSIPInt
 .text.vPortSetMSIPInt
                0x000000001ff57622       0x1a C:\TMP\nn_denoise_rtc_sample.elf.zkP8Mf.ltrans0.ltrans.o
                0x000000001ff57622                vPortSetMSIPInt
 .text.xTaskGenericNotify.constprop.0
                0x000000001ff5763c       0x64 C:\TMP\nn_denoise_rtc_sample.elf.zkP8Mf.ltrans0.ltrans.o
                0x000000001ff5763c                xTaskGenericNotify.constprop.0
 .text.xTaskNotifyWait.constprop.0
                0x000000001ff576a0       0x6e C:\TMP\nn_denoise_rtc_sample.elf.zkP8Mf.ltrans0.ltrans.o
                0x000000001ff576a0                xTaskNotifyWait.constprop.0
 .text.xTaskCreate.constprop.0
                0x000000001ff5770e      0x1fc C:\TMP\nn_denoise_rtc_sample.elf.zkP8Mf.ltrans0.ltrans.o
                0x000000001ff5770e                xTaskCreate.constprop.0
 .text.vPortSysTickHandler
                0x000000001ff5790a       0x60 C:\TMP\nn_denoise_rtc_sample.elf.zkP8Mf.ltrans0.ltrans.o
                0x000000001ff5790a                vPortSysTickHandler
 .text.flash_manage_give_op_done_sem
                0x000000001ff5796a       0x4c C:\TMP\nn_denoise_rtc_sample.elf.zkP8Mf.ltrans0.ltrans.o
 .text.flash_manage_nuclear_com_outside_serve_cb.lto_priv.0
                0x000000001ff579b6       0x42 C:\TMP\nn_denoise_rtc_sample.elf.zkP8Mf.ltrans0.ltrans.o
                0x000000001ff579b6                flash_manage_nuclear_com_outside_serve_cb.lto_priv.0
 .text.speex_decoder_ctl
                0x000000001ff579f8        0xe C:\TMP\nn_denoise_rtc_sample.elf.zkP8Mf.ltrans0.ltrans.o
                0x000000001ff579f8                speex_decoder_ctl
 .text.speex_decode_int.constprop.0
                0x000000001ff57a06       0xfe C:\TMP\nn_denoise_rtc_sample.elf.zkP8Mf.ltrans0.ltrans.o
                0x000000001ff57a06                speex_decode_int.constprop.0
 .text.sb_decoder_ctl
                0x000000001ff57b04      0x1bc C:\TMP\nn_denoise_rtc_sample.elf.zkP8Mf.ltrans0.ltrans.o
                0x000000001ff57b04                sb_decoder_ctl
 .text.speex_encoder_ctl
                0x000000001ff57cc0        0xe C:\TMP\nn_denoise_rtc_sample.elf.zkP8Mf.ltrans0.ltrans.o
                0x000000001ff57cc0                speex_encoder_ctl
 .text.sb_encode
                0x000000001ff57cce      0xa6c C:\TMP\nn_denoise_rtc_sample.elf.zkP8Mf.ltrans0.ltrans.o
                0x000000001ff57cce                sb_encode
 .text.sb_encoder_ctl
                0x000000001ff5873a      0x232 C:\TMP\nn_denoise_rtc_sample.elf.zkP8Mf.ltrans0.ltrans.o
                0x000000001ff5873a                sb_encoder_ctl
 .text.nb_encoder_ctl
                0x000000001ff5896c      0x26c C:\TMP\nn_denoise_rtc_sample.elf.zkP8Mf.ltrans0.ltrans.o
                0x000000001ff5896c                nb_encoder_ctl
 .text.speex_notify.lto_priv.0.lto_priv.0
                0x000000001ff58bd8       0x1c C:\TMP\nn_denoise_rtc_sample.elf.zkP8Mf.ltrans0.ltrans.o
                0x000000001ff58bd8                speex_notify.lto_priv.0.lto_priv.0
 .text.sb_decode
                0x000000001ff58bf4      0x5e2 C:\TMP\nn_denoise_rtc_sample.elf.zkP8Mf.ltrans0.ltrans.o
                0x000000001ff58bf4                sb_decode
 .text.nb_decode
                0x000000001ff591d6      0xeb0 C:\TMP\nn_denoise_rtc_sample.elf.zkP8Mf.ltrans0.ltrans.o
                0x000000001ff591d6                nb_decode
 .text.speex_alloc.lto_priv.0.lto_priv.0
                0x000000001ff5a086        0xe C:\TMP\nn_denoise_rtc_sample.elf.zkP8Mf.ltrans0.ltrans.o
                0x000000001ff5a086                speex_alloc.lto_priv.0.lto_priv.0
 .text.sb_decoder_init
                0x000000001ff5a094       0xde C:\TMP\nn_denoise_rtc_sample.elf.zkP8Mf.ltrans0.ltrans.o
                0x000000001ff5a094                sb_decoder_init
 .text.nb_decoder_init
                0x000000001ff5a172       0xd2 C:\TMP\nn_denoise_rtc_sample.elf.zkP8Mf.ltrans0.ltrans.o
                0x000000001ff5a172                nb_decoder_init
 .text.xQueueGenericSend.constprop.0
                0x000000001ff5a244       0xe8 C:\TMP\nn_denoise_rtc_sample.elf.zkP8Mf.ltrans0.ltrans.o
                0x000000001ff5a244                xQueueGenericSend.constprop.0
 .text.xQueueCreateMutex.constprop.0
                0x000000001ff5a32c       0x2c C:\TMP\nn_denoise_rtc_sample.elf.zkP8Mf.ltrans0.ltrans.o
                0x000000001ff5a32c                xQueueCreateMutex.constprop.0
 .text.xTimerGenericCommand.constprop.0
                0x000000001ff5a358       0x2c C:\TMP\nn_denoise_rtc_sample.elf.zkP8Mf.ltrans0.ltrans.o
                0x000000001ff5a358                xTimerGenericCommand.constprop.0
 .text.prompt_play_by_cmd_string.constprop.0
                0x000000001ff5a384       0x8c C:\TMP\nn_denoise_rtc_sample.elf.zkP8Mf.ltrans0.ltrans.o
 .text.give_flash_sem.lto_priv.0
                0x000000001ff5a410       0x1c C:\TMP\nn_denoise_rtc_sample.elf.zkP8Mf.ltrans0.ltrans.o
                0x000000001ff5a410                give_flash_sem.lto_priv.0
 .text.xStreamBufferReceive.constprop.0
                0x000000001ff5a42c       0xc6 C:\TMP\nn_denoise_rtc_sample.elf.zkP8Mf.ltrans0.ltrans.o
                0x000000001ff5a42c                xStreamBufferReceive.constprop.0
 .text.IISDMA_ChannelIntENConfig.constprop.0
                0x000000001ff5a4f2       0x58 C:\TMP\nn_denoise_rtc_sample.elf.zkP8Mf.ltrans0.ltrans.o
                0x000000001ff5a4f2                IISDMA_ChannelIntENConfig.constprop.0
 .text.cm_write_codec.constprop.0
                0x000000001ff5a54a       0x8e C:\TMP\nn_denoise_rtc_sample.elf.zkP8Mf.ltrans0.ltrans.o
                0x000000001ff5a54a                cm_write_codec.constprop.0
 .text.cm_get_pcm_buffer.constprop.0
                0x000000001ff5a5d8       0x80 C:\TMP\nn_denoise_rtc_sample.elf.zkP8Mf.ltrans0.ltrans.o
                0x000000001ff5a5d8                cm_get_pcm_buffer.constprop.0
 .text.iis_audio_choose.constprop.0
                0x000000001ff5a658       0x98 C:\TMP\nn_denoise_rtc_sample.elf.zkP8Mf.ltrans0.ltrans.o
                0x000000001ff5a658                iis_audio_choose.constprop.0
 .text.rc_callee_alg_aes_type_tip
                0x000000001ff5a6f0       0x1e C:\TMP\nn_denoise_rtc_sample.elf.zkP8Mf.ltrans0.ltrans.o
                0x000000001ff5a6f0                rc_callee_alg_aes_type_tip
 .text.rc_callee_npu_ifft_data_handle_in_host
                0x000000001ff5a70e       0x8a C:\TMP\nn_denoise_rtc_sample.elf.zkP8Mf.ltrans0.ltrans.o
                0x000000001ff5a70e                rc_callee_npu_ifft_data_handle_in_host
 .text.rc_callee_free_in_host
                0x000000001ff5a798       0x40 C:\TMP\nn_denoise_rtc_sample.elf.zkP8Mf.ltrans0.ltrans.o
                0x000000001ff5a798                rc_callee_free_in_host
 .text.mailbox_send_msg
                0x000000001ff5a7d8       0xb8 C:\TMP\nn_denoise_rtc_sample.elf.zkP8Mf.ltrans0.ltrans.o
                0x000000001ff5a7d8                mailbox_send_msg
 .text.nuclear_com_send.constprop.0
                0x000000001ff5a890       0xb8 C:\TMP\nn_denoise_rtc_sample.elf.zkP8Mf.ltrans0.ltrans.o
 .text.send_voice_info_to_audio_in_manage.constprop.0
                0x000000001ff5a948       0x3a C:\TMP\nn_denoise_rtc_sample.elf.zkP8Mf.ltrans0.ltrans.o
                0x000000001ff5a948                send_voice_info_to_audio_in_manage.constprop.0
 .text.flash_manage_ept_cal_serve_rpmsg.lto_priv.0
                0x000000001ff5a982       0x1c C:\TMP\nn_denoise_rtc_sample.elf.zkP8Mf.ltrans0.ltrans.o
                0x000000001ff5a982                flash_manage_ept_cal_serve_rpmsg.lto_priv.0
 .text.remote_call_task.lto_priv.0
                0x000000001ff5a99e       0xfe C:\TMP\nn_denoise_rtc_sample.elf.zkP8Mf.ltrans0.ltrans.o
                0x000000001ff5a99e                remote_call_task.lto_priv.0
 .text.nuclear_com_irq_handler
                0x000000001ff5aa9c      0x176 C:\TMP\nn_denoise_rtc_sample.elf.zkP8Mf.ltrans0.ltrans.o
                0x000000001ff5aa9c                nuclear_com_irq_handler
 .text.ulSynchTrap
                0x000000001ff5ac12      0x110 C:\TMP\nn_denoise_rtc_sample.elf.zkP8Mf.ltrans0.ltrans.o
                0x000000001ff5ac12                ulSynchTrap
 .text.flash_manage_req_wait_op_done_sem
                0x000000001ff5ad22       0xca C:\TMP\nn_denoise_rtc_sample.elf.zkP8Mf.ltrans0.ltrans.o
 .text.wait_flash_sem
                0x000000001ff5adec       0x3e C:\TMP\nn_denoise_rtc_sample.elf.zkP8Mf.ltrans0.ltrans.o
 .text.post_erase_flash.constprop.0
                0x000000001ff5ae2a       0x70 C:\TMP\nn_denoise_rtc_sample.elf.zkP8Mf.ltrans0.ltrans.o
                0x000000001ff5ae2a                post_erase_flash.constprop.0
 .text.post_spic_read_unique_id
                0x000000001ff5ae9a       0x36 C:\TMP\nn_denoise_rtc_sample.elf.zkP8Mf.ltrans0.ltrans.o
 .text.post_write_flash
                0x000000001ff5aed0       0x3e C:\TMP\nn_denoise_rtc_sample.elf.zkP8Mf.ltrans0.ltrans.o
                0x000000001ff5aed0                post_write_flash
 .text.post_read_flash
                0x000000001ff5af0e       0x94 C:\TMP\nn_denoise_rtc_sample.elf.zkP8Mf.ltrans0.ltrans.o
                0x000000001ff5af0e                post_read_flash
 .text.write_item.constprop.0
                0x000000001ff5afa2      0x11c C:\TMP\nn_denoise_rtc_sample.elf.zkP8Mf.ltrans0.ltrans.o
 .text.init_item.constprop.0
                0x000000001ff5b0be       0xba C:\TMP\nn_denoise_rtc_sample.elf.zkP8Mf.ltrans0.ltrans.o
                0x000000001ff5b0be                init_item.constprop.0
 .text.rc_callee_flash_get_en_data
                0x000000001ff5b178       0x1c C:\TMP\nn_denoise_rtc_sample.elf.zkP8Mf.ltrans0.ltrans.o
                0x000000001ff5b178                rc_callee_flash_get_en_data
 .text.decoder_rpmsg_serve_cb
                0x000000001ff5b194      0x2a4 C:\TMP\nn_denoise_rtc_sample.elf.zkP8Mf.ltrans0.ltrans.o
                0x000000001ff5b194                decoder_rpmsg_serve_cb
 .text.asr_top_outside_serve_cb
                0x000000001ff5b438       0x76 C:\TMP\nn_denoise_rtc_sample.elf.zkP8Mf.ltrans0.ltrans.o
                0x000000001ff5b438                asr_top_outside_serve_cb
 .text.sb_encoder_destroy
                0x000000001ff5b4ae       0x6c C:\TMP\nn_denoise_rtc_sample.elf.zkP8Mf.ltrans0.ltrans.o
                0x000000001ff5b4ae                sb_encoder_destroy
 .text.sb_encoder_init
                0x000000001ff5b51a      0x166 C:\TMP\nn_denoise_rtc_sample.elf.zkP8Mf.ltrans0.ltrans.o
                0x000000001ff5b51a                sb_encoder_init
 .text.nb_encoder_destroy
                0x000000001ff5b680       0x2e C:\TMP\nn_denoise_rtc_sample.elf.zkP8Mf.ltrans0.ltrans.o
                0x000000001ff5b680                nb_encoder_destroy
 .text.nb_encoder_init
                0x000000001ff5b6ae       0xe8 C:\TMP\nn_denoise_rtc_sample.elf.zkP8Mf.ltrans0.ltrans.o
                0x000000001ff5b6ae                nb_encoder_init
 .text.other_func_serve_cb
                0x000000001ff5b796       0x1a C:\TMP\nn_denoise_rtc_sample.elf.zkP8Mf.ltrans1.ltrans.o
 .text.icodec_config
                0x000000001ff5b7b0      0x112 C:\TMP\nn_denoise_rtc_sample.elf.zkP8Mf.ltrans1.ltrans.o
 .text.icodec_stop
                0x000000001ff5b8c2       0x20 C:\TMP\nn_denoise_rtc_sample.elf.zkP8Mf.ltrans1.ltrans.o
 .text.inner_codec_adc_dig_gain_set
                0x000000001ff5b8e2       0x44 C:\TMP\nn_denoise_rtc_sample.elf.zkP8Mf.ltrans1.ltrans.o
 .text.get_pga_gain_reg_data_from_db
                0x000000001ff5b926       0x3a C:\TMP\nn_denoise_rtc_sample.elf.zkP8Mf.ltrans1.ltrans.o
 .text.icodec_ioctl
                0x000000001ff5b960       0xfe C:\TMP\nn_denoise_rtc_sample.elf.zkP8Mf.ltrans1.ltrans.o
 .text.convert_left_and_right
                0x000000001ff5ba5e        0x6 C:\TMP\nn_denoise_rtc_sample.elf.zkP8Mf.ltrans1.ltrans.o
 .text.uart_dma_read_irq_callback
                0x000000001ff5ba64        0x8 C:\TMP\nn_denoise_rtc_sample.elf.zkP8Mf.ltrans1.ltrans.o
 .text.prvInsertBlockIntoFreeList
                0x000000001ff5ba6c       0x42 C:\TMP\nn_denoise_rtc_sample.elf.zkP8Mf.ltrans1.ltrans.o
 .text.prvResetNextTaskUnblockTime
                0x000000001ff5baae       0x1e C:\TMP\nn_denoise_rtc_sample.elf.zkP8Mf.ltrans1.ltrans.o
 .text.prvWriteBytesToBuffer
                0x000000001ff5bacc       0x58 C:\TMP\nn_denoise_rtc_sample.elf.zkP8Mf.ltrans1.ltrans.o
 .text.prvCopyDataFromQueue
                0x000000001ff5bb24       0x2c C:\TMP\nn_denoise_rtc_sample.elf.zkP8Mf.ltrans1.ltrans.o
 .text.vListInsert
                0x000000001ff5bb50       0x2e C:\TMP\nn_denoise_rtc_sample.elf.zkP8Mf.ltrans1.ltrans.o
 .text.prvInsertTimerInActiveList
                0x000000001ff5bb7e       0x3e C:\TMP\nn_denoise_rtc_sample.elf.zkP8Mf.ltrans1.ltrans.o
 .text.speex_bits_init
                0x000000001ff5bbbc       0x34 C:\TMP\nn_denoise_rtc_sample.elf.zkP8Mf.ltrans1.ltrans.o
 .text.speex_warning
                0x000000001ff5bbf0       0x1c C:\TMP\nn_denoise_rtc_sample.elf.zkP8Mf.ltrans1.ltrans.o
 .text.iis_clk_gate
                0x000000001ff5bc0c       0x50 C:\TMP\nn_denoise_rtc_sample.elf.zkP8Mf.ltrans1.ltrans.o
 .text.pad_config_for_uart.part.0
                0x000000001ff5bc5c       0x20 C:\TMP\nn_denoise_rtc_sample.elf.zkP8Mf.ltrans1.ltrans.o
 .text.pad_config_for_uart
                0x000000001ff5bc7c       0x54 C:\TMP\nn_denoise_rtc_sample.elf.zkP8Mf.ltrans1.ltrans.o
 .text.audio_pre_rslt_write_data_from_uart
                0x000000001ff5bcd0      0x17a C:\TMP\nn_denoise_rtc_sample.elf.zkP8Mf.ltrans1.ltrans.o
 .text.speex_bits_remaining
                0x000000001ff5be4a       0x16 C:\TMP\nn_denoise_rtc_sample.elf.zkP8Mf.ltrans1.ltrans.o
                0x000000001ff5be4a                speex_bits_remaining
 .text.speex_bits_advance
                0x000000001ff5be60       0x2c C:\TMP\nn_denoise_rtc_sample.elf.zkP8Mf.ltrans1.ltrans.o
                0x000000001ff5be60                speex_bits_advance
 .text.speex_bits_unpack_unsigned
                0x000000001ff5be8c       0x58 C:\TMP\nn_denoise_rtc_sample.elf.zkP8Mf.ltrans1.ltrans.o
                0x000000001ff5be8c                speex_bits_unpack_unsigned
 .text.speex_bits_pack
                0x000000001ff5bee4       0xae C:\TMP\nn_denoise_rtc_sample.elf.zkP8Mf.ltrans1.ltrans.o
                0x000000001ff5bee4                speex_bits_pack
 .text.UART0_IRQHandler
                0x000000001ff5bf92       0x80 C:\TMP\nn_denoise_rtc_sample.elf.zkP8Mf.ltrans1.ltrans.o
                0x000000001ff5bf92                UART0_IRQHandler
 .text.get_src_clk
                0x000000001ff5c012        0xc C:\TMP\nn_denoise_rtc_sample.elf.zkP8Mf.ltrans1.ltrans.o
                0x000000001ff5c012                get_src_clk
 .text.check_curr_trap
                0x000000001ff5c01e        0xe C:\TMP\nn_denoise_rtc_sample.elf.zkP8Mf.ltrans1.ltrans.o
                0x000000001ff5c01e                check_curr_trap
 .text.eclic_set_irq_lvl_abs.lto_priv.0
                0x000000001ff5c02c       0x4a C:\TMP\nn_denoise_rtc_sample.elf.zkP8Mf.ltrans1.ltrans.o
                0x000000001ff5c02c                eclic_set_irq_lvl_abs.lto_priv.0
 .text.init_irq_pri
                0x000000001ff5c076       0x22 C:\TMP\nn_denoise_rtc_sample.elf.zkP8Mf.ltrans1.ltrans.o
 .text.write_feb_status.lto_priv.0
                0x000000001ff5c098       0x4e C:\TMP\nn_denoise_rtc_sample.elf.zkP8Mf.ltrans1.ltrans.o
                0x000000001ff5c098                write_feb_status.lto_priv.0
 .text.write_item_status.lto_priv.0
                0x000000001ff5c0e6       0x7c C:\TMP\nn_denoise_rtc_sample.elf.zkP8Mf.ltrans1.ltrans.o
                0x000000001ff5c0e6                write_item_status.lto_priv.0
 .text.hotid_update.lto_priv.0
                0x000000001ff5c162       0x1c C:\TMP\nn_denoise_rtc_sample.elf.zkP8Mf.ltrans1.ltrans.o
                0x000000001ff5c162                hotid_update.lto_priv.0
 .text.traverse_feb.lto_priv.0
                0x000000001ff5c17e      0x25a C:\TMP\nn_denoise_rtc_sample.elf.zkP8Mf.ltrans1.ltrans.o
                0x000000001ff5c17e                traverse_feb.lto_priv.0
 .text.find_item.lto_priv.0
                0x000000001ff5c3d8       0x54 C:\TMP\nn_denoise_rtc_sample.elf.zkP8Mf.ltrans1.ltrans.o
                0x000000001ff5c3d8                find_item.lto_priv.0
 .text.erase_feb.lto_priv.0
                0x000000001ff5c42c       0x2e C:\TMP\nn_denoise_rtc_sample.elf.zkP8Mf.ltrans1.ltrans.o
                0x000000001ff5c42c                erase_feb.lto_priv.0
 .text.ciss_set
                0x000000001ff5c45a       0x16 C:\TMP\nn_denoise_rtc_sample.elf.zkP8Mf.ltrans1.ltrans.o
                0x000000001ff5c45a                ciss_set
 .text._printf  0x000000001ff5c470       0x76 C:\TMP\nn_denoise_rtc_sample.elf.zkP8Mf.ltrans1.ltrans.o
                0x000000001ff5c470                _printf
 .text.UART2_IRQHandler
                0x000000001ff5c4e6       0xb0 C:\TMP\nn_denoise_rtc_sample.elf.zkP8Mf.ltrans1.ltrans.o
                0x000000001ff5c4e6                UART2_IRQHandler
 .text.IIC0_IRQHandler
                0x000000001ff5c596      0x27a C:\TMP\nn_denoise_rtc_sample.elf.zkP8Mf.ltrans1.ltrans.o
                0x000000001ff5c596                IIC0_IRQHandler
 .text.iis_wait_load_ctrl
                0x000000001ff5c810       0x38 C:\TMP\nn_denoise_rtc_sample.elf.zkP8Mf.ltrans1.ltrans.o
 .text.IISxDMA_TADDR0.part.0
                0x000000001ff5c848       0x2c C:\TMP\nn_denoise_rtc_sample.elf.zkP8Mf.ltrans1.ltrans.o
 .text.IISDMA_ADDRRollBackINT.part.0
                0x000000001ff5c874       0x2c C:\TMP\nn_denoise_rtc_sample.elf.zkP8Mf.ltrans1.ltrans.o
 .text.get_iis_dma_channel
                0x000000001ff5c8a0       0x58 C:\TMP\nn_denoise_rtc_sample.elf.zkP8Mf.ltrans1.ltrans.o
 .text.init_iis.isra.0
                0x000000001ff5c8f8       0x8a C:\TMP\nn_denoise_rtc_sample.elf.zkP8Mf.ltrans1.ltrans.o
 .text.cm_reg_codec.part.0
                0x000000001ff5c982      0x172 C:\TMP\nn_denoise_rtc_sample.elf.zkP8Mf.ltrans1.ltrans.o
 .text.xTaskGetSchedulerState
                0x000000001ff5caf4       0x14 C:\TMP\nn_denoise_rtc_sample.elf.zkP8Mf.ltrans1.ltrans.o
                0x000000001ff5caf4                xTaskGetSchedulerState
 .text.cinv_port_mutex_give
                0x000000001ff5cb08       0x34 C:\TMP\nn_denoise_rtc_sample.elf.zkP8Mf.ltrans1.ltrans.o
 .text.xTaskCheckForTimeOut
                0x000000001ff5cb3c       0x60 C:\TMP\nn_denoise_rtc_sample.elf.zkP8Mf.ltrans1.ltrans.o
                0x000000001ff5cb3c                xTaskCheckForTimeOut
 .text.vTaskSuspendAll
                0x000000001ff5cb9c        0xc C:\TMP\nn_denoise_rtc_sample.elf.zkP8Mf.ltrans1.ltrans.o
                0x000000001ff5cb9c                vTaskSuspendAll
 .text.prvBytesInBuffer.lto_priv.0
                0x000000001ff5cba8       0x14 C:\TMP\nn_denoise_rtc_sample.elf.zkP8Mf.ltrans1.ltrans.o
                0x000000001ff5cba8                prvBytesInBuffer.lto_priv.0
 .text.prvReadBytesFromBuffer.lto_priv.0
                0x000000001ff5cbbc       0x5e C:\TMP\nn_denoise_rtc_sample.elf.zkP8Mf.ltrans1.ltrans.o
                0x000000001ff5cbbc                prvReadBytesFromBuffer.lto_priv.0
 .text.uxListRemove
                0x000000001ff5cc1a       0x20 C:\TMP\nn_denoise_rtc_sample.elf.zkP8Mf.ltrans1.ltrans.o
                0x000000001ff5cc1a                uxListRemove
 .text.prvSwitchTimerLists
                0x000000001ff5cc3a       0x62 C:\TMP\nn_denoise_rtc_sample.elf.zkP8Mf.ltrans1.ltrans.o
 .text.vListInsertEnd
                0x000000001ff5cc9c       0x18 C:\TMP\nn_denoise_rtc_sample.elf.zkP8Mf.ltrans1.ltrans.o
                0x000000001ff5cc9c                vListInsertEnd
 .text.prvAddCurrentTaskToDelayedList.lto_priv.0
                0x000000001ff5ccb4       0x70 C:\TMP\nn_denoise_rtc_sample.elf.zkP8Mf.ltrans1.ltrans.o
                0x000000001ff5ccb4                prvAddCurrentTaskToDelayedList.lto_priv.0
 .text.vTaskPlaceOnEventList
                0x000000001ff5cd24       0x1c C:\TMP\nn_denoise_rtc_sample.elf.zkP8Mf.ltrans1.ltrans.o
                0x000000001ff5cd24                vTaskPlaceOnEventList
 .text.xTaskRemoveFromEventList
                0x000000001ff5cd40       0x70 C:\TMP\nn_denoise_rtc_sample.elf.zkP8Mf.ltrans1.ltrans.o
                0x000000001ff5cd40                xTaskRemoveFromEventList
 .text.prvUnlockQueue.lto_priv.0
                0x000000001ff5cdb0       0x7a C:\TMP\nn_denoise_rtc_sample.elf.zkP8Mf.ltrans1.ltrans.o
                0x000000001ff5cdb0                prvUnlockQueue.lto_priv.0
 .text.xQueueReceiveFromISR
                0x000000001ff5ce2a       0x72 C:\TMP\nn_denoise_rtc_sample.elf.zkP8Mf.ltrans1.ltrans.o
                0x000000001ff5ce2a                xQueueReceiveFromISR
 .text.cm_output_interrupt_handler
                0x000000001ff5ce9c       0xf6 C:\TMP\nn_denoise_rtc_sample.elf.zkP8Mf.ltrans1.ltrans.o
 .text.xQueueGiveFromISR
                0x000000001ff5cf92       0x60 C:\TMP\nn_denoise_rtc_sample.elf.zkP8Mf.ltrans1.ltrans.o
                0x000000001ff5cf92                xQueueGiveFromISR
 .text.cm_input_interrupt_handler
                0x000000001ff5cff2       0x7c C:\TMP\nn_denoise_rtc_sample.elf.zkP8Mf.ltrans1.ltrans.o
 .text.IIS_DMA_IRQHandler
                0x000000001ff5d06e      0x112 C:\TMP\nn_denoise_rtc_sample.elf.zkP8Mf.ltrans1.ltrans.o
                0x000000001ff5d06e                IIS_DMA_IRQHandler
 .text.xTaskIncrementTick
                0x000000001ff5d180       0xea C:\TMP\nn_denoise_rtc_sample.elf.zkP8Mf.ltrans1.ltrans.o
                0x000000001ff5d180                xTaskIncrementTick
 .text.xTaskResumeAll
                0x000000001ff5d26a       0xbe C:\TMP\nn_denoise_rtc_sample.elf.zkP8Mf.ltrans1.ltrans.o
                0x000000001ff5d26a                xTaskResumeAll
 .text.vPortFree
                0x000000001ff5d328       0x4a C:\TMP\nn_denoise_rtc_sample.elf.zkP8Mf.ltrans1.ltrans.o
                0x000000001ff5d328                vPortFree
 .text.prvIdleTask
                0x000000001ff5d372       0x60 C:\TMP\nn_denoise_rtc_sample.elf.zkP8Mf.ltrans1.ltrans.o
 .text.vQueueDelete
                0x000000001ff5d3d2       0x38 C:\TMP\nn_denoise_rtc_sample.elf.zkP8Mf.ltrans1.ltrans.o
 .text.pvPortMalloc
                0x000000001ff5d40a       0xf2 C:\TMP\nn_denoise_rtc_sample.elf.zkP8Mf.ltrans1.ltrans.o
                0x000000001ff5d40a                pvPortMalloc
 .text.realloc_buffer
                0x000000001ff5d4fc       0x3a C:\TMP\nn_denoise_rtc_sample.elf.zkP8Mf.ltrans1.ltrans.o
 .text.get_file_addr
                0x000000001ff5d536       0xd2 C:\TMP\nn_denoise_rtc_sample.elf.zkP8Mf.ltrans1.ltrans.o
 .text.get_current_model_addr
                0x000000001ff5d608       0x8e C:\TMP\nn_denoise_rtc_sample.elf.zkP8Mf.ltrans1.ltrans.o
                0x000000001ff5d608                get_current_model_addr
 .text.flash_control_inner_serve_cb
                0x000000001ff5d696       0x76 C:\TMP\nn_denoise_rtc_sample.elf.zkP8Mf.ltrans1.ltrans.o
 .text.prvListTasksWithinSingleList
                0x000000001ff5d70c       0xca C:\TMP\nn_denoise_rtc_sample.elf.zkP8Mf.ltrans1.ltrans.o
 .text.vTaskDelay
                0x000000001ff5d7d6       0x24 C:\TMP\nn_denoise_rtc_sample.elf.zkP8Mf.ltrans1.ltrans.o
 .text.speex_record_data_task
                0x000000001ff5d7fa       0xbe C:\TMP\nn_denoise_rtc_sample.elf.zkP8Mf.ltrans1.ltrans.o
 .text.xStreamBufferSend
                0x000000001ff5d8b8      0x104 C:\TMP\nn_denoise_rtc_sample.elf.zkP8Mf.ltrans1.ltrans.o
 .text.xQueueReceive
                0x000000001ff5d9bc       0xec C:\TMP\nn_denoise_rtc_sample.elf.zkP8Mf.ltrans1.ltrans.o
                0x000000001ff5d9bc                xQueueReceive
 .text.prvTimerTask
                0x000000001ff5daa8      0x1a8 C:\TMP\nn_denoise_rtc_sample.elf.zkP8Mf.ltrans1.ltrans.o
 .text.xQueueSemaphoreTake
                0x000000001ff5dc50      0x222 C:\TMP\nn_denoise_rtc_sample.elf.zkP8Mf.ltrans1.ltrans.o
                0x000000001ff5dc50                xQueueSemaphoreTake
 .text.cm_start_codec
                0x000000001ff5de72      0x1da C:\TMP\nn_denoise_rtc_sample.elf.zkP8Mf.ltrans1.ltrans.o
 .text.speex_play_data_task
                0x000000001ff5e04c       0xf0 C:\TMP\nn_denoise_rtc_sample.elf.zkP8Mf.ltrans1.ltrans.o
 .text.audio_pre_rslt_write_data
                0x000000001ff5e13c       0xf0 C:\TMP\nn_denoise_rtc_sample.elf.zkP8Mf.ltrans1.ltrans.o
 .text.ifft_data_handle_task_rtc
                0x000000001ff5e22c       0xae C:\TMP\nn_denoise_rtc_sample.elf.zkP8Mf.ltrans1.ltrans.o
 .text.codec_manage_inner_serve_cb
                0x000000001ff5e2da       0x9c C:\TMP\nn_denoise_rtc_sample.elf.zkP8Mf.ltrans1.ltrans.o
 .text.cinv_port_mutex_take
                0x000000001ff5e376       0x32 C:\TMP\nn_denoise_rtc_sample.elf.zkP8Mf.ltrans1.ltrans.o
 .text.uart_eq_param_cfg_task
                0x000000001ff5e3a8      0x5ea C:\TMP\nn_denoise_rtc_sample.elf.zkP8Mf.ltrans1.ltrans.o
 .text.vListInitialise
                0x000000001ff5e992       0x14 C:\TMP\nn_denoise_rtc_sample.elf.zkP8Mf.ltrans1.ltrans.o
                0x000000001ff5e992                vListInitialise
 .text.xQueueGenericCreate
                0x000000001ff5e9a6       0x74 C:\TMP\nn_denoise_rtc_sample.elf.zkP8Mf.ltrans1.ltrans.o
                0x000000001ff5e9a6                xQueueGenericCreate
 .text.cm_config_pcm_buffer.part.0
                0x000000001ff5ea1a       0xfe C:\TMP\nn_denoise_rtc_sample.elf.zkP8Mf.ltrans1.ltrans.o
 .text.xEventGroupSetBits
                0x000000001ff5eb18       0xbc C:\TMP\nn_denoise_rtc_sample.elf.zkP8Mf.ltrans1.ltrans.o
                0x000000001ff5eb18                xEventGroupSetBits
 .text.vEventGroupSetBitsCallback
                0x000000001ff5ebd4        0xc C:\TMP\nn_denoise_rtc_sample.elf.zkP8Mf.ltrans1.ltrans.o
                0x000000001ff5ebd4                vEventGroupSetBitsCallback
 .text.handle_trap
                0x000000001ff5ebe0      0x11a C:\TMP\nn_denoise_rtc_sample.elf.zkP8Mf.ltrans1.ltrans.o
                0x000000001ff5ebe0                handle_trap
 .text._delay_10us_240M
                0x000000001ff5ecfa       0x2e C:\TMP\nn_denoise_rtc_sample.elf.zkP8Mf.ltrans1.ltrans.o
                0x000000001ff5ecfa                _delay_10us_240M
 .text.UART_BAUDRATEConfig
                0x000000001ff5ed28      0x45e C:\TMP\nn_denoise_rtc_sample.elf.zkP8Mf.ltrans1.ltrans.o
 .text.speex_recv_data_task
                0x000000001ff5f186      0x214 C:\TMP\nn_denoise_rtc_sample.elf.zkP8Mf.ltrans1.ltrans.o
 .text.GPIO_IRQ_Default_proc
                0x000000001ff5f39a       0xc0 C:\TMP\nn_denoise_rtc_sample.elf.zkP8Mf.ltrans1.ltrans.o
 .text.AON_PC_IRQHandler
                0x000000001ff5f45a       0x12 C:\TMP\nn_denoise_rtc_sample.elf.zkP8Mf.ltrans1.ltrans.o
                0x000000001ff5f45a                AON_PC_IRQHandler
 .text.PB_IRQHandler
                0x000000001ff5f46c       0x12 C:\TMP\nn_denoise_rtc_sample.elf.zkP8Mf.ltrans1.ltrans.o
                0x000000001ff5f46c                PB_IRQHandler
 .text.PA_IRQHandler
                0x000000001ff5f47e       0x12 C:\TMP\nn_denoise_rtc_sample.elf.zkP8Mf.ltrans1.ltrans.o
                0x000000001ff5f47e                PA_IRQHandler
 .text.inner_codec_dac_enable
                0x000000001ff5f490       0xa2 C:\TMP\nn_denoise_rtc_sample.elf.zkP8Mf.ltrans1.ltrans.o
 .text.icodec_start
                0x000000001ff5f532       0x1a C:\TMP\nn_denoise_rtc_sample.elf.zkP8Mf.ltrans1.ltrans.o
 .text.icodec_init
                0x000000001ff5f54c      0x318 C:\TMP\nn_denoise_rtc_sample.elf.zkP8Mf.ltrans1.ltrans.o
 .text.cm_config_codec.part.0
                0x000000001ff5f864      0x6b6 C:\TMP\nn_denoise_rtc_sample.elf.zkP8Mf.ltrans1.ltrans.o
 .text.task_init
                0x000000001ff5ff1a     0x13cc C:\TMP\nn_denoise_rtc_sample.elf.zkP8Mf.ltrans1.ltrans.o
 .text.audio_pre_rslt_out_play_card_init
                0x000000001ff612e6      0x17c C:\TMP\nn_denoise_rtc_sample.elf.zkP8Mf.ltrans1.ltrans.o
 .text.audio_in_manage_inner_task_rtc
                0x000000001ff61462       0xc2 C:\TMP\nn_denoise_rtc_sample.elf.zkP8Mf.ltrans1.ltrans.o
 .text.AON_TIM_INT1_IRQHandler
                0x000000001ff61524        0x2 C:\TMP\nn_denoise_rtc_sample.elf.zkP8Mf.ltrans1.ltrans.o
                0x000000001ff61524                AON_TIM_INT1_IRQHandler
 .text.IWDG_IRQHandler
                0x000000001ff61526        0x2 C:\TMP\nn_denoise_rtc_sample.elf.zkP8Mf.ltrans1.ltrans.o
                0x000000001ff61526                IWDG_IRQHandler
 .text.AON_TIM_INT0_IRQHandler
                0x000000001ff61528        0x2 C:\TMP\nn_denoise_rtc_sample.elf.zkP8Mf.ltrans1.ltrans.o
                0x000000001ff61528                AON_TIM_INT0_IRQHandler
 .text.EXT1_IRQHandler
                0x000000001ff6152a        0x2 C:\TMP\nn_denoise_rtc_sample.elf.zkP8Mf.ltrans1.ltrans.o
                0x000000001ff6152a                EXT1_IRQHandler
 .text.EXT0_IRQHandler
                0x000000001ff6152c        0x2 C:\TMP\nn_denoise_rtc_sample.elf.zkP8Mf.ltrans1.ltrans.o
                0x000000001ff6152c                EXT0_IRQHandler
 .text.VDT_IRQHandler
                0x000000001ff6152e        0x2 C:\TMP\nn_denoise_rtc_sample.elf.zkP8Mf.ltrans1.ltrans.o
                0x000000001ff6152e                VDT_IRQHandler
 .text.V11_OK_IRQHandler
                0x000000001ff61530        0x2 C:\TMP\nn_denoise_rtc_sample.elf.zkP8Mf.ltrans1.ltrans.o
                0x000000001ff61530                V11_OK_IRQHandler
 .text.DTR_IRQHandler
                0x000000001ff61532        0x2 C:\TMP\nn_denoise_rtc_sample.elf.zkP8Mf.ltrans1.ltrans.o
                0x000000001ff61532                DTR_IRQHandler
 .text.PDM_IRQHandler
                0x000000001ff61534        0x2 C:\TMP\nn_denoise_rtc_sample.elf.zkP8Mf.ltrans1.ltrans.o
                0x000000001ff61534                PDM_IRQHandler
 .text.ALC_IRQHandler
                0x000000001ff61536        0x2 C:\TMP\nn_denoise_rtc_sample.elf.zkP8Mf.ltrans1.ltrans.o
                0x000000001ff61536                ALC_IRQHandler
 .text.IIS2_IRQHandler
                0x000000001ff61538        0x2 C:\TMP\nn_denoise_rtc_sample.elf.zkP8Mf.ltrans1.ltrans.o
                0x000000001ff61538                IIS2_IRQHandler
 .text.IIS1_IRQHandler
                0x000000001ff6153a        0x2 C:\TMP\nn_denoise_rtc_sample.elf.zkP8Mf.ltrans1.ltrans.o
                0x000000001ff6153a                IIS1_IRQHandler
 .text.IIS0_IRQHandler
                0x000000001ff6153c        0x2 C:\TMP\nn_denoise_rtc_sample.elf.zkP8Mf.ltrans1.ltrans.o
                0x000000001ff6153c                IIS0_IRQHandler
 .text.UART1_IRQHandler
                0x000000001ff6153e        0x2 C:\TMP\nn_denoise_rtc_sample.elf.zkP8Mf.ltrans1.ltrans.o
                0x000000001ff6153e                UART1_IRQHandler
 .text.TIMER3_IRQHandler
                0x000000001ff61540        0x2 C:\TMP\nn_denoise_rtc_sample.elf.zkP8Mf.ltrans1.ltrans.o
                0x000000001ff61540                TIMER3_IRQHandler
 .text.TIMER2_IRQHandler
                0x000000001ff61542        0x2 C:\TMP\nn_denoise_rtc_sample.elf.zkP8Mf.ltrans1.ltrans.o
                0x000000001ff61542                TIMER2_IRQHandler
 .text.TIMER1_IRQHandler
                0x000000001ff61544        0x2 C:\TMP\nn_denoise_rtc_sample.elf.zkP8Mf.ltrans1.ltrans.o
                0x000000001ff61544                TIMER1_IRQHandler
 .text.TIMER0_IRQHandler
                0x000000001ff61546        0x2 C:\TMP\nn_denoise_rtc_sample.elf.zkP8Mf.ltrans1.ltrans.o
                0x000000001ff61546                TIMER0_IRQHandler
 .text.DMA_IRQHandler
                0x000000001ff61548       0x40 C:\TMP\nn_denoise_rtc_sample.elf.zkP8Mf.ltrans1.ltrans.o
                0x000000001ff61548                DMA_IRQHandler
 .text.ADC_IRQHandler
                0x000000001ff61588        0x2 C:\TMP\nn_denoise_rtc_sample.elf.zkP8Mf.ltrans1.ltrans.o
                0x000000001ff61588                ADC_IRQHandler
 .text.NPU_IRQHandler
                0x000000001ff6158a        0x2 C:\TMP\nn_denoise_rtc_sample.elf.zkP8Mf.ltrans1.ltrans.o
                0x000000001ff6158a                NPU_IRQHandler
 .text.SCU_IRQHandler
                0x000000001ff6158c        0x2 C:\TMP\nn_denoise_rtc_sample.elf.zkP8Mf.ltrans1.ltrans.o
                0x000000001ff6158c                SCU_IRQHandler
 .text.TWDG_IRQHandler
                0x000000001ff6158e        0x2 C:\TMP\nn_denoise_rtc_sample.elf.zkP8Mf.ltrans1.ltrans.o
                0x000000001ff6158e                TWDG_IRQHandler
 .text._fini    0x000000001ff61590        0x2 C:\TMP\nn_denoise_rtc_sample.elf.zkP8Mf.ltrans1.ltrans.o
                0x000000001ff61590                _fini
 .text._init    0x000000001ff61592       0xc0 C:\TMP\nn_denoise_rtc_sample.elf.zkP8Mf.ltrans1.ltrans.o
                0x000000001ff61592                _init
 .text.sbrk     0x000000001ff61652       0x6e ../../../libs\libnewlib_port.a(sbrk.o)
                0x000000001ff61652                sbrk
 .text.get_heap_bytes_remaining_size
                0x000000001ff616c0        0x6 ../../../libs\libnewlib_port.a(sbrk.o)
                0x000000001ff616c0                get_heap_bytes_remaining_size
 .text._sbrk    0x000000001ff616c6        0xc ../../../libs\libnewlib_port.a(sbrk.o)
                0x000000001ff616c6                _sbrk
 .text.__malloc_lock
                0x000000001ff616d2        0xa ../../../libs\libnewlib_port.a(sbrk.o)
                0x000000001ff616d2                __malloc_lock
 .text.__malloc_unlock
                0x000000001ff616dc        0xa ../../../libs\libnewlib_port.a(sbrk.o)
                0x000000001ff616dc                __malloc_unlock
 .text.__wrap_memcmp
                0x000000001ff616e6        0xe ../../../libs\libnewlib_port.a(sbrk.o)
                0x000000001ff616e6                __wrap_memcmp
 .text.__wrap_memcpy
                0x000000001ff616f4        0xe ../../../libs\libnewlib_port.a(sbrk.o)
                0x000000001ff616f4                __wrap_memcpy
 .text.__wrap_memmove
                0x000000001ff61702        0xe ../../../libs\libnewlib_port.a(sbrk.o)
                0x000000001ff61702                __wrap_memmove
 .text.__wrap_memset
                0x000000001ff61710        0xe ../../../libs\libnewlib_port.a(sbrk.o)
                0x000000001ff61710                __wrap_memset
 .text.__wrap_strcmp
                0x000000001ff6171e        0xe ../../../libs\libnewlib_port.a(sbrk.o)
                0x000000001ff6171e                __wrap_strcmp
 .text.__wrap_malloc
                0x000000001ff6172c       0x10 ../../../libs\libnewlib_port.a(sbrk.o)
                0x000000001ff6172c                __wrap_malloc
 .text.__wrap_free
                0x000000001ff6173c       0x10 ../../../libs\libnewlib_port.a(sbrk.o)
                0x000000001ff6173c                __wrap_free
 .text.__wrap_fabsf
                0x000000001ff6174c       0x10 ../../../libs\libnewlib_port.a(sbrk.o)
                0x000000001ff6174c                __wrap_fabsf
 *fill*         0x000000001ff6175c       0x24 
 .text.entry    0x000000001ff61780      0x5f4 ../../../libs\libfreertos_port.a(portasm.o)
                0x000000001ff61780                trap_entry
                0x000000001ff61870                irq_entry
                0x000000001ff619e4                eclic_mtip_handler
                0x000000001ff61aa4                eclic_msip_handler
                0x000000001ff61b80                vPortYield_from_ulSynchTrap
                0x000000001ff61bc0                vPortYield
                0x000000001ff61cf0                xPortStartScheduler
                0x000000001ff61d60                vPortEndScheduler
 .text          0x000000001ff61d74       0x60 d:/software/yuyin/qiqiyinqiluntai/riscv-nuclei-elf-gcc-9.2.0.0/gcc_fix_raissrc/bin/../lib/gcc/riscv-nuclei-elf/9.2.0/rv32imafc/ilp32f\libgcc.a(save-restore.o)
                0x000000001ff61d74                __riscv_save_12
                0x000000001ff61d7c                __riscv_save_9
                0x000000001ff61d7c                __riscv_save_11
                0x000000001ff61d7c                __riscv_save_10
                0x000000001ff61d7c                __riscv_save_8
                0x000000001ff61d8a                __riscv_save_4
                0x000000001ff61d8a                __riscv_save_6
                0x000000001ff61d8a                __riscv_save_5
                0x000000001ff61d8a                __riscv_save_7
                0x000000001ff61da4                __riscv_save_3
                0x000000001ff61da4                __riscv_save_2
                0x000000001ff61da4                __riscv_save_1
                0x000000001ff61da4                __riscv_save_0
                0x000000001ff61db0                __riscv_restore_12
                0x000000001ff61db4                __riscv_restore_11
                0x000000001ff61db4                __riscv_restore_9
                0x000000001ff61db4                __riscv_restore_10
                0x000000001ff61db4                __riscv_restore_8
                0x000000001ff61dbe                __riscv_restore_5
                0x000000001ff61dbe                __riscv_restore_7
                0x000000001ff61dbe                __riscv_restore_6
                0x000000001ff61dbe                __riscv_restore_4
                0x000000001ff61dc8                __riscv_restore_3
                0x000000001ff61dc8                __riscv_restore_0
                0x000000001ff61dc8                __riscv_restore_2
                0x000000001ff61dc8                __riscv_restore_1
 .text          0x000000001ff61dd4      0x8a8 d:/software/yuyin/qiqiyinqiluntai/riscv-nuclei-elf-gcc-9.2.0.0/gcc_fix_raissrc/bin/../lib/gcc/riscv-nuclei-elf/9.2.0/rv32imafc/ilp32f\libgcc.a(adddf3.o)
                0x000000001ff61dd4                __adddf3
 .text          0x000000001ff6267c      0x694 d:/software/yuyin/qiqiyinqiluntai/riscv-nuclei-elf-gcc-9.2.0.0/gcc_fix_raissrc/bin/../lib/gcc/riscv-nuclei-elf/9.2.0/rv32imafc/ilp32f\libgcc.a(divdf3.o)
                0x000000001ff6267c                __divdf3
 .text          0x000000001ff62d10       0xa2 d:/software/yuyin/qiqiyinqiluntai/riscv-nuclei-elf-gcc-9.2.0.0/gcc_fix_raissrc/bin/../lib/gcc/riscv-nuclei-elf/9.2.0/rv32imafc/ilp32f\libgcc.a(eqdf2.o)
                0x000000001ff62d10                __nedf2
                0x000000001ff62d10                __eqdf2
 .text          0x000000001ff62db2       0xae d:/software/yuyin/qiqiyinqiluntai/riscv-nuclei-elf-gcc-9.2.0.0/gcc_fix_raissrc/bin/../lib/gcc/riscv-nuclei-elf/9.2.0/rv32imafc/ilp32f\libgcc.a(gedf2.o)
                0x000000001ff62db2                __gedf2
                0x000000001ff62db2                __gtdf2
 .text          0x000000001ff62e60       0xae d:/software/yuyin/qiqiyinqiluntai/riscv-nuclei-elf-gcc-9.2.0.0/gcc_fix_raissrc/bin/../lib/gcc/riscv-nuclei-elf/9.2.0/rv32imafc/ilp32f\libgcc.a(ledf2.o)
                0x000000001ff62e60                __ledf2
                0x000000001ff62e60                __ltdf2
 .text          0x000000001ff62f0e      0x5a4 d:/software/yuyin/qiqiyinqiluntai/riscv-nuclei-elf-gcc-9.2.0.0/gcc_fix_raissrc/bin/../lib/gcc/riscv-nuclei-elf/9.2.0/rv32imafc/ilp32f\libgcc.a(muldf3.o)
                0x000000001ff62f0e                __muldf3
 .text          0x000000001ff634b2      0x8c4 d:/software/yuyin/qiqiyinqiluntai/riscv-nuclei-elf-gcc-9.2.0.0/gcc_fix_raissrc/bin/../lib/gcc/riscv-nuclei-elf/9.2.0/rv32imafc/ilp32f\libgcc.a(subdf3.o)
                0x000000001ff634b2                __subdf3
 .text          0x000000001ff63d76       0x76 d:/software/yuyin/qiqiyinqiluntai/riscv-nuclei-elf-gcc-9.2.0.0/gcc_fix_raissrc/bin/../lib/gcc/riscv-nuclei-elf/9.2.0/rv32imafc/ilp32f\libgcc.a(unorddf2.o)
                0x000000001ff63d76                __unorddf2
 .text          0x000000001ff63dec       0xc4 d:/software/yuyin/qiqiyinqiluntai/riscv-nuclei-elf-gcc-9.2.0.0/gcc_fix_raissrc/bin/../lib/gcc/riscv-nuclei-elf/9.2.0/rv32imafc/ilp32f\libgcc.a(fixdfsi.o)
                0x000000001ff63dec                __fixdfsi
 .text          0x000000001ff63eb0       0x68 d:/software/yuyin/qiqiyinqiluntai/riscv-nuclei-elf-gcc-9.2.0.0/gcc_fix_raissrc/bin/../lib/gcc/riscv-nuclei-elf/9.2.0/rv32imafc/ilp32f\libgcc.a(floatsidf.o)
                0x000000001ff63eb0                __floatsidf
 .text          0x000000001ff63f18       0xbc d:/software/yuyin/qiqiyinqiluntai/riscv-nuclei-elf-gcc-9.2.0.0/gcc_fix_raissrc/bin/../lib/gcc/riscv-nuclei-elf/9.2.0/rv32imafc/ilp32f\libgcc.a(extendsfdf2.o)
                0x000000001ff63f18                __extendsfdf2
 .text          0x000000001ff63fd4      0x20e d:/software/yuyin/qiqiyinqiluntai/riscv-nuclei-elf-gcc-9.2.0.0/gcc_fix_raissrc/bin/../lib/gcc/riscv-nuclei-elf/9.2.0/rv32imafc/ilp32f\libgcc.a(truncdfsf2.o)
                0x000000001ff63fd4                __truncdfsf2
 .text          0x000000001ff641e2       0x3c d:/software/yuyin/qiqiyinqiluntai/riscv-nuclei-elf-gcc-9.2.0.0/gcc_fix_raissrc/bin/../lib/gcc/riscv-nuclei-elf/9.2.0/rv32imafc/ilp32f\libgcc.a(_clzsi2.o)
                0x000000001ff641e2                __clzsi2
 .text.atexit   0x000000001ff6421e        0xa d:/software/yuyin/qiqiyinqiluntai/riscv-nuclei-elf-gcc-9.2.0.0/gcc_fix_raissrc/bin/../lib/gcc/riscv-nuclei-elf/9.2.0/../../../../riscv-nuclei-elf/lib/rv32imafc/ilp32f\libg_nano.a(lib_a-atexit.o)
                0x000000001ff6421e                atexit
 .text.exit     0x000000001ff64228       0x26 d:/software/yuyin/qiqiyinqiluntai/riscv-nuclei-elf-gcc-9.2.0.0/gcc_fix_raissrc/bin/../lib/gcc/riscv-nuclei-elf/9.2.0/../../../../riscv-nuclei-elf/lib/rv32imafc/ilp32f\libg_nano.a(lib_a-exit.o)
                0x000000001ff64228                exit
 .text.__libc_fini_array
                0x000000001ff6424e       0x3a d:/software/yuyin/qiqiyinqiluntai/riscv-nuclei-elf-gcc-9.2.0.0/gcc_fix_raissrc/bin/../lib/gcc/riscv-nuclei-elf/9.2.0/../../../../riscv-nuclei-elf/lib/rv32imafc/ilp32f\libg_nano.a(lib_a-fini.o)
                0x000000001ff6424e                __libc_fini_array
 .text.__libc_init_array
                0x000000001ff64288       0x6e d:/software/yuyin/qiqiyinqiluntai/riscv-nuclei-elf-gcc-9.2.0.0/gcc_fix_raissrc/bin/../lib/gcc/riscv-nuclei-elf/9.2.0/../../../../riscv-nuclei-elf/lib/rv32imafc/ilp32f\libg_nano.a(lib_a-init.o)
                0x000000001ff64288                __libc_init_array
 .text.__register_exitproc
                0x000000001ff642f6       0x7c d:/software/yuyin/qiqiyinqiluntai/riscv-nuclei-elf-gcc-9.2.0.0/gcc_fix_raissrc/bin/../lib/gcc/riscv-nuclei-elf/9.2.0/../../../../riscv-nuclei-elf/lib/rv32imafc/ilp32f\libg_nano.a(lib_a-__atexit.o)
                0x000000001ff642f6                __register_exitproc
 .text.__call_exitprocs
                0x000000001ff64372       0xc4 d:/software/yuyin/qiqiyinqiluntai/riscv-nuclei-elf-gcc-9.2.0.0/gcc_fix_raissrc/bin/../lib/gcc/riscv-nuclei-elf/9.2.0/../../../../riscv-nuclei-elf/lib/rv32imafc/ilp32f\libg_nano.a(lib_a-__call_atexit.o)
                0x000000001ff64372                __call_exitprocs
 .text.calloc   0x000000001ff64436        0xa d:/software/yuyin/qiqiyinqiluntai/riscv-nuclei-elf-gcc-9.2.0.0/gcc_fix_raissrc/bin/../lib/gcc/riscv-nuclei-elf/9.2.0/../../../../riscv-nuclei-elf/lib/rv32imafc/ilp32f\libg_nano.a(lib_a-calloc.o)
                0x000000001ff64436                calloc
 .text.fprintf  0x000000001ff64440       0x24 d:/software/yuyin/qiqiyinqiluntai/riscv-nuclei-elf-gcc-9.2.0.0/gcc_fix_raissrc/bin/../lib/gcc/riscv-nuclei-elf/9.2.0/../../../../riscv-nuclei-elf/lib/rv32imafc/ilp32f\libg_nano.a(lib_a-fprintf.o)
                0x000000001ff64440                fiprintf
                0x000000001ff64440                fprintf
 .text._calloc_r
                0x000000001ff64464       0x26 d:/software/yuyin/qiqiyinqiluntai/riscv-nuclei-elf-gcc-9.2.0.0/gcc_fix_raissrc/bin/../lib/gcc/riscv-nuclei-elf/9.2.0/../../../../riscv-nuclei-elf/lib/rv32imafc/ilp32f\libg_nano.a(lib_a-nano-callocr.o)
                0x000000001ff64464                _calloc_r
 .text._malloc_r
                0x000000001ff6448a       0xd8 d:/software/yuyin/qiqiyinqiluntai/riscv-nuclei-elf-gcc-9.2.0.0/gcc_fix_raissrc/bin/../lib/gcc/riscv-nuclei-elf/9.2.0/../../../../riscv-nuclei-elf/lib/rv32imafc/ilp32f\libg_nano.a(lib_a-nano-mallocr.o)
                0x000000001ff6448a                _malloc_r
 .text.__sfputc_r
                0x000000001ff64562       0x28 d:/software/yuyin/qiqiyinqiluntai/riscv-nuclei-elf-gcc-9.2.0.0/gcc_fix_raissrc/bin/../lib/gcc/riscv-nuclei-elf/9.2.0/../../../../riscv-nuclei-elf/lib/rv32imafc/ilp32f\libg_nano.a(lib_a-nano-vfprintf.o)
 .text.__sfputs_r
                0x000000001ff6458a       0x44 d:/software/yuyin/qiqiyinqiluntai/riscv-nuclei-elf-gcc-9.2.0.0/gcc_fix_raissrc/bin/../lib/gcc/riscv-nuclei-elf/9.2.0/../../../../riscv-nuclei-elf/lib/rv32imafc/ilp32f\libg_nano.a(lib_a-nano-vfprintf.o)
                0x000000001ff6458a                __sfputs_r
 .text._vfprintf_r
                0x000000001ff645ce      0x2a0 d:/software/yuyin/qiqiyinqiluntai/riscv-nuclei-elf-gcc-9.2.0.0/gcc_fix_raissrc/bin/../lib/gcc/riscv-nuclei-elf/9.2.0/../../../../riscv-nuclei-elf/lib/rv32imafc/ilp32f\libg_nano.a(lib_a-nano-vfprintf.o)
                0x000000001ff645ce                _vfprintf_r
                0x000000001ff645ce                _vfiprintf_r
 .text.realloc  0x000000001ff6486e        0xc d:/software/yuyin/qiqiyinqiluntai/riscv-nuclei-elf-gcc-9.2.0.0/gcc_fix_raissrc/bin/../lib/gcc/riscv-nuclei-elf/9.2.0/../../../../riscv-nuclei-elf/lib/rv32imafc/ilp32f\libg_nano.a(lib_a-realloc.o)
                0x000000001ff6486e                realloc
 .text._sbrk_r  0x000000001ff6487a       0x30 d:/software/yuyin/qiqiyinqiluntai/riscv-nuclei-elf-gcc-9.2.0.0/gcc_fix_raissrc/bin/../lib/gcc/riscv-nuclei-elf/9.2.0/../../../../riscv-nuclei-elf/lib/rv32imafc/ilp32f\libg_nano.a(lib_a-sbrkr.o)
                0x000000001ff6487a                _sbrk_r
 .text.__swbuf_r
                0x000000001ff648aa       0xc0 d:/software/yuyin/qiqiyinqiluntai/riscv-nuclei-elf-gcc-9.2.0.0/gcc_fix_raissrc/bin/../lib/gcc/riscv-nuclei-elf/9.2.0/../../../../riscv-nuclei-elf/lib/rv32imafc/ilp32f\libg_nano.a(lib_a-wbuf.o)
                0x000000001ff648aa                __swbuf_r
 .text.__swsetup_r
                0x000000001ff6496a      0x106 d:/software/yuyin/qiqiyinqiluntai/riscv-nuclei-elf-gcc-9.2.0.0/gcc_fix_raissrc/bin/../lib/gcc/riscv-nuclei-elf/9.2.0/../../../../riscv-nuclei-elf/lib/rv32imafc/ilp32f\libg_nano.a(lib_a-wsetup.o)
                0x000000001ff6496a                __swsetup_r
 .text.__sflush_r
                0x000000001ff64a70      0x14a d:/software/yuyin/qiqiyinqiluntai/riscv-nuclei-elf-gcc-9.2.0.0/gcc_fix_raissrc/bin/../lib/gcc/riscv-nuclei-elf/9.2.0/../../../../riscv-nuclei-elf/lib/rv32imafc/ilp32f\libg_nano.a(lib_a-fflush.o)
                0x000000001ff64a70                __sflush_r
 .text._fflush_r
                0x000000001ff64bba       0x66 d:/software/yuyin/qiqiyinqiluntai/riscv-nuclei-elf-gcc-9.2.0.0/gcc_fix_raissrc/bin/../lib/gcc/riscv-nuclei-elf/9.2.0/../../../../riscv-nuclei-elf/lib/rv32imafc/ilp32f\libg_nano.a(lib_a-fflush.o)
                0x000000001ff64bba                _fflush_r
 .text.std      0x000000001ff64c20       0x6a d:/software/yuyin/qiqiyinqiluntai/riscv-nuclei-elf-gcc-9.2.0.0/gcc_fix_raissrc/bin/../lib/gcc/riscv-nuclei-elf/9.2.0/../../../../riscv-nuclei-elf/lib/rv32imafc/ilp32f\libg_nano.a(lib_a-findfp.o)
 .text._cleanup_r
                0x000000001ff64c8a        0xa d:/software/yuyin/qiqiyinqiluntai/riscv-nuclei-elf-gcc-9.2.0.0/gcc_fix_raissrc/bin/../lib/gcc/riscv-nuclei-elf/9.2.0/../../../../riscv-nuclei-elf/lib/rv32imafc/ilp32f\libg_nano.a(lib_a-findfp.o)
                0x000000001ff64c8a                _cleanup_r
 .text.__sfmoreglue
                0x000000001ff64c94       0x48 d:/software/yuyin/qiqiyinqiluntai/riscv-nuclei-elf-gcc-9.2.0.0/gcc_fix_raissrc/bin/../lib/gcc/riscv-nuclei-elf/9.2.0/../../../../riscv-nuclei-elf/lib/rv32imafc/ilp32f\libg_nano.a(lib_a-findfp.o)
                0x000000001ff64c94                __sfmoreglue
 .text.__sinit  0x000000001ff64cdc       0x6c d:/software/yuyin/qiqiyinqiluntai/riscv-nuclei-elf-gcc-9.2.0.0/gcc_fix_raissrc/bin/../lib/gcc/riscv-nuclei-elf/9.2.0/../../../../riscv-nuclei-elf/lib/rv32imafc/ilp32f\libg_nano.a(lib_a-findfp.o)
                0x000000001ff64cdc                __sinit
 .text.__sfp    0x000000001ff64d48       0x9e d:/software/yuyin/qiqiyinqiluntai/riscv-nuclei-elf-gcc-9.2.0.0/gcc_fix_raissrc/bin/../lib/gcc/riscv-nuclei-elf/9.2.0/../../../../riscv-nuclei-elf/lib/rv32imafc/ilp32f\libg_nano.a(lib_a-findfp.o)
                0x000000001ff64d48                __sfp
 .text._fwalk_reent
                0x000000001ff64de6       0x6a d:/software/yuyin/qiqiyinqiluntai/riscv-nuclei-elf-gcc-9.2.0.0/gcc_fix_raissrc/bin/../lib/gcc/riscv-nuclei-elf/9.2.0/../../../../riscv-nuclei-elf/lib/rv32imafc/ilp32f\libg_nano.a(lib_a-fwalk.o)
                0x000000001ff64de6                _fwalk_reent
 .text.__swhatbuf_r
                0x000000001ff64e50       0x5a d:/software/yuyin/qiqiyinqiluntai/riscv-nuclei-elf-gcc-9.2.0.0/gcc_fix_raissrc/bin/../lib/gcc/riscv-nuclei-elf/9.2.0/../../../../riscv-nuclei-elf/lib/rv32imafc/ilp32f\libg_nano.a(lib_a-makebuf.o)
                0x000000001ff64e50                __swhatbuf_r
 .text.__smakebuf_r
                0x000000001ff64eaa       0xa0 d:/software/yuyin/qiqiyinqiluntai/riscv-nuclei-elf-gcc-9.2.0.0/gcc_fix_raissrc/bin/../lib/gcc/riscv-nuclei-elf/9.2.0/../../../../riscv-nuclei-elf/lib/rv32imafc/ilp32f\libg_nano.a(lib_a-makebuf.o)
                0x000000001ff64eaa                __smakebuf_r
 .text.memchr   0x000000001ff64f4a       0x1a d:/software/yuyin/qiqiyinqiluntai/riscv-nuclei-elf-gcc-9.2.0.0/gcc_fix_raissrc/bin/../lib/gcc/riscv-nuclei-elf/9.2.0/../../../../riscv-nuclei-elf/lib/rv32imafc/ilp32f\libg_nano.a(lib_a-memchr.o)
                0x000000001ff64f4a                memchr
 .text._free_r  0x000000001ff64f64       0xa6 d:/software/yuyin/qiqiyinqiluntai/riscv-nuclei-elf-gcc-9.2.0.0/gcc_fix_raissrc/bin/../lib/gcc/riscv-nuclei-elf/9.2.0/../../../../riscv-nuclei-elf/lib/rv32imafc/ilp32f\libg_nano.a(lib_a-nano-freer.o)
                0x000000001ff64f64                _free_r
 .text._realloc_r
                0x000000001ff6500a       0x64 d:/software/yuyin/qiqiyinqiluntai/riscv-nuclei-elf-gcc-9.2.0.0/gcc_fix_raissrc/bin/../lib/gcc/riscv-nuclei-elf/9.2.0/../../../../riscv-nuclei-elf/lib/rv32imafc/ilp32f\libg_nano.a(lib_a-nano-reallocr.o)
                0x000000001ff6500a                _realloc_r
 .text._printf_common
                0x000000001ff6506e      0x10c d:/software/yuyin/qiqiyinqiluntai/riscv-nuclei-elf-gcc-9.2.0.0/gcc_fix_raissrc/bin/../lib/gcc/riscv-nuclei-elf/9.2.0/../../../../riscv-nuclei-elf/lib/rv32imafc/ilp32f\libg_nano.a(lib_a-nano-vfprintf_i.o)
                0x000000001ff6506e                _printf_common
 .text._printf_i
                0x000000001ff6517a      0x276 d:/software/yuyin/qiqiyinqiluntai/riscv-nuclei-elf-gcc-9.2.0.0/gcc_fix_raissrc/bin/../lib/gcc/riscv-nuclei-elf/9.2.0/../../../../riscv-nuclei-elf/lib/rv32imafc/ilp32f\libg_nano.a(lib_a-nano-vfprintf_i.o)
                0x000000001ff6517a                _printf_i
 .text.__sread  0x000000001ff653f0       0x30 d:/software/yuyin/qiqiyinqiluntai/riscv-nuclei-elf-gcc-9.2.0.0/gcc_fix_raissrc/bin/../lib/gcc/riscv-nuclei-elf/9.2.0/../../../../riscv-nuclei-elf/lib/rv32imafc/ilp32f\libg_nano.a(lib_a-stdio.o)
                0x000000001ff653f0                __sread
 .text.__swrite
                0x000000001ff65420       0x4e d:/software/yuyin/qiqiyinqiluntai/riscv-nuclei-elf-gcc-9.2.0.0/gcc_fix_raissrc/bin/../lib/gcc/riscv-nuclei-elf/9.2.0/../../../../riscv-nuclei-elf/lib/rv32imafc/ilp32f\libg_nano.a(lib_a-stdio.o)
                0x000000001ff65420                __swrite
 .text.__sseek  0x000000001ff6546e       0x36 d:/software/yuyin/qiqiyinqiluntai/riscv-nuclei-elf-gcc-9.2.0.0/gcc_fix_raissrc/bin/../lib/gcc/riscv-nuclei-elf/9.2.0/../../../../riscv-nuclei-elf/lib/rv32imafc/ilp32f\libg_nano.a(lib_a-stdio.o)
                0x000000001ff6546e                __sseek
 .text.__sclose
                0x000000001ff654a4        0x6 d:/software/yuyin/qiqiyinqiluntai/riscv-nuclei-elf-gcc-9.2.0.0/gcc_fix_raissrc/bin/../lib/gcc/riscv-nuclei-elf/9.2.0/../../../../riscv-nuclei-elf/lib/rv32imafc/ilp32f\libg_nano.a(lib_a-stdio.o)
                0x000000001ff654a4                __sclose
 .text._write_r
                0x000000001ff654aa       0x32 d:/software/yuyin/qiqiyinqiluntai/riscv-nuclei-elf-gcc-9.2.0.0/gcc_fix_raissrc/bin/../lib/gcc/riscv-nuclei-elf/9.2.0/../../../../riscv-nuclei-elf/lib/rv32imafc/ilp32f\libg_nano.a(lib_a-writer.o)
                0x000000001ff654aa                _write_r
 .text._close_r
                0x000000001ff654dc       0x2e d:/software/yuyin/qiqiyinqiluntai/riscv-nuclei-elf-gcc-9.2.0.0/gcc_fix_raissrc/bin/../lib/gcc/riscv-nuclei-elf/9.2.0/../../../../riscv-nuclei-elf/lib/rv32imafc/ilp32f\libg_nano.a(lib_a-closer.o)
                0x000000001ff654dc                _close_r
 .text._fstat_r
                0x000000001ff6550a       0x30 d:/software/yuyin/qiqiyinqiluntai/riscv-nuclei-elf-gcc-9.2.0.0/gcc_fix_raissrc/bin/../lib/gcc/riscv-nuclei-elf/9.2.0/../../../../riscv-nuclei-elf/lib/rv32imafc/ilp32f\libg_nano.a(lib_a-fstatr.o)
                0x000000001ff6550a                _fstat_r
 .text._isatty_r
                0x000000001ff6553a       0x2e d:/software/yuyin/qiqiyinqiluntai/riscv-nuclei-elf-gcc-9.2.0.0/gcc_fix_raissrc/bin/../lib/gcc/riscv-nuclei-elf/9.2.0/../../../../riscv-nuclei-elf/lib/rv32imafc/ilp32f\libg_nano.a(lib_a-isattyr.o)
                0x000000001ff6553a                _isatty_r
 .text._lseek_r
                0x000000001ff65568       0x32 d:/software/yuyin/qiqiyinqiluntai/riscv-nuclei-elf-gcc-9.2.0.0/gcc_fix_raissrc/bin/../lib/gcc/riscv-nuclei-elf/9.2.0/../../../../riscv-nuclei-elf/lib/rv32imafc/ilp32f\libg_nano.a(lib_a-lseekr.o)
                0x000000001ff65568                _lseek_r
 .text._malloc_usable_size_r
                0x000000001ff6559a       0x14 d:/software/yuyin/qiqiyinqiluntai/riscv-nuclei-elf-gcc-9.2.0.0/gcc_fix_raissrc/bin/../lib/gcc/riscv-nuclei-elf/9.2.0/../../../../riscv-nuclei-elf/lib/rv32imafc/ilp32f\libg_nano.a(lib_a-nano-msizer.o)
                0x000000001ff6559a                _malloc_usable_size_r
 .text._read_r  0x000000001ff655ae       0x32 d:/software/yuyin/qiqiyinqiluntai/riscv-nuclei-elf-gcc-9.2.0.0/gcc_fix_raissrc/bin/../lib/gcc/riscv-nuclei-elf/9.2.0/../../../../riscv-nuclei-elf/lib/rv32imafc/ilp32f\libg_nano.a(lib_a-readr.o)
                0x000000001ff655ae                _read_r
 .text._exit    0x000000001ff655e0       0x2a d:/software/yuyin/qiqiyinqiluntai/riscv-nuclei-elf-gcc-9.2.0.0/gcc_fix_raissrc/bin/../lib/gcc/riscv-nuclei-elf/9.2.0/../../../../riscv-nuclei-elf/lib/rv32imafc/ilp32f\libgloss_nano.a(sys_exit.o)
                0x000000001ff655e0                _exit
 .text._close   0x000000001ff6560a       0x32 d:/software/yuyin/qiqiyinqiluntai/riscv-nuclei-elf-gcc-9.2.0.0/gcc_fix_raissrc/bin/../lib/gcc/riscv-nuclei-elf/9.2.0/../../../../riscv-nuclei-elf/lib/rv32imafc/ilp32f\libgloss_nano.a(sys_close.o)
                0x000000001ff6560a                _close
 .text._fstat   0x000000001ff6563c       0x3e d:/software/yuyin/qiqiyinqiluntai/riscv-nuclei-elf-gcc-9.2.0.0/gcc_fix_raissrc/bin/../lib/gcc/riscv-nuclei-elf/9.2.0/../../../../riscv-nuclei-elf/lib/rv32imafc/ilp32f\libgloss_nano.a(sys_fstat.o)
                0x000000001ff6563c                _fstat
 .text._isatty  0x000000001ff6567a       0x20 d:/software/yuyin/qiqiyinqiluntai/riscv-nuclei-elf-gcc-9.2.0.0/gcc_fix_raissrc/bin/../lib/gcc/riscv-nuclei-elf/9.2.0/../../../../riscv-nuclei-elf/lib/rv32imafc/ilp32f\libgloss_nano.a(sys_isatty.o)
                0x000000001ff6567a                _isatty
 .text._lseek   0x000000001ff6569a       0x2e d:/software/yuyin/qiqiyinqiluntai/riscv-nuclei-elf-gcc-9.2.0.0/gcc_fix_raissrc/bin/../lib/gcc/riscv-nuclei-elf/9.2.0/../../../../riscv-nuclei-elf/lib/rv32imafc/ilp32f\libgloss_nano.a(sys_lseek.o)
                0x000000001ff6569a                _lseek
 .text._read    0x000000001ff656c8       0x2e d:/software/yuyin/qiqiyinqiluntai/riscv-nuclei-elf-gcc-9.2.0.0/gcc_fix_raissrc/bin/../lib/gcc/riscv-nuclei-elf/9.2.0/../../../../riscv-nuclei-elf/lib/rv32imafc/ilp32f\libgloss_nano.a(sys_read.o)
                0x000000001ff656c8                _read
 .text._write   0x000000001ff656f6       0x2e d:/software/yuyin/qiqiyinqiluntai/riscv-nuclei-elf-gcc-9.2.0.0/gcc_fix_raissrc/bin/../lib/gcc/riscv-nuclei-elf/9.2.0/../../../../riscv-nuclei-elf/lib/rv32imafc/ilp32f\libgloss_nano.a(sys_write.o)
                0x000000001ff656f6                _write
 .text._conv_stat
                0x000000001ff65724       0x4e d:/software/yuyin/qiqiyinqiluntai/riscv-nuclei-elf-gcc-9.2.0.0/gcc_fix_raissrc/bin/../lib/gcc/riscv-nuclei-elf/9.2.0/../../../../riscv-nuclei-elf/lib/rv32imafc/ilp32f\libgloss_nano.a(sys_conv_stat.o)
                0x000000001ff65724                _conv_stat
 .text.__errno  0x000000001ff65772        0x6 d:/software/yuyin/qiqiyinqiluntai/riscv-nuclei-elf-gcc-9.2.0.0/gcc_fix_raissrc/bin/../lib/gcc/riscv-nuclei-elf/9.2.0/../../../../riscv-nuclei-elf/lib/rv32imafc/ilp32f\libc_nano.a(lib_a-errno.o)
                0x000000001ff65772                __errno
 .text          0x000000001ff65778      0x158 d:/software/yuyin/qiqiyinqiluntai/riscv-nuclei-elf-gcc-9.2.0.0/gcc_fix_raissrc/bin/../lib/gcc/riscv-nuclei-elf/9.2.0/../../../../riscv-nuclei-elf/lib/rv32imafc/ilp32f\libm.a(lib_a-s_floor.o)
                0x000000001ff65778                floor
 .text          0x000000001ff658d0       0xbe d:/software/yuyin/qiqiyinqiluntai/riscv-nuclei-elf-gcc-9.2.0.0/gcc_fix_raissrc/bin/../lib/gcc/riscv-nuclei-elf/9.2.0/../../../../riscv-nuclei-elf/lib/rv32imafc/ilp32f\libm.a(lib_a-w_acos.o)
                0x000000001ff658d0                acos
 .text          0x000000001ff6598e      0x10a d:/software/yuyin/qiqiyinqiluntai/riscv-nuclei-elf-gcc-9.2.0.0/gcc_fix_raissrc/bin/../lib/gcc/riscv-nuclei-elf/9.2.0/../../../../riscv-nuclei-elf/lib/rv32imafc/ilp32f\libm.a(lib_a-w_exp.o)
                0x000000001ff6598e                exp
 .text          0x000000001ff65a98      0x31e d:/software/yuyin/qiqiyinqiluntai/riscv-nuclei-elf-gcc-9.2.0.0/gcc_fix_raissrc/bin/../lib/gcc/riscv-nuclei-elf/9.2.0/../../../../riscv-nuclei-elf/lib/rv32imafc/ilp32f\libm.a(lib_a-wf_pow.o)
                0x000000001ff65a98                powf
 .text          0x000000001ff65db6      0x112 d:/software/yuyin/qiqiyinqiluntai/riscv-nuclei-elf-gcc-9.2.0.0/gcc_fix_raissrc/bin/../lib/gcc/riscv-nuclei-elf/9.2.0/../../../../riscv-nuclei-elf/lib/rv32imafc/ilp32f\libm.a(lib_a-w_log.o)
                0x000000001ff65db6                log
 .text          0x000000001ff65ec8       0xb6 d:/software/yuyin/qiqiyinqiluntai/riscv-nuclei-elf-gcc-9.2.0.0/gcc_fix_raissrc/bin/../lib/gcc/riscv-nuclei-elf/9.2.0/../../../../riscv-nuclei-elf/lib/rv32imafc/ilp32f\libm.a(lib_a-w_sqrt.o)
                0x000000001ff65ec8                sqrt
 .text          0x000000001ff65f7e      0x4e8 d:/software/yuyin/qiqiyinqiluntai/riscv-nuclei-elf-gcc-9.2.0.0/gcc_fix_raissrc/bin/../lib/gcc/riscv-nuclei-elf/9.2.0/../../../../riscv-nuclei-elf/lib/rv32imafc/ilp32f\libm.a(lib_a-e_acos.o)
                0x000000001ff65f7e                __ieee754_acos
 .text          0x000000001ff66466      0x3d4 d:/software/yuyin/qiqiyinqiluntai/riscv-nuclei-elf-gcc-9.2.0.0/gcc_fix_raissrc/bin/../lib/gcc/riscv-nuclei-elf/9.2.0/../../../../riscv-nuclei-elf/lib/rv32imafc/ilp32f\libm.a(lib_a-e_exp.o)
                0x000000001ff66466                __ieee754_exp
 .text          0x000000001ff6683a      0x652 d:/software/yuyin/qiqiyinqiluntai/riscv-nuclei-elf-gcc-9.2.0.0/gcc_fix_raissrc/bin/../lib/gcc/riscv-nuclei-elf/9.2.0/../../../../riscv-nuclei-elf/lib/rv32imafc/ilp32f\libm.a(lib_a-ef_pow.o)
                0x000000001ff6683a                __ieee754_powf
 .text          0x000000001ff66e8c       0xc6 d:/software/yuyin/qiqiyinqiluntai/riscv-nuclei-elf-gcc-9.2.0.0/gcc_fix_raissrc/bin/../lib/gcc/riscv-nuclei-elf/9.2.0/../../../../riscv-nuclei-elf/lib/rv32imafc/ilp32f\libm.a(lib_a-ef_sqrt.o)
                0x000000001ff66e8c                __ieee754_sqrtf
 .text          0x000000001ff66f52      0x41e d:/software/yuyin/qiqiyinqiluntai/riscv-nuclei-elf-gcc-9.2.0.0/gcc_fix_raissrc/bin/../lib/gcc/riscv-nuclei-elf/9.2.0/../../../../riscv-nuclei-elf/lib/rv32imafc/ilp32f\libm.a(lib_a-e_log.o)
                0x000000001ff66f52                __ieee754_log
 .text          0x000000001ff67370      0x1c4 d:/software/yuyin/qiqiyinqiluntai/riscv-nuclei-elf-gcc-9.2.0.0/gcc_fix_raissrc/bin/../lib/gcc/riscv-nuclei-elf/9.2.0/../../../../riscv-nuclei-elf/lib/rv32imafc/ilp32f\libm.a(lib_a-e_sqrt.o)
                0x000000001ff67370                __ieee754_sqrt
 .text          0x000000001ff67534        0x6 d:/software/yuyin/qiqiyinqiluntai/riscv-nuclei-elf-gcc-9.2.0.0/gcc_fix_raissrc/bin/../lib/gcc/riscv-nuclei-elf/9.2.0/../../../../riscv-nuclei-elf/lib/rv32imafc/ilp32f\libm.a(lib_a-s_fabs.o)
                0x000000001ff67534                fabs
 .text          0x000000001ff6753a       0x12 d:/software/yuyin/qiqiyinqiluntai/riscv-nuclei-elf-gcc-9.2.0.0/gcc_fix_raissrc/bin/../lib/gcc/riscv-nuclei-elf/9.2.0/../../../../riscv-nuclei-elf/lib/rv32imafc/ilp32f\libm.a(lib_a-sf_finite.o)
                0x000000001ff6753a                finitef
 .text          0x000000001ff6754c        0xe d:/software/yuyin/qiqiyinqiluntai/riscv-nuclei-elf-gcc-9.2.0.0/gcc_fix_raissrc/bin/../lib/gcc/riscv-nuclei-elf/9.2.0/../../../../riscv-nuclei-elf/lib/rv32imafc/ilp32f\libm.a(lib_a-s_finite.o)
                0x000000001ff6754c                finite
 .text          0x000000001ff6755a        0xa d:/software/yuyin/qiqiyinqiluntai/riscv-nuclei-elf-gcc-9.2.0.0/gcc_fix_raissrc/bin/../lib/gcc/riscv-nuclei-elf/9.2.0/../../../../riscv-nuclei-elf/lib/rv32imafc/ilp32f\libm.a(lib_a-sf_nan.o)
                0x000000001ff6755a                nanf
 .text          0x000000001ff67564       0xd2 d:/software/yuyin/qiqiyinqiluntai/riscv-nuclei-elf-gcc-9.2.0.0/gcc_fix_raissrc/bin/../lib/gcc/riscv-nuclei-elf/9.2.0/../../../../riscv-nuclei-elf/lib/rv32imafc/ilp32f\libm.a(lib_a-sf_rint.o)
                0x000000001ff67564                rintf
 .text          0x000000001ff67636       0xfe d:/software/yuyin/qiqiyinqiluntai/riscv-nuclei-elf-gcc-9.2.0.0/gcc_fix_raissrc/bin/../lib/gcc/riscv-nuclei-elf/9.2.0/../../../../riscv-nuclei-elf/lib/rv32imafc/ilp32f\libm.a(lib_a-sf_scalbn.o)
                0x000000001ff67636                scalbnf
 .text          0x000000001ff67734        0x4 d:/software/yuyin/qiqiyinqiluntai/riscv-nuclei-elf-gcc-9.2.0.0/gcc_fix_raissrc/bin/../lib/gcc/riscv-nuclei-elf/9.2.0/../../../../riscv-nuclei-elf/lib/rv32imafc/ilp32f\libm.a(lib_a-s_matherr.o)
                0x000000001ff67734                matherr
 .text          0x000000001ff67738        0xe d:/software/yuyin/qiqiyinqiluntai/riscv-nuclei-elf-gcc-9.2.0.0/gcc_fix_raissrc/bin/../lib/gcc/riscv-nuclei-elf/9.2.0/../../../../riscv-nuclei-elf/lib/rv32imafc/ilp32f\libm.a(lib_a-s_nan.o)
                0x000000001ff67738                nan
 .text          0x000000001ff67746       0x1c d:/software/yuyin/qiqiyinqiluntai/riscv-nuclei-elf-gcc-9.2.0.0/gcc_fix_raissrc/bin/../lib/gcc/riscv-nuclei-elf/9.2.0/../../../../riscv-nuclei-elf/lib/rv32imafc/ilp32f\libm.a(lib_a-sf_copysign.o)
                0x000000001ff67746                copysignf
 *(.gnu.linkonce.t.*)

.fini
 *(SORT_NONE(.fini))
                0x000000001ff67764                . = ALIGN (0x4)
                [!provide]                        PROVIDE (__etext = .)
                [!provide]                        PROVIDE (_etext = .)
                [!provide]                        PROVIDE (etext = .)
                0x000000001ff67764                PROVIDE (_eilm = .)

.preinit_array  0x000000001ff67762        0x0
                0x000000001ff67762                PROVIDE (__preinit_array_start = .)
 *(.preinit_array)
                0x000000001ff67762                PROVIDE (__preinit_array_end = .)

.init_array     0x000000001ff67762        0x0
                0x000000001ff67762                PROVIDE (__init_array_start = .)
 *(SORT_BY_INIT_PRIORITY(.init_array.*) SORT_BY_INIT_PRIORITY(.ctors.*))
 *(.init_array EXCLUDE_FILE(*crtend?.o *crtend.o *crtbegin?.o *crtbegin.o) .ctors)
                0x000000001ff67762                PROVIDE (__init_array_end = .)

.fini_array     0x000000001ff67762        0x0
                0x000000001ff67762                PROVIDE (__fini_array_start = .)
 *(SORT_BY_INIT_PRIORITY(.fini_array.*) SORT_BY_INIT_PRIORITY(.dtors.*))
 *(.fini_array EXCLUDE_FILE(*crtend?.o *crtend.o *crtbegin?.o *crtbegin.o) .dtors)
                0x000000001ff67762                PROVIDE (__fini_array_end = .)

.ctors
 *crtbegin.o(.ctors)
 *crtbegin?.o(.ctors)
 *(EXCLUDE_FILE(*crtend?.o *crtend.o) .ctors)
 *(SORT_BY_NAME(.ctors.*))
 *(.ctors)

.dtors
 *crtbegin.o(.dtors)
 *crtbegin?.o(.dtors)
 *(EXCLUDE_FILE(*crtend?.o *crtend.o) .dtors)
 *(SORT_BY_NAME(.dtors.*))
 *(.dtors)

.ro_data        0x000000001ff67768     0x4f10
 *(.rdata)
 *(.rodata .rodata.*)
 .rodata.speex_warning_int.lto_priv.0.str1.4
                0x000000001ff67768       0x10 C:\TMP\nn_denoise_rtc_sample.elf.zkP8Mf.ltrans0.ltrans.o
 .rodata.nb_mode_query.str1.4
                0x000000001ff67778       0x20 C:\TMP\nn_denoise_rtc_sample.elf.zkP8Mf.ltrans0.ltrans.o
 .rodata.wb_mode_query.str1.4
                0x000000001ff67798       0x20 C:\TMP\nn_denoise_rtc_sample.elf.zkP8Mf.ltrans0.ltrans.o
 .rodata._speex_fatal.constprop.0.str1.4
                0x000000001ff677b8       0x5f C:\TMP\nn_denoise_rtc_sample.elf.zkP8Mf.ltrans0.ltrans.o
 *fill*         0x000000001ff67817        0x1 
 .rodata.nb_decoder_ctl.str1.4
                0x000000001ff67818       0x19 C:\TMP\nn_denoise_rtc_sample.elf.zkP8Mf.ltrans0.ltrans.o
 *fill*         0x000000001ff67831        0x3 
 .rodata.nb_decoder_ctl
                0x000000001ff67834       0xdc C:\TMP\nn_denoise_rtc_sample.elf.zkP8Mf.ltrans0.ltrans.o
 .rodata.nb_encode.str1.4
                0x000000001ff67910       0x54 C:\TMP\nn_denoise_rtc_sample.elf.zkP8Mf.ltrans0.ltrans.o
 .rodata.dpmu_set_io_reuse
                0x000000001ff67964       0x60 C:\TMP\nn_denoise_rtc_sample.elf.zkP8Mf.ltrans0.ltrans.o
 .rodata.sb_decoder_ctl
                0x000000001ff679c4       0xdc C:\TMP\nn_denoise_rtc_sample.elf.zkP8Mf.ltrans0.ltrans.o
 .rodata.sb_encoder_ctl
                0x000000001ff67aa0       0xc8 C:\TMP\nn_denoise_rtc_sample.elf.zkP8Mf.ltrans0.ltrans.o
 .rodata.nb_encoder_ctl
                0x000000001ff67b68       0xc8 C:\TMP\nn_denoise_rtc_sample.elf.zkP8Mf.ltrans0.ltrans.o
 .rodata.speex_notify.lto_priv.0.lto_priv.0.str1.4
                0x000000001ff67c30       0x12 C:\TMP\nn_denoise_rtc_sample.elf.zkP8Mf.ltrans0.ltrans.o
 *fill*         0x000000001ff67c42        0x2 
 .rodata.sb_decode.str1.4
                0x000000001ff67c44       0x33 C:\TMP\nn_denoise_rtc_sample.elf.zkP8Mf.ltrans0.ltrans.o
 *fill*         0x000000001ff67c77        0x1 
 .rodata.nb_decode.str1.4
                0x000000001ff67c78       0x96 C:\TMP\nn_denoise_rtc_sample.elf.zkP8Mf.ltrans0.ltrans.o
 *fill*         0x000000001ff67d0e        0x2 
 .rodata.prompt_play_by_cmd_string.constprop.0.str1.4
                0x000000001ff67d10       0x10 C:\TMP\nn_denoise_rtc_sample.elf.zkP8Mf.ltrans0.ltrans.o
 .rodata.IISDMA_ChannelIntENConfig.constprop.0.str1.4
                0x000000001ff67d20       0x1f C:\TMP\nn_denoise_rtc_sample.elf.zkP8Mf.ltrans0.ltrans.o
 *fill*         0x000000001ff67d3f        0x1 
 .rodata.cm_write_codec.constprop.0.str1.4
                0x000000001ff67d40       0x72 C:\TMP\nn_denoise_rtc_sample.elf.zkP8Mf.ltrans0.ltrans.o
 *fill*         0x000000001ff67db2        0x2 
 .rodata.cm_get_pcm_buffer.constprop.0.str1.4
                0x000000001ff67db4        0xf C:\TMP\nn_denoise_rtc_sample.elf.zkP8Mf.ltrans0.ltrans.o
 *fill*         0x000000001ff67dc3        0x1 
 .rodata.iis_audio_choose.constprop.0.str1.4
                0x000000001ff67dc4       0x20 C:\TMP\nn_denoise_rtc_sample.elf.zkP8Mf.ltrans0.ltrans.o
 .rodata.iis_audio_choose.constprop.0
                0x000000001ff67de4       0x14 C:\TMP\nn_denoise_rtc_sample.elf.zkP8Mf.ltrans0.ltrans.o
 .rodata.rc_callee_alg_aes_type_tip.str1.4
                0x000000001ff67df8       0x64 C:\TMP\nn_denoise_rtc_sample.elf.zkP8Mf.ltrans0.ltrans.o
 .rodata.rc_callee_npu_ifft_data_handle_in_host.str1.4
                0x000000001ff67e5c       0x1a C:\TMP\nn_denoise_rtc_sample.elf.zkP8Mf.ltrans0.ltrans.o
 *fill*         0x000000001ff67e76        0x2 
 .rodata.rc_callee_free_in_host.str1.4
                0x000000001ff67e78       0x12 C:\TMP\nn_denoise_rtc_sample.elf.zkP8Mf.ltrans0.ltrans.o
                                         0x16 (size before relaxing)
 *fill*         0x000000001ff67e8a        0x2 
 .rodata.mailbox_send_msg.str1.4
                0x000000001ff67e8c       0x27 C:\TMP\nn_denoise_rtc_sample.elf.zkP8Mf.ltrans0.ltrans.o
 *fill*         0x000000001ff67eb3        0x1 
 .rodata.nuclear_com_send.constprop.0.str1.4
                0x000000001ff67eb4        0xe C:\TMP\nn_denoise_rtc_sample.elf.zkP8Mf.ltrans0.ltrans.o
 *fill*         0x000000001ff67ec2        0x2 
 .rodata.nuclear_com_irq_handler.str1.4
                0x000000001ff67ec4       0x20 C:\TMP\nn_denoise_rtc_sample.elf.zkP8Mf.ltrans0.ltrans.o
 .rodata.flash_manage_req_wait_op_done_sem.str1.4
                0x000000001ff67ee4        0xd C:\TMP\nn_denoise_rtc_sample.elf.zkP8Mf.ltrans0.ltrans.o
 *fill*         0x000000001ff67ef1        0x3 
 .rodata.post_erase_flash.constprop.0.str1.4
                0x000000001ff67ef4       0x2b C:\TMP\nn_denoise_rtc_sample.elf.zkP8Mf.ltrans0.ltrans.o
 *fill*         0x000000001ff67f1f        0x1 
 .rodata.decoder_rpmsg_serve_cb.str1.4
                0x000000001ff67f20        0xe C:\TMP\nn_denoise_rtc_sample.elf.zkP8Mf.ltrans0.ltrans.o
 *fill*         0x000000001ff67f2e        0x2 
 .rodata.decoder_rpmsg_serve_cb
                0x000000001ff67f30       0x50 C:\TMP\nn_denoise_rtc_sample.elf.zkP8Mf.ltrans0.ltrans.o
 .rodata.asr_top_outside_serve_cb.str1.4
                0x000000001ff67f80        0xd C:\TMP\nn_denoise_rtc_sample.elf.zkP8Mf.ltrans0.ltrans.o
 *fill*         0x000000001ff67f8d        0x3 
 .rodata.sb_encoder_destroy.str1.4
                0x000000001ff67f90       0x35 C:\TMP\nn_denoise_rtc_sample.elf.zkP8Mf.ltrans0.ltrans.o
 *fill*         0x000000001ff67fc5        0x3 
 .rodata.sb_encoder_init.str1.4
                0x000000001ff67fc8       0x13 C:\TMP\nn_denoise_rtc_sample.elf.zkP8Mf.ltrans0.ltrans.o
 *fill*         0x000000001ff67fdb        0x1 
 .rodata.nb_encoder_destroy.str1.4
                0x000000001ff67fdc       0x19 C:\TMP\nn_denoise_rtc_sample.elf.zkP8Mf.ltrans0.ltrans.o
 *fill*         0x000000001ff67ff5        0x3 
 .rodata.nb_encoder_init.str1.4
                0x000000001ff67ff8       0x13 C:\TMP\nn_denoise_rtc_sample.elf.zkP8Mf.ltrans0.ltrans.o
 *fill*         0x000000001ff6800b        0x1 
 .rodata        0x000000001ff6800c       0x98 C:\TMP\nn_denoise_rtc_sample.elf.zkP8Mf.ltrans0.ltrans.o
 .rodata.__FUNCTION__.5548
                0x000000001ff680a4       0x17 C:\TMP\nn_denoise_rtc_sample.elf.zkP8Mf.ltrans0.ltrans.o
 *fill*         0x000000001ff680bb        0x1 
 .rodata.__FUNCTION__.5769
                0x000000001ff680bc       0x11 C:\TMP\nn_denoise_rtc_sample.elf.zkP8Mf.ltrans0.ltrans.o
 *fill*         0x000000001ff680cd        0x3 
 .rodata.attenuation
                0x000000001ff680d0       0x28 C:\TMP\nn_denoise_rtc_sample.elf.zkP8Mf.ltrans0.ltrans.o
 .rodata.cdbk_nb
                0x000000001ff680f8      0x280 C:\TMP\nn_denoise_rtc_sample.elf.zkP8Mf.ltrans0.ltrans.o
 .rodata.cdbk_nb_high1
                0x000000001ff68378      0x140 C:\TMP\nn_denoise_rtc_sample.elf.zkP8Mf.ltrans0.ltrans.o
 .rodata.cdbk_nb_high2
                0x000000001ff684b8      0x140 C:\TMP\nn_denoise_rtc_sample.elf.zkP8Mf.ltrans0.ltrans.o
 .rodata.cdbk_nb_low1
                0x000000001ff685f8      0x140 C:\TMP\nn_denoise_rtc_sample.elf.zkP8Mf.ltrans0.ltrans.o
 .rodata.cdbk_nb_low2
                0x000000001ff68738      0x140 C:\TMP\nn_denoise_rtc_sample.elf.zkP8Mf.ltrans0.ltrans.o
 .rodata.exc_gain_quant_scal3
                0x000000001ff68878       0x20 C:\TMP\nn_denoise_rtc_sample.elf.zkP8Mf.ltrans0.ltrans.o
 .rodata.exc_gain_quant_scal3_bound
                0x000000001ff68898       0x1c C:\TMP\nn_denoise_rtc_sample.elf.zkP8Mf.ltrans0.ltrans.o
 .rodata.fold_quant_bound
                0x000000001ff688b4       0x80 C:\TMP\nn_denoise_rtc_sample.elf.zkP8Mf.ltrans0.ltrans.o
 .rodata.gc_quant_bound
                0x000000001ff68934       0x40 C:\TMP\nn_denoise_rtc_sample.elf.zkP8Mf.ltrans0.ltrans.o
 .rodata.h0     0x000000001ff68974      0x100 C:\TMP\nn_denoise_rtc_sample.elf.zkP8Mf.ltrans0.ltrans.o
 .rodata.high_lsp_cdbk
                0x000000001ff68a74      0x200 C:\TMP\nn_denoise_rtc_sample.elf.zkP8Mf.ltrans0.ltrans.o
 .rodata.high_lsp_cdbk2
                0x000000001ff68c74      0x200 C:\TMP\nn_denoise_rtc_sample.elf.zkP8Mf.ltrans0.ltrans.o
 .rodata.lag_window
                0x000000001ff68e74       0x2c C:\TMP\nn_denoise_rtc_sample.elf.zkP8Mf.ltrans0.ltrans.o
 .rodata.lpc_window
                0x000000001ff68ea0      0x320 C:\TMP\nn_denoise_rtc_sample.elf.zkP8Mf.ltrans0.ltrans.o
 .rodata.shift_filt
                0x000000001ff691c0       0x54 C:\TMP\nn_denoise_rtc_sample.elf.zkP8Mf.ltrans0.ltrans.o
 .rodata.wb_skip_table
                0x000000001ff69214       0x20 C:\TMP\nn_denoise_rtc_sample.elf.zkP8Mf.ltrans0.ltrans.o
 .rodata.speex_warning.str1.4
                0x000000001ff69234        0xd C:\TMP\nn_denoise_rtc_sample.elf.zkP8Mf.ltrans1.ltrans.o
 *fill*         0x000000001ff69241        0x3 
 .rodata.speex_bits_pack.str1.4
                0x000000001ff69244       0x71 C:\TMP\nn_denoise_rtc_sample.elf.zkP8Mf.ltrans1.ltrans.o
 *fill*         0x000000001ff692b5        0x3 
 .rodata.UART2_IRQHandler.str1.4
                0x000000001ff692b8       0x1a C:\TMP\nn_denoise_rtc_sample.elf.zkP8Mf.ltrans1.ltrans.o
 *fill*         0x000000001ff692d2        0x2 
 .rodata.IIC0_IRQHandler.str1.4
                0x000000001ff692d4       0x1a C:\TMP\nn_denoise_rtc_sample.elf.zkP8Mf.ltrans1.ltrans.o
 *fill*         0x000000001ff692ee        0x2 
 .rodata.iis_wait_load_ctrl.str1.4
                0x000000001ff692f0       0x18 C:\TMP\nn_denoise_rtc_sample.elf.zkP8Mf.ltrans1.ltrans.o
 .rodata.IISxDMA_TADDR1.part.0.str1.4
                0x000000001ff69308       0x1f C:\TMP\nn_denoise_rtc_sample.elf.zkP8Mf.ltrans1.ltrans.o
 .rodata.IISDMA_ADDRRollBackINT.part.0.str1.4
                0x000000001ff69308       0x1d C:\TMP\nn_denoise_rtc_sample.elf.zkP8Mf.ltrans1.ltrans.o
 .rodata.get_iis_dma_channel.str1.4
                0x000000001ff69325       0x16 C:\TMP\nn_denoise_rtc_sample.elf.zkP8Mf.ltrans1.ltrans.o
 *fill*         0x000000001ff69325        0x3 
 .rodata.cm_reg_codec.part.0.str1.4
                0x000000001ff69328       0x11 C:\TMP\nn_denoise_rtc_sample.elf.zkP8Mf.ltrans1.ltrans.o
 *fill*         0x000000001ff69339        0x3 
 .rodata.cinv_port_mutex_give.str1.4
                0x000000001ff6933c        0xb C:\TMP\nn_denoise_rtc_sample.elf.zkP8Mf.ltrans1.ltrans.o
 *fill*         0x000000001ff69347        0x1 
 .rodata.cm_input_interrupt_handler.str1.4
                0x000000001ff69348       0x19 C:\TMP\nn_denoise_rtc_sample.elf.zkP8Mf.ltrans1.ltrans.o
 *fill*         0x000000001ff69361        0x3 
 .rodata.realloc_buffer.str1.4
                0x000000001ff69364       0x1c C:\TMP\nn_denoise_rtc_sample.elf.zkP8Mf.ltrans1.ltrans.o
 .rodata.get_file_addr.str1.4
                0x000000001ff69380       0x1f C:\TMP\nn_denoise_rtc_sample.elf.zkP8Mf.ltrans1.ltrans.o
 *fill*         0x000000001ff6939f        0x1 
 .rodata.get_current_model_addr.str1.4
                0x000000001ff693a0       0x15 C:\TMP\nn_denoise_rtc_sample.elf.zkP8Mf.ltrans1.ltrans.o
 *fill*         0x000000001ff693b5        0x3 
 .rodata.flash_control_inner_serve_cb.str1.4
                0x000000001ff693b8       0x1d C:\TMP\nn_denoise_rtc_sample.elf.zkP8Mf.ltrans1.ltrans.o
 *fill*         0x000000001ff693d5        0x3 
 .rodata.speex_record_data_task.str1.4
                0x000000001ff693d8       0x51 C:\TMP\nn_denoise_rtc_sample.elf.zkP8Mf.ltrans1.ltrans.o
 *fill*         0x000000001ff69429        0x3 
 .rodata.prvTimerTask
                0x000000001ff6942c       0x28 C:\TMP\nn_denoise_rtc_sample.elf.zkP8Mf.ltrans1.ltrans.o
 .rodata.speex_play_data_task.str1.4
                0x000000001ff69454       0x23 C:\TMP\nn_denoise_rtc_sample.elf.zkP8Mf.ltrans1.ltrans.o
 *fill*         0x000000001ff69477        0x1 
 .rodata.audio_pre_rslt_write_data.str1.4
                0x000000001ff69478       0x29 C:\TMP\nn_denoise_rtc_sample.elf.zkP8Mf.ltrans1.ltrans.o
 *fill*         0x000000001ff694a1        0x3 
 .rodata.ifft_data_handle_task_rtc.str1.4
                0x000000001ff694a4       0x20 C:\TMP\nn_denoise_rtc_sample.elf.zkP8Mf.ltrans1.ltrans.o
 .rodata.codec_manage_inner_serve_cb
                0x000000001ff694c4       0x14 C:\TMP\nn_denoise_rtc_sample.elf.zkP8Mf.ltrans1.ltrans.o
 .rodata.uart_eq_param_cfg_task.str1.4
                0x000000001ff694d8      0x2e7 C:\TMP\nn_denoise_rtc_sample.elf.zkP8Mf.ltrans1.ltrans.o
                                        0x2eb (size before relaxing)
 *fill*         0x000000001ff697bf        0x1 
 .rodata.handle_trap.str1.4
                0x000000001ff697c0       0x5d C:\TMP\nn_denoise_rtc_sample.elf.zkP8Mf.ltrans1.ltrans.o
 *fill*         0x000000001ff6981d        0x3 
 .rodata.speex_recv_data_task.str1.4
                0x000000001ff69820       0xf6 C:\TMP\nn_denoise_rtc_sample.elf.zkP8Mf.ltrans1.ltrans.o
 *fill*         0x000000001ff69916        0x2 
 .rodata.main.str1.4
                0x000000001ff69918       0xcc C:\TMP\nn_denoise_rtc_sample.elf.zkP8Mf.ltrans1.ltrans.o
 .rodata.GPIO_IRQ_Default_proc.str1.4
                0x000000001ff699e4       0x26 C:\TMP\nn_denoise_rtc_sample.elf.zkP8Mf.ltrans1.ltrans.o
 *fill*         0x000000001ff69a0a        0x2 
 .rodata.task_init.str1.4
                0x000000001ff69a0c      0x5eb C:\TMP\nn_denoise_rtc_sample.elf.zkP8Mf.ltrans1.ltrans.o
                                        0x62b (size before relaxing)
 *fill*         0x000000001ff69ff7        0x1 
 .rodata.audio_pre_rslt_out_play_card_init.str1.4
                0x000000001ff69ff8       0x60 C:\TMP\nn_denoise_rtc_sample.elf.zkP8Mf.ltrans1.ltrans.o
 .rodata.audio_in_manage_inner_task_rtc.str1.4
                0x000000001ff6a058       0x15 C:\TMP\nn_denoise_rtc_sample.elf.zkP8Mf.ltrans1.ltrans.o
                                         0x49 (size before relaxing)
 *fill*         0x000000001ff6a06d        0x3 
 .rodata.str1.4
                0x000000001ff6a070        0xb C:\TMP\nn_denoise_rtc_sample.elf.zkP8Mf.ltrans1.ltrans.o
 *fill*         0x000000001ff6a07b        0x1 
 .rodata        0x000000001ff6a07c       0xf4 C:\TMP\nn_denoise_rtc_sample.elf.zkP8Mf.ltrans1.ltrans.o
 .rodata.CRC_table
                0x000000001ff6a170      0x400 C:\TMP\nn_denoise_rtc_sample.elf.zkP8Mf.ltrans1.ltrans.o
 .rodata.__FUNCTION__.3222
                0x000000001ff6a570       0x13 C:\TMP\nn_denoise_rtc_sample.elf.zkP8Mf.ltrans1.ltrans.o
 *fill*         0x000000001ff6a583        0x1 
 .rodata.__FUNCTION__.5447
                0x000000001ff6a584        0xa C:\TMP\nn_denoise_rtc_sample.elf.zkP8Mf.ltrans1.ltrans.o
 *fill*         0x000000001ff6a58e        0x2 
 .rodata.__FUNCTION__.6069
                0x000000001ff6a590       0x14 C:\TMP\nn_denoise_rtc_sample.elf.zkP8Mf.ltrans1.ltrans.o
 .rodata.__FUNCTION__.6071
                0x000000001ff6a5a4        0xf C:\TMP\nn_denoise_rtc_sample.elf.zkP8Mf.ltrans1.ltrans.o
 *fill*         0x000000001ff6a5b3        0x1 
 .rodata.__FUNCTION__.6113
                0x000000001ff6a5b4       0x1e C:\TMP\nn_denoise_rtc_sample.elf.zkP8Mf.ltrans1.ltrans.o
 *fill*         0x000000001ff6a5d2        0x2 
 .rodata.__FUNCTION__.6120
                0x000000001ff6a5d4       0x25 C:\TMP\nn_denoise_rtc_sample.elf.zkP8Mf.ltrans1.ltrans.o
 *fill*         0x000000001ff6a5f9        0x3 
 .rodata.__FUNCTION__.6183
                0x000000001ff6a5fc       0x10 C:\TMP\nn_denoise_rtc_sample.elf.zkP8Mf.ltrans1.ltrans.o
 .rodata.__FUNCTION__.6668
                0x000000001ff6a60c       0x22 C:\TMP\nn_denoise_rtc_sample.elf.zkP8Mf.ltrans1.ltrans.o
 *fill*         0x000000001ff6a62e        0x2 
 .rodata.__FUNCTION__.7597
                0x000000001ff6a630       0x1f C:\TMP\nn_denoise_rtc_sample.elf.zkP8Mf.ltrans1.ltrans.o
 *fill*         0x000000001ff6a64f        0x1 
 .rodata.__func__.4151
                0x000000001ff6a650       0x16 C:\TMP\nn_denoise_rtc_sample.elf.zkP8Mf.ltrans1.ltrans.o
 *fill*         0x000000001ff6a666        0x2 
 .rodata.__func__.4155
                0x000000001ff6a668       0x15 C:\TMP\nn_denoise_rtc_sample.elf.zkP8Mf.ltrans1.ltrans.o
 *fill*         0x000000001ff6a67d        0x3 
 .rodata.__func__.4159
                0x000000001ff6a680       0x15 C:\TMP\nn_denoise_rtc_sample.elf.zkP8Mf.ltrans1.ltrans.o
 *fill*         0x000000001ff6a695        0x3 
 .rodata.aec_config
                0x000000001ff6a698       0x54 C:\TMP\nn_denoise_rtc_sample.elf.zkP8Mf.ltrans1.ltrans.o
 .rodata.exc_10_16_table
                0x000000001ff6a6ec       0xa0 C:\TMP\nn_denoise_rtc_sample.elf.zkP8Mf.ltrans1.ltrans.o
 .rodata.exc_10_32_table
                0x000000001ff6a78c      0x140 C:\TMP\nn_denoise_rtc_sample.elf.zkP8Mf.ltrans1.ltrans.o
 .rodata.exc_20_32_table
                0x000000001ff6a8cc      0x280 C:\TMP\nn_denoise_rtc_sample.elf.zkP8Mf.ltrans1.ltrans.o
 .rodata.exc_5_256_table
                0x000000001ff6ab4c      0x500 C:\TMP\nn_denoise_rtc_sample.elf.zkP8Mf.ltrans1.ltrans.o
 .rodata.exc_5_64_table
                0x000000001ff6b04c      0x140 C:\TMP\nn_denoise_rtc_sample.elf.zkP8Mf.ltrans1.ltrans.o
 .rodata.exc_8_128_table
                0x000000001ff6b18c      0x400 C:\TMP\nn_denoise_rtc_sample.elf.zkP8Mf.ltrans1.ltrans.o
 .rodata.gain_cdbk_lbr
                0x000000001ff6b58c       0x80 C:\TMP\nn_denoise_rtc_sample.elf.zkP8Mf.ltrans1.ltrans.o
 .rodata.gain_cdbk_nb
                0x000000001ff6b60c      0x200 C:\TMP\nn_denoise_rtc_sample.elf.zkP8Mf.ltrans1.ltrans.o
 .rodata.hexc_10_32_table
                0x000000001ff6b80c      0x140 C:\TMP\nn_denoise_rtc_sample.elf.zkP8Mf.ltrans1.ltrans.o
 .rodata.hexc_table
                0x000000001ff6b94c      0x400 C:\TMP\nn_denoise_rtc_sample.elf.zkP8Mf.ltrans1.ltrans.o
 .rodata.host_mic_hw_info
                0x000000001ff6bd4c       0x54 C:\TMP\nn_denoise_rtc_sample.elf.zkP8Mf.ltrans1.ltrans.o
 .rodata.ltp_params_lbr
                0x000000001ff6bda0        0xc C:\TMP\nn_denoise_rtc_sample.elf.zkP8Mf.ltrans1.ltrans.o
 .rodata.ltp_params_med
                0x000000001ff6bdac        0xc C:\TMP\nn_denoise_rtc_sample.elf.zkP8Mf.ltrans1.ltrans.o
 .rodata.ltp_params_nb
                0x000000001ff6bdb8        0xc C:\TMP\nn_denoise_rtc_sample.elf.zkP8Mf.ltrans1.ltrans.o
 .rodata.ltp_params_vlbr
                0x000000001ff6bdc4        0xc C:\TMP\nn_denoise_rtc_sample.elf.zkP8Mf.ltrans1.ltrans.o
 .rodata.nb_mode
                0x000000001ff6bdd0       0x90 C:\TMP\nn_denoise_rtc_sample.elf.zkP8Mf.ltrans1.ltrans.o
 .rodata.nb_submode1
                0x000000001ff6be60       0x38 C:\TMP\nn_denoise_rtc_sample.elf.zkP8Mf.ltrans1.ltrans.o
 .rodata.nb_submode2
                0x000000001ff6be98       0x38 C:\TMP\nn_denoise_rtc_sample.elf.zkP8Mf.ltrans1.ltrans.o
 .rodata.nb_submode3
                0x000000001ff6bed0       0x38 C:\TMP\nn_denoise_rtc_sample.elf.zkP8Mf.ltrans1.ltrans.o
 .rodata.nb_submode4
                0x000000001ff6bf08       0x38 C:\TMP\nn_denoise_rtc_sample.elf.zkP8Mf.ltrans1.ltrans.o
 .rodata.nb_submode5
                0x000000001ff6bf40       0x38 C:\TMP\nn_denoise_rtc_sample.elf.zkP8Mf.ltrans1.ltrans.o
 .rodata.nb_submode6
                0x000000001ff6bf78       0x38 C:\TMP\nn_denoise_rtc_sample.elf.zkP8Mf.ltrans1.ltrans.o
 .rodata.nb_submode7
                0x000000001ff6bfb0       0x38 C:\TMP\nn_denoise_rtc_sample.elf.zkP8Mf.ltrans1.ltrans.o
 .rodata.nb_submode8
                0x000000001ff6bfe8       0x38 C:\TMP\nn_denoise_rtc_sample.elf.zkP8Mf.ltrans1.ltrans.o
 .rodata.over_sample_table.6100
                0x000000001ff6c020       0x10 C:\TMP\nn_denoise_rtc_sample.elf.zkP8Mf.ltrans1.ltrans.o
 .rodata.sb_wb_mode
                0x000000001ff6c030       0xa0 C:\TMP\nn_denoise_rtc_sample.elf.zkP8Mf.ltrans1.ltrans.o
 .rodata.speex_nb_mode
                0x000000001ff6c0d0       0x34 C:\TMP\nn_denoise_rtc_sample.elf.zkP8Mf.ltrans1.ltrans.o
 .rodata.split_cb_high
                0x000000001ff6c104       0x14 C:\TMP\nn_denoise_rtc_sample.elf.zkP8Mf.ltrans1.ltrans.o
 .rodata.split_cb_high_lbr
                0x000000001ff6c118       0x14 C:\TMP\nn_denoise_rtc_sample.elf.zkP8Mf.ltrans1.ltrans.o
 .rodata.split_cb_nb
                0x000000001ff6c12c       0x14 C:\TMP\nn_denoise_rtc_sample.elf.zkP8Mf.ltrans1.ltrans.o
 .rodata.split_cb_nb_lbr
                0x000000001ff6c140       0x14 C:\TMP\nn_denoise_rtc_sample.elf.zkP8Mf.ltrans1.ltrans.o
 .rodata.split_cb_nb_med
                0x000000001ff6c154       0x14 C:\TMP\nn_denoise_rtc_sample.elf.zkP8Mf.ltrans1.ltrans.o
 .rodata.split_cb_nb_ulbr
                0x000000001ff6c168       0x14 C:\TMP\nn_denoise_rtc_sample.elf.zkP8Mf.ltrans1.ltrans.o
 .rodata.split_cb_nb_vlbr
                0x000000001ff6c17c       0x14 C:\TMP\nn_denoise_rtc_sample.elf.zkP8Mf.ltrans1.ltrans.o
 .rodata.split_cb_sb
                0x000000001ff6c190       0x14 C:\TMP\nn_denoise_rtc_sample.elf.zkP8Mf.ltrans1.ltrans.o
 .rodata.stft_istft_config
                0x000000001ff6c1a4       0x20 C:\TMP\nn_denoise_rtc_sample.elf.zkP8Mf.ltrans1.ltrans.o
 .rodata.table_crc8
                0x000000001ff6c1c4      0x100 C:\TMP\nn_denoise_rtc_sample.elf.zkP8Mf.ltrans1.ltrans.o
 .rodata.wb_submode1
                0x000000001ff6c2c4       0x38 C:\TMP\nn_denoise_rtc_sample.elf.zkP8Mf.ltrans1.ltrans.o
 .rodata.wb_submode2
                0x000000001ff6c2fc       0x38 C:\TMP\nn_denoise_rtc_sample.elf.zkP8Mf.ltrans1.ltrans.o
 .rodata.wb_submode3
                0x000000001ff6c334       0x38 C:\TMP\nn_denoise_rtc_sample.elf.zkP8Mf.ltrans1.ltrans.o
 .rodata.wb_submode4
                0x000000001ff6c36c       0x38 C:\TMP\nn_denoise_rtc_sample.elf.zkP8Mf.ltrans1.ltrans.o
 .rodata.sbrk.str1.4
                0x000000001ff6c3a4       0x18 ../../../libs\libnewlib_port.a(sbrk.o)
 .rodata        0x000000001ff6c3bc       0x3c d:/software/yuyin/qiqiyinqiluntai/riscv-nuclei-elf-gcc-9.2.0.0/gcc_fix_raissrc/bin/../lib/gcc/riscv-nuclei-elf/9.2.0/rv32imafc/ilp32f\libgcc.a(divdf3.o)
 .rodata        0x000000001ff6c3f8       0x3c d:/software/yuyin/qiqiyinqiluntai/riscv-nuclei-elf-gcc-9.2.0.0/gcc_fix_raissrc/bin/../lib/gcc/riscv-nuclei-elf/9.2.0/rv32imafc/ilp32f\libgcc.a(muldf3.o)
 .rodata        0x000000001ff6c434      0x100 d:/software/yuyin/qiqiyinqiluntai/riscv-nuclei-elf-gcc-9.2.0.0/gcc_fix_raissrc/bin/../lib/gcc/riscv-nuclei-elf/9.2.0/rv32imafc/ilp32f\libgcc.a(_clz.o)
                0x000000001ff6c434                __clz_tab
 .rodata._vfprintf_r.str1.4
                0x000000001ff6c534       0x13 d:/software/yuyin/qiqiyinqiluntai/riscv-nuclei-elf-gcc-9.2.0.0/gcc_fix_raissrc/bin/../lib/gcc/riscv-nuclei-elf/9.2.0/../../../../riscv-nuclei-elf/lib/rv32imafc/ilp32f\libg_nano.a(lib_a-nano-vfprintf.o)
 *fill*         0x000000001ff6c547        0x1 
 .rodata.__sf_fake_stderr
                0x000000001ff6c548       0x20 d:/software/yuyin/qiqiyinqiluntai/riscv-nuclei-elf-gcc-9.2.0.0/gcc_fix_raissrc/bin/../lib/gcc/riscv-nuclei-elf/9.2.0/../../../../riscv-nuclei-elf/lib/rv32imafc/ilp32f\libg_nano.a(lib_a-findfp.o)
                0x000000001ff6c548                __sf_fake_stderr
 .rodata.__sf_fake_stdin
                0x000000001ff6c568       0x20 d:/software/yuyin/qiqiyinqiluntai/riscv-nuclei-elf-gcc-9.2.0.0/gcc_fix_raissrc/bin/../lib/gcc/riscv-nuclei-elf/9.2.0/../../../../riscv-nuclei-elf/lib/rv32imafc/ilp32f\libg_nano.a(lib_a-findfp.o)
                0x000000001ff6c568                __sf_fake_stdin
 .rodata.__sf_fake_stdout
                0x000000001ff6c588       0x20 d:/software/yuyin/qiqiyinqiluntai/riscv-nuclei-elf-gcc-9.2.0.0/gcc_fix_raissrc/bin/../lib/gcc/riscv-nuclei-elf/9.2.0/../../../../riscv-nuclei-elf/lib/rv32imafc/ilp32f\libg_nano.a(lib_a-findfp.o)
                0x000000001ff6c588                __sf_fake_stdout
 .rodata._printf_i.str1.4
                0x000000001ff6c5a8       0x28 d:/software/yuyin/qiqiyinqiluntai/riscv-nuclei-elf-gcc-9.2.0.0/gcc_fix_raissrc/bin/../lib/gcc/riscv-nuclei-elf/9.2.0/../../../../riscv-nuclei-elf/lib/rv32imafc/ilp32f\libg_nano.a(lib_a-nano-vfprintf_i.o)
                                         0x25 (size before relaxing)
 .rodata._printf_i
                0x000000001ff6c5d0       0x58 d:/software/yuyin/qiqiyinqiluntai/riscv-nuclei-elf-gcc-9.2.0.0/gcc_fix_raissrc/bin/../lib/gcc/riscv-nuclei-elf/9.2.0/../../../../riscv-nuclei-elf/lib/rv32imafc/ilp32f\libg_nano.a(lib_a-nano-vfprintf_i.o)
 .rodata.str1.4
                0x000000001ff6c628        0x5 d:/software/yuyin/qiqiyinqiluntai/riscv-nuclei-elf-gcc-9.2.0.0/gcc_fix_raissrc/bin/../lib/gcc/riscv-nuclei-elf/9.2.0/../../../../riscv-nuclei-elf/lib/rv32imafc/ilp32f\libm.a(lib_a-w_acos.o)
                                          0x9 (size before relaxing)
 *fill*         0x000000001ff6c62d        0x3 
 .rodata.str1.4
                0x000000001ff6c630        0x4 d:/software/yuyin/qiqiyinqiluntai/riscv-nuclei-elf-gcc-9.2.0.0/gcc_fix_raissrc/bin/../lib/gcc/riscv-nuclei-elf/9.2.0/../../../../riscv-nuclei-elf/lib/rv32imafc/ilp32f\libm.a(lib_a-w_exp.o)
 .rodata.str1.4
                0x000000001ff6c634        0x5 d:/software/yuyin/qiqiyinqiluntai/riscv-nuclei-elf-gcc-9.2.0.0/gcc_fix_raissrc/bin/../lib/gcc/riscv-nuclei-elf/9.2.0/../../../../riscv-nuclei-elf/lib/rv32imafc/ilp32f\libm.a(lib_a-wf_pow.o)
 *fill*         0x000000001ff6c639        0x3 
 .rodata.str1.4
                0x000000001ff6c63c        0x4 d:/software/yuyin/qiqiyinqiluntai/riscv-nuclei-elf-gcc-9.2.0.0/gcc_fix_raissrc/bin/../lib/gcc/riscv-nuclei-elf/9.2.0/../../../../riscv-nuclei-elf/lib/rv32imafc/ilp32f\libm.a(lib_a-w_log.o)
                                          0x5 (size before relaxing)
 .rodata.str1.4
                0x000000001ff6c640        0x5 d:/software/yuyin/qiqiyinqiluntai/riscv-nuclei-elf-gcc-9.2.0.0/gcc_fix_raissrc/bin/../lib/gcc/riscv-nuclei-elf/9.2.0/../../../../riscv-nuclei-elf/lib/rv32imafc/ilp32f\libm.a(lib_a-w_sqrt.o)
 *fill*         0x000000001ff6c645        0x3 
 .rodata        0x000000001ff6c648       0x30 d:/software/yuyin/qiqiyinqiluntai/riscv-nuclei-elf-gcc-9.2.0.0/gcc_fix_raissrc/bin/../lib/gcc/riscv-nuclei-elf/9.2.0/../../../../riscv-nuclei-elf/lib/rv32imafc/ilp32f\libm.a(lib_a-e_exp.o)
 .rodata.str1.4
                0x000000001ff6c678        0x1 d:/software/yuyin/qiqiyinqiluntai/riscv-nuclei-elf-gcc-9.2.0.0/gcc_fix_raissrc/bin/../lib/gcc/riscv-nuclei-elf/9.2.0/../../../../riscv-nuclei-elf/lib/rv32imafc/ilp32f\libm.a(lib_a-ef_pow.o)

.rela.dyn       0x000000001ff6c678        0x0
 .rela.init     0x000000001ff6c678        0x0 build/objs/ci130x_vtable.o
 .rela.load_addr
                0x000000001ff6c678        0x0 build/objs/ci130x_vtable.o
 .rela.text.sbrk
                0x000000001ff6c678        0x0 build/objs/ci130x_vtable.o
 .rela.sdata.currentHeapEnd.5595
                0x000000001ff6c678        0x0 build/objs/ci130x_vtable.o
 .rela.text.entry
                0x000000001ff6c678        0x0 build/objs/ci130x_vtable.o
 .rela.text.__libc_fini_array
                0x000000001ff6c678        0x0 build/objs/ci130x_vtable.o
 .rela.text.__libc_init_array
                0x000000001ff6c678        0x0 build/objs/ci130x_vtable.o
 .rela.text.__register_exitproc
                0x000000001ff6c678        0x0 build/objs/ci130x_vtable.o
 .rela.text.pvPortMalloc
                0x000000001ff6c678        0x0 build/objs/ci130x_vtable.o
 .rela.text.handle_trap
                0x000000001ff6c678        0x0 build/objs/ci130x_vtable.o
 .rela.text.startup.main
                0x000000001ff6c678        0x0 build/objs/ci130x_vtable.o
 .rela.text.task_init
                0x000000001ff6c678        0x0 build/objs/ci130x_vtable.o
 .rela.text._init
                0x000000001ff6c678        0x0 build/objs/ci130x_vtable.o
 .rela.text._vfprintf_r
                0x000000001ff6c678        0x0 build/objs/ci130x_vtable.o
 .rela.text._sbrk_r
                0x000000001ff6c678        0x0 build/objs/ci130x_vtable.o
 .rela.text._write_r
                0x000000001ff6c678        0x0 build/objs/ci130x_vtable.o
 .rela.text._close_r
                0x000000001ff6c678        0x0 build/objs/ci130x_vtable.o
 .rela.text._fstat_r
                0x000000001ff6c678        0x0 build/objs/ci130x_vtable.o
 .rela.text._isatty_r
                0x000000001ff6c678        0x0 build/objs/ci130x_vtable.o
 .rela.text._lseek_r
                0x000000001ff6c678        0x0 build/objs/ci130x_vtable.o
 .rela.text._read_r
                0x000000001ff6c678        0x0 build/objs/ci130x_vtable.o

.lalign         0x000000001ff6c678        0x0
                0x000000001ff6c678                . = ALIGN (0x4)
                0x000000001ff6c678                PROVIDE (_data_lma = .)

.dalign         0x000000001ff6c678        0x0
                0x000000001ff6c678                . = ALIGN (0x4)
                0x000000001ff6c678                PROVIDE (_data = .)

.data           0x000000001ff6c678      0x6e8
 *(.gnu.linkonce.r.*)
 *(.data .data.*)
 .data.audio_capture
                0x000000001ff6c678        0xc C:\TMP\nn_denoise_rtc_sample.elf.zkP8Mf.ltrans1.ltrans.o
 .data.audio_pre_tslt_out_info
                0x000000001ff6c684       0x54 C:\TMP\nn_denoise_rtc_sample.elf.zkP8Mf.ltrans1.ltrans.o
 .data.ci_ssp   0x000000001ff6c6d8       0xe0 C:\TMP\nn_denoise_rtc_sample.elf.zkP8Mf.ltrans1.ltrans.o
 .data.eq_config
                0x000000001ff6c7b8       0x78 C:\TMP\nn_denoise_rtc_sample.elf.zkP8Mf.ltrans1.ltrans.o
 .data.impure_data
                0x000000001ff6c830       0x60 d:/software/yuyin/qiqiyinqiluntai/riscv-nuclei-elf-gcc-9.2.0.0/gcc_fix_raissrc/bin/../lib/gcc/riscv-nuclei-elf/9.2.0/../../../../riscv-nuclei-elf/lib/rv32imafc/ilp32f\libg_nano.a(lib_a-impure.o)
 *(.gnu.linkonce.d.*)
                0x000000001ff6c890                . = ALIGN (0x8)
                0x000000001ff6d090                PROVIDE (__global_pointer$ = (. + 0x800))
 *(.sdata .sdata.* .sdata*)
 .sdata.uxCriticalNesting
                0x000000001ff6c890        0x4 C:\TMP\nn_denoise_rtc_sample.elf.zkP8Mf.ltrans0.ltrans.o
 .sdata2.exc_gain_quant_scal1
                0x000000001ff6c894        0x8 C:\TMP\nn_denoise_rtc_sample.elf.zkP8Mf.ltrans0.ltrans.o
 .sdata2.mailbox_ports
                0x000000001ff6c89c        0x8 C:\TMP\nn_denoise_rtc_sample.elf.zkP8Mf.ltrans0.ltrans.o
 .sdata.a0_string
                0x000000001ff6c8a4        0x3 C:\TMP\nn_denoise_rtc_sample.elf.zkP8Mf.ltrans1.ltrans.o
 *fill*         0x000000001ff6c8a7        0x1 
 .sdata.a1_string
                0x000000001ff6c8a8        0x3 C:\TMP\nn_denoise_rtc_sample.elf.zkP8Mf.ltrans1.ltrans.o
 *fill*         0x000000001ff6c8ab        0x1 
 .sdata.a2_string
                0x000000001ff6c8ac        0x3 C:\TMP\nn_denoise_rtc_sample.elf.zkP8Mf.ltrans1.ltrans.o
 *fill*         0x000000001ff6c8af        0x1 
 .sdata.a3_string
                0x000000001ff6c8b0        0x3 C:\TMP\nn_denoise_rtc_sample.elf.zkP8Mf.ltrans1.ltrans.o
 *fill*         0x000000001ff6c8b3        0x1 
 .sdata.a4_string
                0x000000001ff6c8b4        0x3 C:\TMP\nn_denoise_rtc_sample.elf.zkP8Mf.ltrans1.ltrans.o
 *fill*         0x000000001ff6c8b7        0x1 
 .sdata.a5_string
                0x000000001ff6c8b8        0x3 C:\TMP\nn_denoise_rtc_sample.elf.zkP8Mf.ltrans1.ltrans.o
 *fill*         0x000000001ff6c8bb        0x1 
 .sdata.a6_string
                0x000000001ff6c8bc        0x3 C:\TMP\nn_denoise_rtc_sample.elf.zkP8Mf.ltrans1.ltrans.o
 *fill*         0x000000001ff6c8bf        0x1 
 .sdata.a7_string
                0x000000001ff6c8c0        0x3 C:\TMP\nn_denoise_rtc_sample.elf.zkP8Mf.ltrans1.ltrans.o
 *fill*         0x000000001ff6c8c3        0x1 
 .sdata.ai_denoise_config
                0x000000001ff6c8c4        0x8 C:\TMP\nn_denoise_rtc_sample.elf.zkP8Mf.ltrans1.ltrans.o
 .sdata.cmd_file_start_addr_in_flash
                0x000000001ff6c8cc        0x4 C:\TMP\nn_denoise_rtc_sample.elf.zkP8Mf.ltrans1.ltrans.o
 .sdata.fp_string
                0x000000001ff6c8d0        0x3 C:\TMP\nn_denoise_rtc_sample.elf.zkP8Mf.ltrans1.ltrans.o
 *fill*         0x000000001ff6c8d3        0x1 
 .sdata.gp_string
                0x000000001ff6c8d4        0x3 C:\TMP\nn_denoise_rtc_sample.elf.zkP8Mf.ltrans1.ltrans.o
 *fill*         0x000000001ff6c8d7        0x1 
 .sdata.mcause_string
                0x000000001ff6c8d8        0x7 C:\TMP\nn_denoise_rtc_sample.elf.zkP8Mf.ltrans1.ltrans.o
 *fill*         0x000000001ff6c8df        0x1 
 .sdata.mepc_string
                0x000000001ff6c8e0        0x5 C:\TMP\nn_denoise_rtc_sample.elf.zkP8Mf.ltrans1.ltrans.o
 *fill*         0x000000001ff6c8e5        0x3 
 .sdata.mstatus_string
                0x000000001ff6c8e8        0x8 C:\TMP\nn_denoise_rtc_sample.elf.zkP8Mf.ltrans1.ltrans.o
 .sdata.msubm_string
                0x000000001ff6c8f0        0x6 C:\TMP\nn_denoise_rtc_sample.elf.zkP8Mf.ltrans1.ltrans.o
 *fill*         0x000000001ff6c8f6        0x2 
 .sdata.pre_rslt_out_sound_info
                0x000000001ff6c8f8        0x8 C:\TMP\nn_denoise_rtc_sample.elf.zkP8Mf.ltrans1.ltrans.o
 .sdata.ra_string
                0x000000001ff6c900        0x3 C:\TMP\nn_denoise_rtc_sample.elf.zkP8Mf.ltrans1.ltrans.o
 .sdata.rtc_denoise_func_status.6068
                0x000000001ff6c903        0x1 C:\TMP\nn_denoise_rtc_sample.elf.zkP8Mf.ltrans1.ltrans.o
 .sdata.s10_string
                0x000000001ff6c904        0x4 C:\TMP\nn_denoise_rtc_sample.elf.zkP8Mf.ltrans1.ltrans.o
 .sdata.s11_string
                0x000000001ff6c908        0x4 C:\TMP\nn_denoise_rtc_sample.elf.zkP8Mf.ltrans1.ltrans.o
 .sdata.s1_string
                0x000000001ff6c90c        0x3 C:\TMP\nn_denoise_rtc_sample.elf.zkP8Mf.ltrans1.ltrans.o
 *fill*         0x000000001ff6c90f        0x1 
 .sdata.s2_string
                0x000000001ff6c910        0x3 C:\TMP\nn_denoise_rtc_sample.elf.zkP8Mf.ltrans1.ltrans.o
 *fill*         0x000000001ff6c913        0x1 
 .sdata.s3_string
                0x000000001ff6c914        0x3 C:\TMP\nn_denoise_rtc_sample.elf.zkP8Mf.ltrans1.ltrans.o
 *fill*         0x000000001ff6c917        0x1 
 .sdata.s4_string
                0x000000001ff6c918        0x3 C:\TMP\nn_denoise_rtc_sample.elf.zkP8Mf.ltrans1.ltrans.o
 *fill*         0x000000001ff6c91b        0x1 
 .sdata.s5_string
                0x000000001ff6c91c        0x3 C:\TMP\nn_denoise_rtc_sample.elf.zkP8Mf.ltrans1.ltrans.o
 *fill*         0x000000001ff6c91f        0x1 
 .sdata.s6_string
                0x000000001ff6c920        0x3 C:\TMP\nn_denoise_rtc_sample.elf.zkP8Mf.ltrans1.ltrans.o
 *fill*         0x000000001ff6c923        0x1 
 .sdata.s7_string
                0x000000001ff6c924        0x3 C:\TMP\nn_denoise_rtc_sample.elf.zkP8Mf.ltrans1.ltrans.o
 *fill*         0x000000001ff6c927        0x1 
 .sdata.s8_string
                0x000000001ff6c928        0x3 C:\TMP\nn_denoise_rtc_sample.elf.zkP8Mf.ltrans1.ltrans.o
 *fill*         0x000000001ff6c92b        0x1 
 .sdata.s9_string
                0x000000001ff6c92c        0x3 C:\TMP\nn_denoise_rtc_sample.elf.zkP8Mf.ltrans1.ltrans.o
 *fill*         0x000000001ff6c92f        0x1 
 .sdata.sp_string
                0x000000001ff6c930        0x3 C:\TMP\nn_denoise_rtc_sample.elf.zkP8Mf.ltrans1.ltrans.o
 *fill*         0x000000001ff6c933        0x1 
 .sdata.t0_string
                0x000000001ff6c934        0x3 C:\TMP\nn_denoise_rtc_sample.elf.zkP8Mf.ltrans1.ltrans.o
 *fill*         0x000000001ff6c937        0x1 
 .sdata.t1_string
                0x000000001ff6c938        0x3 C:\TMP\nn_denoise_rtc_sample.elf.zkP8Mf.ltrans1.ltrans.o
 *fill*         0x000000001ff6c93b        0x1 
 .sdata.t2_string
                0x000000001ff6c93c        0x3 C:\TMP\nn_denoise_rtc_sample.elf.zkP8Mf.ltrans1.ltrans.o
 *fill*         0x000000001ff6c93f        0x1 
 .sdata.t3_string
                0x000000001ff6c940        0x3 C:\TMP\nn_denoise_rtc_sample.elf.zkP8Mf.ltrans1.ltrans.o
 *fill*         0x000000001ff6c943        0x1 
 .sdata.t4_string
                0x000000001ff6c944        0x3 C:\TMP\nn_denoise_rtc_sample.elf.zkP8Mf.ltrans1.ltrans.o
 *fill*         0x000000001ff6c947        0x1 
 .sdata.t5_string
                0x000000001ff6c948        0x3 C:\TMP\nn_denoise_rtc_sample.elf.zkP8Mf.ltrans1.ltrans.o
 *fill*         0x000000001ff6c94b        0x1 
 .sdata.t6_string
                0x000000001ff6c94c        0x3 C:\TMP\nn_denoise_rtc_sample.elf.zkP8Mf.ltrans1.ltrans.o
 *fill*         0x000000001ff6c94f        0x1 
 .sdata.tp_string
                0x000000001ff6c950        0x3 C:\TMP\nn_denoise_rtc_sample.elf.zkP8Mf.ltrans1.ltrans.o
 *fill*         0x000000001ff6c953        0x1 
 .sdata.trans_blk
                0x000000001ff6c954        0x2 C:\TMP\nn_denoise_rtc_sample.elf.zkP8Mf.ltrans1.ltrans.o
 .sdata.trans_off
                0x000000001ff6c956        0x2 C:\TMP\nn_denoise_rtc_sample.elf.zkP8Mf.ltrans1.ltrans.o
 .sdata2.host_mic_sound_info
                0x000000001ff6c958        0x8 C:\TMP\nn_denoise_rtc_sample.elf.zkP8Mf.ltrans1.ltrans.o
 .sdata2.iis_out_audio_config
                0x000000001ff6c960        0x5 C:\TMP\nn_denoise_rtc_sample.elf.zkP8Mf.ltrans1.ltrans.o
 *fill*         0x000000001ff6c965        0x3 
 .sdata.currentHeapEnd.5595
                0x000000001ff6c968        0x4 ../../../libs\libnewlib_port.a(sbrk.o)
 .sdata._impure_ptr
                0x000000001ff6c96c        0x4 d:/software/yuyin/qiqiyinqiluntai/riscv-nuclei-elf-gcc-9.2.0.0/gcc_fix_raissrc/bin/../lib/gcc/riscv-nuclei-elf/9.2.0/../../../../riscv-nuclei-elf/lib/rv32imafc/ilp32f\libg_nano.a(lib_a-impure.o)
                0x000000001ff6c96c                _impure_ptr
 .sdata2._global_impure_ptr
                0x000000001ff6c970        0x4 d:/software/yuyin/qiqiyinqiluntai/riscv-nuclei-elf-gcc-9.2.0.0/gcc_fix_raissrc/bin/../lib/gcc/riscv-nuclei-elf/9.2.0/../../../../riscv-nuclei-elf/lib/rv32imafc/ilp32f\libg_nano.a(lib_a-impure.o)
                0x000000001ff6c970                _global_impure_ptr
 .sdata         0x000000001ff6c974        0x4 d:/software/yuyin/qiqiyinqiluntai/riscv-nuclei-elf-gcc-9.2.0.0/gcc_fix_raissrc/bin/../lib/gcc/riscv-nuclei-elf/9.2.0/../../../../riscv-nuclei-elf/lib/rv32imafc/ilp32f\libm.a(lib_a-s_lib_ver.o)
                0x000000001ff6c974                __fdlib_version
 *(.gnu.linkonce.s.*)
                0x000000001ff6c978                . = ALIGN (0x8)
 *(.srodata.cst16)
 *(.srodata.cst8)
 .srodata.cst8  0x000000001ff6c978      0x138 C:\TMP\nn_denoise_rtc_sample.elf.zkP8Mf.ltrans0.ltrans.o
 .srodata.cst8  0x000000001ff6cab0        0x8 d:/software/yuyin/qiqiyinqiluntai/riscv-nuclei-elf-gcc-9.2.0.0/gcc_fix_raissrc/bin/../lib/gcc/riscv-nuclei-elf/9.2.0/../../../../riscv-nuclei-elf/lib/rv32imafc/ilp32f\libm.a(lib_a-s_floor.o)
 .srodata.cst8  0x000000001ff6cab8        0x8 d:/software/yuyin/qiqiyinqiluntai/riscv-nuclei-elf-gcc-9.2.0.0/gcc_fix_raissrc/bin/../lib/gcc/riscv-nuclei-elf/9.2.0/../../../../riscv-nuclei-elf/lib/rv32imafc/ilp32f\libm.a(lib_a-w_acos.o)
 .srodata.cst8  0x000000001ff6cab8       0x20 d:/software/yuyin/qiqiyinqiluntai/riscv-nuclei-elf-gcc-9.2.0.0/gcc_fix_raissrc/bin/../lib/gcc/riscv-nuclei-elf/9.2.0/../../../../riscv-nuclei-elf/lib/rv32imafc/ilp32f\libm.a(lib_a-w_exp.o)
 .srodata.cst8  0x000000001ff6cad8       0x10 d:/software/yuyin/qiqiyinqiluntai/riscv-nuclei-elf-gcc-9.2.0.0/gcc_fix_raissrc/bin/../lib/gcc/riscv-nuclei-elf/9.2.0/../../../../riscv-nuclei-elf/lib/rv32imafc/ilp32f\libm.a(lib_a-wf_pow.o)
                                         0x28 (size before relaxing)
 .srodata.cst8  0x000000001ff6cae8       0x10 d:/software/yuyin/qiqiyinqiluntai/riscv-nuclei-elf-gcc-9.2.0.0/gcc_fix_raissrc/bin/../lib/gcc/riscv-nuclei-elf/9.2.0/../../../../riscv-nuclei-elf/lib/rv32imafc/ilp32f\libm.a(lib_a-w_log.o)
 .srodata.cst8  0x000000001ff6cae8       0x60 d:/software/yuyin/qiqiyinqiluntai/riscv-nuclei-elf-gcc-9.2.0.0/gcc_fix_raissrc/bin/../lib/gcc/riscv-nuclei-elf/9.2.0/../../../../riscv-nuclei-elf/lib/rv32imafc/ilp32f\libm.a(lib_a-e_acos.o)
                                         0x78 (size before relaxing)
 .srodata.cst8  0x000000001ff6cb48       0x50 d:/software/yuyin/qiqiyinqiluntai/riscv-nuclei-elf-gcc-9.2.0.0/gcc_fix_raissrc/bin/../lib/gcc/riscv-nuclei-elf/9.2.0/../../../../riscv-nuclei-elf/lib/rv32imafc/ilp32f\libm.a(lib_a-e_exp.o)
                                         0x70 (size before relaxing)
 .srodata.cst8  0x000000001ff6cb98       0x50 d:/software/yuyin/qiqiyinqiluntai/riscv-nuclei-elf-gcc-9.2.0.0/gcc_fix_raissrc/bin/../lib/gcc/riscv-nuclei-elf/9.2.0/../../../../riscv-nuclei-elf/lib/rv32imafc/ilp32f\libm.a(lib_a-e_log.o)
                                         0x78 (size before relaxing)
 .srodata.cst8  0x000000001ff6cbe8        0x8 d:/software/yuyin/qiqiyinqiluntai/riscv-nuclei-elf-gcc-9.2.0.0/gcc_fix_raissrc/bin/../lib/gcc/riscv-nuclei-elf/9.2.0/../../../../riscv-nuclei-elf/lib/rv32imafc/ilp32f\libm.a(lib_a-s_nan.o)
 *(.srodata.cst4)
 .srodata.cst4  0x000000001ff6cbf0       0xe0 C:\TMP\nn_denoise_rtc_sample.elf.zkP8Mf.ltrans0.ltrans.o
 .srodata.cst4  0x000000001ff6ccd0       0x10 C:\TMP\nn_denoise_rtc_sample.elf.zkP8Mf.ltrans1.ltrans.o
                                         0x1c (size before relaxing)
 .srodata.cst4  0x000000001ff6cce0        0x8 d:/software/yuyin/qiqiyinqiluntai/riscv-nuclei-elf-gcc-9.2.0.0/gcc_fix_raissrc/bin/../lib/gcc/riscv-nuclei-elf/9.2.0/../../../../riscv-nuclei-elf/lib/rv32imafc/ilp32f\libm.a(lib_a-wf_pow.o)
 .srodata.cst4  0x000000001ff6cce0       0x6c d:/software/yuyin/qiqiyinqiluntai/riscv-nuclei-elf-gcc-9.2.0.0/gcc_fix_raissrc/bin/../lib/gcc/riscv-nuclei-elf/9.2.0/../../../../riscv-nuclei-elf/lib/rv32imafc/ilp32f\libm.a(lib_a-ef_pow.o)
                                         0x84 (size before relaxing)
 .srodata.cst4  0x000000001ff6cd4c        0x4 d:/software/yuyin/qiqiyinqiluntai/riscv-nuclei-elf-gcc-9.2.0.0/gcc_fix_raissrc/bin/../lib/gcc/riscv-nuclei-elf/9.2.0/../../../../riscv-nuclei-elf/lib/rv32imafc/ilp32f\libm.a(lib_a-sf_nan.o)
 .srodata.cst4  0x000000001ff6cd50        0x8 d:/software/yuyin/qiqiyinqiluntai/riscv-nuclei-elf-gcc-9.2.0.0/gcc_fix_raissrc/bin/../lib/gcc/riscv-nuclei-elf/9.2.0/../../../../riscv-nuclei-elf/lib/rv32imafc/ilp32f\libm.a(lib_a-sf_scalbn.o)
                                         0x10 (size before relaxing)
 *(.srodata.cst2)
 *(.srodata .srodata.*)
 .srodata       0x000000001ff6cd58        0x8 d:/software/yuyin/qiqiyinqiluntai/riscv-nuclei-elf-gcc-9.2.0.0/gcc_fix_raissrc/bin/../lib/gcc/riscv-nuclei-elf/9.2.0/../../../../riscv-nuclei-elf/lib/rv32imafc/ilp32f\libm.a(lib_a-sf_rint.o)
                0x000000001ff6cd60                . = ALIGN (0x4)
                0x000000001ff6cd60                PROVIDE (_edata = .)
                [!provide]                        PROVIDE (edata = .)
                [!provide]                        PROVIDE (_fbss = .)
                0x000000001ff6cd60                PROVIDE (__bss_start = .)

.bss            0x000000001ff6cd60     0x1ec8
 *(.sbss*)
 .sbss.asrtop_asr_system_continue_semaphore
                0x000000001ff6cd60        0x4 C:\TMP\nn_denoise_rtc_sample.elf.zkP8Mf.ltrans0.ltrans.o
                0x000000001ff6cd60                asrtop_asr_system_continue_semaphore
 .sbss.asrtop_asr_system_create_model_semaphore
                0x000000001ff6cd64        0x4 C:\TMP\nn_denoise_rtc_sample.elf.zkP8Mf.ltrans0.ltrans.o
                0x000000001ff6cd64                asrtop_asr_system_create_model_semaphore
 .sbss.asrtop_asr_system_pause_semaphore
                0x000000001ff6cd68        0x4 C:\TMP\nn_denoise_rtc_sample.elf.zkP8Mf.ltrans0.ltrans.o
                0x000000001ff6cd68                asrtop_asr_system_pause_semaphore
 .sbss.boot_sync_bnpu.lto_priv.0
                0x000000001ff6cd6c        0x4 C:\TMP\nn_denoise_rtc_sample.elf.zkP8Mf.ltrans0.ltrans.o
                0x000000001ff6cd6c                boot_sync_bnpu.lto_priv.0
 .sbss.boot_sync_host.lto_priv.0
                0x000000001ff6cd70        0x4 C:\TMP\nn_denoise_rtc_sample.elf.zkP8Mf.ltrans0.ltrans.o
                0x000000001ff6cd70                boot_sync_host.lto_priv.0
 .sbss.cinv_hotid_m.lto_priv.0
                0x000000001ff6cd74        0x4 C:\TMP\nn_denoise_rtc_sample.elf.zkP8Mf.ltrans0.ltrans.o
                0x000000001ff6cd74                cinv_hotid_m.lto_priv.0
 .sbss.decoder_createmodel_done_flag
                0x000000001ff6cd78        0x1 C:\TMP\nn_denoise_rtc_sample.elf.zkP8Mf.ltrans0.ltrans.o
 .sbss.decoder_manage_is_decodeing
                0x000000001ff6cd79        0x1 C:\TMP\nn_denoise_rtc_sample.elf.zkP8Mf.ltrans0.ltrans.o
 .sbss.decoder_task_could_init
                0x000000001ff6cd7a        0x1 C:\TMP\nn_denoise_rtc_sample.elf.zkP8Mf.ltrans0.ltrans.o
 .sbss.decoder_task_vadfe_clear_done_flag
                0x000000001ff6cd7b        0x1 C:\TMP\nn_denoise_rtc_sample.elf.zkP8Mf.ltrans0.ltrans.o
 .sbss.flash_ctl_xSemaphore
                0x000000001ff6cd7c        0x4 C:\TMP\nn_denoise_rtc_sample.elf.zkP8Mf.ltrans0.ltrans.o
                0x000000001ff6cd7c                flash_ctl_xSemaphore
 .sbss.flash_req_op_done_event_group.lto_priv.0
                0x000000001ff6cd80        0x4 C:\TMP\nn_denoise_rtc_sample.elf.zkP8Mf.ltrans0.ltrans.o
                0x000000001ff6cd80                flash_req_op_done_event_group.lto_priv.0
 .sbss.g_feb_total_count.lto_priv.0
                0x000000001ff6cd84        0x2 C:\TMP\nn_denoise_rtc_sample.elf.zkP8Mf.ltrans0.ltrans.o
                0x000000001ff6cd84                g_feb_total_count.lto_priv.0
 *fill*         0x000000001ff6cd86        0x2 
 .sbss.g_flash_base_addr.lto_priv.0
                0x000000001ff6cd88        0x4 C:\TMP\nn_denoise_rtc_sample.elf.zkP8Mf.ltrans0.ltrans.o
                0x000000001ff6cd88                g_flash_base_addr.lto_priv.0
 .sbss.g_prun_count_max
                0x000000001ff6cd8c        0x4 C:\TMP\nn_denoise_rtc_sample.elf.zkP8Mf.ltrans0.ltrans.o
 .sbss.ifft_data_queue
                0x000000001ff6cd90        0x4 C:\TMP\nn_denoise_rtc_sample.elf.zkP8Mf.ltrans0.ltrans.o
                0x000000001ff6cd90                ifft_data_queue
 .sbss.is_burn_down
                0x000000001ff6cd94        0x1 C:\TMP\nn_denoise_rtc_sample.elf.zkP8Mf.ltrans0.ltrans.o
 .sbss.is_check_err
                0x000000001ff6cd95        0x1 C:\TMP\nn_denoise_rtc_sample.elf.zkP8Mf.ltrans0.ltrans.o
 .sbss.is_dnn_err
                0x000000001ff6cd96        0x1 C:\TMP\nn_denoise_rtc_sample.elf.zkP8Mf.ltrans0.ltrans.o
 .sbss.is_por_err
                0x000000001ff6cd97        0x1 C:\TMP\nn_denoise_rtc_sample.elf.zkP8Mf.ltrans0.ltrans.o
 .sbss.is_read_down
                0x000000001ff6cd98        0x1 C:\TMP\nn_denoise_rtc_sample.elf.zkP8Mf.ltrans0.ltrans.o
 .sbss.mailbox_is_busy
                0x000000001ff6cd99        0x1 C:\TMP\nn_denoise_rtc_sample.elf.zkP8Mf.ltrans0.ltrans.o
 *fill*         0x000000001ff6cd9a        0x2 
 .sbss.mailbox_semaphore.lto_priv.0
                0x000000001ff6cd9c        0x4 C:\TMP\nn_denoise_rtc_sample.elf.zkP8Mf.ltrans0.ltrans.o
                0x000000001ff6cd9c                mailbox_semaphore.lto_priv.0
 .sbss.nuclear_com_callback_func.lto_priv.0
                0x000000001ff6cda0        0x4 C:\TMP\nn_denoise_rtc_sample.elf.zkP8Mf.ltrans0.ltrans.o
                0x000000001ff6cda0                nuclear_com_callback_func.lto_priv.0
 .sbss.nuclear_com_semaphore
                0x000000001ff6cda4        0x4 C:\TMP\nn_denoise_rtc_sample.elf.zkP8Mf.ltrans0.ltrans.o
                0x000000001ff6cda4                nuclear_com_semaphore
 .sbss.pxCurrentTCB
                0x000000001ff6cda8        0x4 C:\TMP\nn_denoise_rtc_sample.elf.zkP8Mf.ltrans0.ltrans.o
                0x000000001ff6cda8                pxCurrentTCB
 .sbss.pxDelayedTaskList.lto_priv.0
                0x000000001ff6cdac        0x4 C:\TMP\nn_denoise_rtc_sample.elf.zkP8Mf.ltrans0.ltrans.o
                0x000000001ff6cdac                pxDelayedTaskList.lto_priv.0
 .sbss.pxOverflowDelayedTaskList.lto_priv.0
                0x000000001ff6cdb0        0x4 C:\TMP\nn_denoise_rtc_sample.elf.zkP8Mf.ltrans0.ltrans.o
                0x000000001ff6cdb0                pxOverflowDelayedTaskList.lto_priv.0
 .sbss.sg_req_change_model
                0x000000001ff6cdb4        0x1 C:\TMP\nn_denoise_rtc_sample.elf.zkP8Mf.ltrans0.ltrans.o
 *fill*         0x000000001ff6cdb5        0x3 
 .sbss.sys_err_flag
                0x000000001ff6cdb8        0x4 C:\TMP\nn_denoise_rtc_sample.elf.zkP8Mf.ltrans0.ltrans.o
 .sbss.uxCurrentNumberOfTasks.lto_priv.0
                0x000000001ff6cdbc        0x4 C:\TMP\nn_denoise_rtc_sample.elf.zkP8Mf.ltrans0.ltrans.o
                0x000000001ff6cdbc                uxCurrentNumberOfTasks.lto_priv.0
 .sbss.uxSchedulerSuspended.lto_priv.0
                0x000000001ff6cdc0        0x4 C:\TMP\nn_denoise_rtc_sample.elf.zkP8Mf.ltrans0.ltrans.o
                0x000000001ff6cdc0                uxSchedulerSuspended.lto_priv.0
 .sbss.uxTaskNumber
                0x000000001ff6cdc4        0x4 C:\TMP\nn_denoise_rtc_sample.elf.zkP8Mf.ltrans0.ltrans.o
 .sbss.uxTopReadyPriority.lto_priv.0
                0x000000001ff6cdc8        0x4 C:\TMP\nn_denoise_rtc_sample.elf.zkP8Mf.ltrans0.ltrans.o
                0x000000001ff6cdc8                uxTopReadyPriority.lto_priv.0
 .sbss.xNumOfOverflows.lto_priv.0
                0x000000001ff6cdcc        0x4 C:\TMP\nn_denoise_rtc_sample.elf.zkP8Mf.ltrans0.ltrans.o
                0x000000001ff6cdcc                xNumOfOverflows.lto_priv.0
 .sbss.xSchedulerRunning.lto_priv.0
                0x000000001ff6cdd0        0x4 C:\TMP\nn_denoise_rtc_sample.elf.zkP8Mf.ltrans0.ltrans.o
                0x000000001ff6cdd0                xSchedulerRunning.lto_priv.0
 .sbss.xTickCount.lto_priv.0
                0x000000001ff6cdd4        0x4 C:\TMP\nn_denoise_rtc_sample.elf.zkP8Mf.ltrans0.ltrans.o
                0x000000001ff6cdd4                xTickCount.lto_priv.0
 .sbss.xTimerQueue.lto_priv.0
                0x000000001ff6cdd8        0x4 C:\TMP\nn_denoise_rtc_sample.elf.zkP8Mf.ltrans0.ltrans.o
                0x000000001ff6cdd8                xTimerQueue.lto_priv.0
 .sbss.xYieldPending.lto_priv.0
                0x000000001ff6cddc        0x4 C:\TMP\nn_denoise_rtc_sample.elf.zkP8Mf.ltrans0.ltrans.o
                0x000000001ff6cddc                xYieldPending.lto_priv.0
 .sbss.LDO_trim_value_crc
                0x000000001ff6cde0        0x1 C:\TMP\nn_denoise_rtc_sample.elf.zkP8Mf.ltrans1.ltrans.o
 *fill*         0x000000001ff6cde1        0x3 
 .sbss.UART_CLK
                0x000000001ff6cde4        0x4 C:\TMP\nn_denoise_rtc_sample.elf.zkP8Mf.ltrans1.ltrans.o
 .sbss.ci_flash_data_info_init_flag
                0x000000001ff6cde8        0x1 C:\TMP\nn_denoise_rtc_sample.elf.zkP8Mf.ltrans1.ltrans.o
 *fill*         0x000000001ff6cde9        0x3 
 .sbss.ci_speex_decode_hander
                0x000000001ff6cdec        0x4 C:\TMP\nn_denoise_rtc_sample.elf.zkP8Mf.ltrans1.ltrans.o
 .sbss.ci_speex_encode_hander
                0x000000001ff6cdf0        0x4 C:\TMP\nn_denoise_rtc_sample.elf.zkP8Mf.ltrans1.ltrans.o
 .sbss.cinv_mutex
                0x000000001ff6cdf4        0x4 C:\TMP\nn_denoise_rtc_sample.elf.zkP8Mf.ltrans1.ltrans.o
 .sbss.cnt.7384
                0x000000001ff6cdf8        0x4 C:\TMP\nn_denoise_rtc_sample.elf.zkP8Mf.ltrans1.ltrans.o
 .sbss.efuse_writer
                0x000000001ff6cdfc        0x4 C:\TMP\nn_denoise_rtc_sample.elf.zkP8Mf.ltrans1.ltrans.o
 .sbss.eq_msg_recv_queue
                0x000000001ff6ce00        0x4 C:\TMP\nn_denoise_rtc_sample.elf.zkP8Mf.ltrans1.ltrans.o
 .sbss.eq_port  0x000000001ff6ce04        0x1 C:\TMP\nn_denoise_rtc_sample.elf.zkP8Mf.ltrans1.ltrans.o
 *fill*         0x000000001ff6ce05        0x3 
 .sbss.g_audio_rx_index
                0x000000001ff6ce08        0x4 C:\TMP\nn_denoise_rtc_sample.elf.zkP8Mf.ltrans1.ltrans.o
 .sbss.g_dma_channel_callback
                0x000000001ff6ce0c        0x8 C:\TMP\nn_denoise_rtc_sample.elf.zkP8Mf.ltrans1.ltrans.o
 .sbss.g_dma_translate_ok
                0x000000001ff6ce14        0x8 C:\TMP\nn_denoise_rtc_sample.elf.zkP8Mf.ltrans1.ltrans.o
 .sbss.g_drc_param
                0x000000001ff6ce1c        0x4 C:\TMP\nn_denoise_rtc_sample.elf.zkP8Mf.ltrans1.ltrans.o
 .sbss.g_eq_param
                0x000000001ff6ce20        0x4 C:\TMP\nn_denoise_rtc_sample.elf.zkP8Mf.ltrans1.ltrans.o
 .sbss.g_pa_pin_valid_level
                0x000000001ff6ce24        0x4 C:\TMP\nn_denoise_rtc_sample.elf.zkP8Mf.ltrans1.ltrans.o
 .sbss.g_start_handle_ifft_data_flag
                0x000000001ff6ce28        0x1 C:\TMP\nn_denoise_rtc_sample.elf.zkP8Mf.ltrans1.ltrans.o
 .sbss.iis_pad_for_clk_input_flag
                0x000000001ff6ce29        0x1 C:\TMP\nn_denoise_rtc_sample.elf.zkP8Mf.ltrans1.ltrans.o
 .sbss.is_convert_left_right
                0x000000001ff6ce2a        0x1 C:\TMP\nn_denoise_rtc_sample.elf.zkP8Mf.ltrans1.ltrans.o
 *fill*         0x000000001ff6ce2b        0x1 
 .sbss.max_cmd_string_table_size
                0x000000001ff6ce2c        0x4 C:\TMP\nn_denoise_rtc_sample.elf.zkP8Mf.ltrans1.ltrans.o
 .sbss.max_command_number
                0x000000001ff6ce30        0x2 C:\TMP\nn_denoise_rtc_sample.elf.zkP8Mf.ltrans1.ltrans.o
 .sbss.max_special_word_number
                0x000000001ff6ce32        0x2 C:\TMP\nn_denoise_rtc_sample.elf.zkP8Mf.ltrans1.ltrans.o
 .sbss.network_msg_recv_queue
                0x000000001ff6ce34        0x4 C:\TMP\nn_denoise_rtc_sample.elf.zkP8Mf.ltrans1.ltrans.o
 .sbss.pxCurrentTimerList
                0x000000001ff6ce38        0x4 C:\TMP\nn_denoise_rtc_sample.elf.zkP8Mf.ltrans1.ltrans.o
 .sbss.pxEnd    0x000000001ff6ce3c        0x4 C:\TMP\nn_denoise_rtc_sample.elf.zkP8Mf.ltrans1.ltrans.o
 .sbss.pxOverflowTimerList
                0x000000001ff6ce40        0x4 C:\TMP\nn_denoise_rtc_sample.elf.zkP8Mf.ltrans1.ltrans.o
 .sbss.speex_init_flag
                0x000000001ff6ce44        0x1 C:\TMP\nn_denoise_rtc_sample.elf.zkP8Mf.ltrans1.ltrans.o
 *fill*         0x000000001ff6ce45        0x3 
 .sbss.tmp_voice_addr
                0x000000001ff6ce48        0x4 C:\TMP\nn_denoise_rtc_sample.elf.zkP8Mf.ltrans1.ltrans.o
 .sbss.trans_id
                0x000000001ff6ce4c        0x4 C:\TMP\nn_denoise_rtc_sample.elf.zkP8Mf.ltrans1.ltrans.o
 .sbss.uart_dma_trans_done
                0x000000001ff6ce50        0x1 C:\TMP\nn_denoise_rtc_sample.elf.zkP8Mf.ltrans1.ltrans.o
 *fill*         0x000000001ff6ce51        0x3 
 .sbss.uxDeletedTasksWaitingCleanUp
                0x000000001ff6ce54        0x4 C:\TMP\nn_denoise_rtc_sample.elf.zkP8Mf.ltrans1.ltrans.o
 .sbss.uxPendedTicks
                0x000000001ff6ce58        0x4 C:\TMP\nn_denoise_rtc_sample.elf.zkP8Mf.ltrans1.ltrans.o
 .sbss.xBlockAllocatedBit
                0x000000001ff6ce5c        0x4 C:\TMP\nn_denoise_rtc_sample.elf.zkP8Mf.ltrans1.ltrans.o
 .sbss.xFreeBytesRemaining
                0x000000001ff6ce60        0x4 C:\TMP\nn_denoise_rtc_sample.elf.zkP8Mf.ltrans1.ltrans.o
 .sbss.xIdleTaskHandle
                0x000000001ff6ce64        0x4 C:\TMP\nn_denoise_rtc_sample.elf.zkP8Mf.ltrans1.ltrans.o
 .sbss.xLastTime.4367
                0x000000001ff6ce68        0x4 C:\TMP\nn_denoise_rtc_sample.elf.zkP8Mf.ltrans1.ltrans.o
 .sbss.xMinimumEverFreeBytesRemaining
                0x000000001ff6ce6c        0x4 C:\TMP\nn_denoise_rtc_sample.elf.zkP8Mf.ltrans1.ltrans.o
 .sbss.xNextTaskUnblockTime
                0x000000001ff6ce70        0x4 C:\TMP\nn_denoise_rtc_sample.elf.zkP8Mf.ltrans1.ltrans.o
 .sbss.xSpeexPlayStreamBuffer
                0x000000001ff6ce74        0x4 C:\TMP\nn_denoise_rtc_sample.elf.zkP8Mf.ltrans1.ltrans.o
 .sbss.xSpeexRecordStreamBuffer
                0x000000001ff6ce78        0x4 C:\TMP\nn_denoise_rtc_sample.elf.zkP8Mf.ltrans1.ltrans.o
 .sbss.xStart   0x000000001ff6ce7c        0x8 C:\TMP\nn_denoise_rtc_sample.elf.zkP8Mf.ltrans1.ltrans.o
 .sbss.xTimerTaskHandle
                0x000000001ff6ce84        0x4 C:\TMP\nn_denoise_rtc_sample.elf.zkP8Mf.ltrans1.ltrans.o
 .sbss.heapBytesRemaining
                0x000000001ff6ce88        0x4 ../../../libs\libnewlib_port.a(sbrk.o)
 .sbss._global_atexit
                0x000000001ff6ce8c        0x4 d:/software/yuyin/qiqiyinqiluntai/riscv-nuclei-elf-gcc-9.2.0.0/gcc_fix_raissrc/bin/../lib/gcc/riscv-nuclei-elf/9.2.0/../../../../riscv-nuclei-elf/lib/rv32imafc/ilp32f\libg_nano.a(lib_a-__call_atexit.o)
                0x000000001ff6ce8c                _global_atexit
 .sbss.__malloc_free_list
                0x000000001ff6ce90        0x4 d:/software/yuyin/qiqiyinqiluntai/riscv-nuclei-elf-gcc-9.2.0.0/gcc_fix_raissrc/bin/../lib/gcc/riscv-nuclei-elf/9.2.0/../../../../riscv-nuclei-elf/lib/rv32imafc/ilp32f\libg_nano.a(lib_a-nano-mallocr.o)
                0x000000001ff6ce90                __malloc_free_list
 .sbss.__malloc_sbrk_start
                0x000000001ff6ce94        0x4 d:/software/yuyin/qiqiyinqiluntai/riscv-nuclei-elf-gcc-9.2.0.0/gcc_fix_raissrc/bin/../lib/gcc/riscv-nuclei-elf/9.2.0/../../../../riscv-nuclei-elf/lib/rv32imafc/ilp32f\libg_nano.a(lib_a-nano-mallocr.o)
                0x000000001ff6ce94                __malloc_sbrk_start
 *(.gnu.linkonce.sb.*)
 *(.bss .bss.*)
 .bss.cinv_mang_r.lto_priv.0
                0x000000001ff6ce98        0xc C:\TMP\nn_denoise_rtc_sample.elf.zkP8Mf.ltrans0.ltrans.o
                0x000000001ff6ce98                cinv_mang_r.lto_priv.0
 .bss.cinv_rd_io_buf.lto_priv.0
                0x000000001ff6cea4      0x100 C:\TMP\nn_denoise_rtc_sample.elf.zkP8Mf.ltrans0.ltrans.o
                0x000000001ff6cea4                cinv_rd_io_buf.lto_priv.0
 .bss.cinv_wr_io_buf.lto_priv.0
                0x000000001ff6cfa4      0x100 C:\TMP\nn_denoise_rtc_sample.elf.zkP8Mf.ltrans0.ltrans.o
                0x000000001ff6cfa4                cinv_wr_io_buf.lto_priv.0
 .bss.cm.lto_priv.0
                0x000000001ff6d0a4      0x554 C:\TMP\nn_denoise_rtc_sample.elf.zkP8Mf.ltrans0.ltrans.o
                0x000000001ff6d0a4                cm.lto_priv.0
 .bss.cmd_info_variable
                0x000000001ff6d5f8       0x34 C:\TMP\nn_denoise_rtc_sample.elf.zkP8Mf.ltrans0.ltrans.o
                0x000000001ff6d5f8                cmd_info_variable
 .bss.eq_gain_str
                0x000000001ff6d62c       0x28 C:\TMP\nn_denoise_rtc_sample.elf.zkP8Mf.ltrans0.ltrans.o
 .bss.g_model_parameter_info
                0x000000001ff6d654       0x1c C:\TMP\nn_denoise_rtc_sample.elf.zkP8Mf.ltrans0.ltrans.o
 .bss.init_eq_drc_val
                0x000000001ff6d670       0x44 C:\TMP\nn_denoise_rtc_sample.elf.zkP8Mf.ltrans0.ltrans.o
                0x000000001ff6d670                init_eq_drc_val
 .bss.nuclear_com_serve_irq_cal
                0x000000001ff6d6b4       0x24 C:\TMP\nn_denoise_rtc_sample.elf.zkP8Mf.ltrans0.ltrans.o
                0x000000001ff6d6b4                nuclear_com_serve_irq_cal
 .bss.pxReadyTasksLists.lto_priv.0
                0x000000001ff6d6d8       0x78 C:\TMP\nn_denoise_rtc_sample.elf.zkP8Mf.ltrans0.ltrans.o
                0x000000001ff6d6d8                pxReadyTasksLists.lto_priv.0
 .bss.rcv_ifft_data_msg
                0x000000001ff6d750      0x2bc C:\TMP\nn_denoise_rtc_sample.elf.zkP8Mf.ltrans0.ltrans.o
                0x000000001ff6d750                rcv_ifft_data_msg
 .bss.remote_call_module
                0x000000001ff6da0c       0x5c C:\TMP\nn_denoise_rtc_sample.elf.zkP8Mf.ltrans0.ltrans.o
                0x000000001ff6da0c                remote_call_module
 .bss.send_ifft_data_msg
                0x000000001ff6da68      0x2bc C:\TMP\nn_denoise_rtc_sample.elf.zkP8Mf.ltrans0.ltrans.o
 .bss.speexOutDecFrame
                0x000000001ff6dd24      0x280 C:\TMP\nn_denoise_rtc_sample.elf.zkP8Mf.ltrans0.ltrans.o
                0x000000001ff6dd24                speexOutDecFrame
 .bss.speex_dst_addr
                0x000000001ff6dfa4       0x40 C:\TMP\nn_denoise_rtc_sample.elf.zkP8Mf.ltrans0.ltrans.o
                0x000000001ff6dfa4                speex_dst_addr
 .bss.speex_rx_temp
                0x000000001ff6dfe4      0x280 C:\TMP\nn_denoise_rtc_sample.elf.zkP8Mf.ltrans0.ltrans.o
                0x000000001ff6dfe4                speex_rx_temp
 .bss.xDelayedTaskList1.5214
                0x000000001ff6e264       0x14 C:\TMP\nn_denoise_rtc_sample.elf.zkP8Mf.ltrans0.ltrans.o
 .bss.xDelayedTaskList2.5215
                0x000000001ff6e278       0x14 C:\TMP\nn_denoise_rtc_sample.elf.zkP8Mf.ltrans0.ltrans.o
 .bss.xPendingReadyList.lto_priv.0
                0x000000001ff6e28c       0x14 C:\TMP\nn_denoise_rtc_sample.elf.zkP8Mf.ltrans0.ltrans.o
                0x000000001ff6e28c                xPendingReadyList.lto_priv.0
 .bss.xSuspendedTaskList.lto_priv.0
                0x000000001ff6e2a0       0x14 C:\TMP\nn_denoise_rtc_sample.elf.zkP8Mf.ltrans0.ltrans.o
                0x000000001ff6e2a0                xSuspendedTaskList.lto_priv.0
 .bss.xTasksWaitingTermination.lto_priv.0
                0x000000001ff6e2b4       0x14 C:\TMP\nn_denoise_rtc_sample.elf.zkP8Mf.ltrans0.ltrans.o
                0x000000001ff6e2b4                xTasksWaitingTermination.lto_priv.0
 .bss.cias_speex_wb_mode
                0x000000001ff6e2c8       0x34 C:\TMP\nn_denoise_rtc_sample.elf.zkP8Mf.ltrans1.ltrans.o
 .bss.cmd_file_header
                0x000000001ff6e2fc       0x19 C:\TMP\nn_denoise_rtc_sample.elf.zkP8Mf.ltrans1.ltrans.o
 *fill*         0x000000001ff6e315        0x3 
 .bss.g_audio_rx_temp
                0x000000001ff6e318       0x2b C:\TMP\nn_denoise_rtc_sample.elf.zkP8Mf.ltrans1.ltrans.o
 *fill*         0x000000001ff6e343        0x1 
 .bss.g_gpio_callback_list_root
                0x000000001ff6e344       0x30 C:\TMP\nn_denoise_rtc_sample.elf.zkP8Mf.ltrans1.ltrans.o
 .bss.iic0_status
                0x000000001ff6e374       0x28 C:\TMP\nn_denoise_rtc_sample.elf.zkP8Mf.ltrans1.ltrans.o
 .bss.model_header
                0x000000001ff6e39c       0x1c C:\TMP\nn_denoise_rtc_sample.elf.zkP8Mf.ltrans1.ltrans.o
 .bss.partition_table
                0x000000001ff6e3b8      0x116 C:\TMP\nn_denoise_rtc_sample.elf.zkP8Mf.ltrans1.ltrans.o
 *fill*         0x000000001ff6e4ce        0x2 
 .bss.printk_string
                0x000000001ff6e4d0      0x200 C:\TMP\nn_denoise_rtc_sample.elf.zkP8Mf.ltrans1.ltrans.o
 .bss.recv_pcm_buf
                0x000000001ff6e6d0       0x2b C:\TMP\nn_denoise_rtc_sample.elf.zkP8Mf.ltrans1.ltrans.o
 *fill*         0x000000001ff6e6fb        0x1 
 .bss.sg_init_tmp_str
                0x000000001ff6e6fc       0x14 C:\TMP\nn_denoise_rtc_sample.elf.zkP8Mf.ltrans1.ltrans.o
 .bss.speex_play_data
                0x000000001ff6e710      0x200 C:\TMP\nn_denoise_rtc_sample.elf.zkP8Mf.ltrans1.ltrans.o
 .bss.speex_play_temp
                0x000000001ff6e910      0x200 C:\TMP\nn_denoise_rtc_sample.elf.zkP8Mf.ltrans1.ltrans.o
 .bss.xActiveTimerList1.4413
                0x000000001ff6eb10       0x14 C:\TMP\nn_denoise_rtc_sample.elf.zkP8Mf.ltrans1.ltrans.o
 .bss.xActiveTimerList2.4414
                0x000000001ff6eb24       0x14 C:\TMP\nn_denoise_rtc_sample.elf.zkP8Mf.ltrans1.ltrans.o
 .bss.xQueueRegistry
                0x000000001ff6eb38       0x50 C:\TMP\nn_denoise_rtc_sample.elf.zkP8Mf.ltrans1.ltrans.o
 .bss.xdata     0x000000001ff6eb88       0x10 C:\TMP\nn_denoise_rtc_sample.elf.zkP8Mf.ltrans1.ltrans.o
 .bss._global_atexit0
                0x000000001ff6eb98       0x8c d:/software/yuyin/qiqiyinqiluntai/riscv-nuclei-elf-gcc-9.2.0.0/gcc_fix_raissrc/bin/../lib/gcc/riscv-nuclei-elf/9.2.0/../../../../riscv-nuclei-elf/lib/rv32imafc/ilp32f\libg_nano.a(lib_a-__atexit.o)
 *(.gnu.linkonce.b.*)
 *(COMMON)
 COMMON         0x000000001ff6ec24        0x4 d:/software/yuyin/qiqiyinqiluntai/riscv-nuclei-elf-gcc-9.2.0.0/gcc_fix_raissrc/bin/../lib/gcc/riscv-nuclei-elf/9.2.0/../../../../riscv-nuclei-elf/lib/rv32imafc/ilp32f\libg_nano.a(lib_a-reent.o)
                0x000000001ff6ec24                errno
                0x000000001ff6ec28                . = ALIGN (0x4)
                0x000000001ff6ec28                . = ALIGN (0x8)
                0x000000001ff6ec28                PROVIDE (__bss_end = .)

.no_init        0x000000001ff6ec28        0x0
 *(.no_init)
                0x000000001ff6ec28                . = ALIGN (0x4)
                0x000000001ff6ec28                . = ALIGN (0x8)
                [!provide]                        PROVIDE (_end = .)
                [!provide]                        PROVIDE (end = .)

.stack          0x000000001ff6ec28      0xc00
                0x0000000000000c00                . = __stack_size
 *fill*         0x000000001ff6ec28      0xc00 
                0x000000001ff6f828                PROVIDE (_sp = .)

.sys_heap       0x000000001ff6f828    0x37000
                0x000000001ff6f828                PROVIDE (__FREERTOSHEAP_START = .)
                0x0000000000037000                . = SYS_HEAP_SIZE
 *fill*         0x000000001ff6f828    0x37000 
                0x000000001ffa6828                PROVIDE (__FREERTOSHEAP_END = .)

.heap_start     0x000000001ffa6828        0x0
                0x000000001ffa6828                PROVIDE (heap_start = .)

.heap_end       0x000000001ffd8000        0x0 load address 0x000000001ffa6828
                0x000000001ffd8000                PROVIDE (heap_end = .)
                0x000000001ffd8000                PROVIDE (__befor_os_int_sp = .)
                0x000000001ff51000                START_ADDR = SRAM_START_ADDR
                0x0000000000000000                LOAD_TYPE = 0x0
                0x0000000000000000                ITCM_EN = 0x0
                0x0000000000000000                STCM_EN = 0x0
                0x0000000000000000                ICACHE_EN = 0x0
                0x00000000ffffffff                ICACHE_START_ADDR = 0xffffffff
                0x00000000ffffffff                ICACHE_END_ADDR = 0xffffffff
                0x00000000ffffffff                ICACHE_ALIAS_ADDR = 0xffffffff
                0x0000000000000000                SCACHE_EN = 0x0
                0x00000000ffffffff                SCACHE_START_ADDR = 0xffffffff
                0x00000000ffffffff                SCACHE_END_ADDR = 0xffffffff
                0x00000000ffffffff                SCACHE_ALIAS_ADDR = 0xffffffff
OUTPUT(build/nn_denoise_rtc_sample.elf elf32-littleriscv)

.debug_info     0x0000000000000000    0x8b35b
 .debug_info    0x0000000000000000     0xb46b C:\TMP\nn_denoise_rtc_sample.elf.zkP8Mf.ltrans0.ltrans.o
 .debug_info    0x000000000000b46b     0xc294 C:\TMP\nn_denoise_rtc_sample.elf.zkP8Mf.ltrans1.ltrans.o
 .debug_info    0x00000000000176ff     0x134b C:\TMP\ccRe2uM9.debug.temp.o
                0x00000000000176ff                ci130x_init.c.6e018bb6
 .debug_info    0x0000000000018a4a      0xa68 C:\TMP\ccic4sZX.debug.temp.o
                0x0000000000018a4a                ci130x_it.c.fb3b90f9
 .debug_info    0x00000000000194b2      0xa03 C:\TMP\ccZbbPsL.debug.temp.o
                0x00000000000194b2                ci130x_system.c.a257a226
 .debug_info    0x0000000000019eb5     0x16f1 C:\TMP\ccatLr9y.debug.temp.o
                0x0000000000019eb5                platform_config.c.f199f23f
 .debug_info    0x000000000001b5a6      0xff7 C:\TMP\ccXzUNGm.debug.temp.o
                0x000000000001b5a6                ci130x_handlers.c.e5382d6e
 .debug_info    0x000000000001c59d      0x443 C:\TMP\cc330RJ5.debug.temp.o
                0x000000000001c59d                debug_time_consuming.c.d1f9fad3
 .debug_info    0x000000000001c9e0      0xf14 C:\TMP\ccZMJiVO.debug.temp.o
                0x000000000001c9e0                event_groups.c.0febf416
 .debug_info    0x000000000001d8f4      0xb24 C:\TMP\ccWQiWxG.debug.temp.o
                0x000000000001d8f4                list.c.5f578c3c
 .debug_info    0x000000000001e418     0x1eb3 C:\TMP\ccPQC6ey.debug.temp.o
                0x000000000001e418                queue.c.f18a4fd5
 .debug_info    0x00000000000202cb     0x1b1b C:\TMP\ccEO8o3o.debug.temp.o
                0x00000000000202cb                stream_buffer.c.c4f2ce7e
 .debug_info    0x0000000000021de6     0x2697 C:\TMP\cchENCig.debug.temp.o
                0x0000000000021de6                tasks.c.0d00e57e
 .debug_info    0x000000000002447d     0x1285 C:\TMP\ccugKzo7.debug.temp.o
                0x000000000002447d                timers.c.f1c7be6b
 .debug_info    0x0000000000025702     0x1463 C:\TMP\cc33AVKX.debug.temp.o
                0x0000000000025702                heap_4.c.863491fb
 .debug_info    0x0000000000026b65     0x144b C:\TMP\ccub8EbO.debug.temp.o
                0x0000000000026b65                ci_log.c.655e247d
 .debug_info    0x0000000000027fb0      0x946 C:\TMP\ccBctBoE.debug.temp.o
                0x0000000000027fb0                ota_aes.c.c132bd4f
 .debug_info    0x00000000000288f6      0xeb6 C:\TMP\ccsvVA2u.debug.temp.o
                0x00000000000288f6                ota_partition_verify.c.bd720ae6
 .debug_info    0x00000000000297ac      0xbb7 C:\TMP\ccm9P8dc.debug.temp.o
                0x00000000000297ac                UARTCommandConsole.c.5489ef27
 .debug_info    0x000000000002a363      0xc8d C:\TMP\ccGmwnCR.debug.temp.o
                0x000000000002a363                Sample_CLI_commands.c.4c5124f3
 .debug_info    0x000000000002aff0     0x1e69 C:\TMP\cc5Q5juH.debug.temp.o
                0x000000000002aff0                ci_flash_data_info.c.ba0bcba8
 .debug_info    0x000000000002ce59      0xd56 C:\TMP\ccQCgkjB.debug.temp.o
                0x000000000002ce59                flash_control_inner_port.c.14ce43fc
 .debug_info    0x000000000002dbaf     0x179a C:\TMP\ccdKMs3u.debug.temp.o
                0x000000000002dbaf                audio_play_api.c.04189af3
 .debug_info    0x000000000002f349     0x218e C:\TMP\ccoBX6Ro.debug.temp.o
                0x000000000002f349                audio_play_decoder.c.cfe95bd1
 .debug_info    0x00000000000314d7     0x215f C:\TMP\ccnkhG7i.debug.temp.o
                0x00000000000314d7                audio_play_process.c.07a6607e
 .debug_info    0x0000000000033636     0x15f2 C:\TMP\cc3gXLr6.debug.temp.o
                0x0000000000033636                audio_play_device.c.52688dd9
 .debug_info    0x0000000000034c28      0xb00 C:\TMP\ccwmqzwk.debug.temp.o
                0x0000000000034c28                flacdecoder.c.21a6ec45
 .debug_info    0x0000000000035728      0xe93 C:\TMP\cc2DHBC6.debug.temp.o
                0x0000000000035728                status_share.c.847ef70e
 .debug_info    0x00000000000365bb     0x1dcd C:\TMP\cc5K0wMY.debug.temp.o
                0x00000000000365bb                ci_nvdata_manage.c.a51a3e76
 .debug_info    0x0000000000038388      0xb22 C:\TMP\ccEc4I9Q.debug.temp.o
                0x0000000000038388                ci_nvdata_port.c.6805ad1d
 .debug_info    0x0000000000038eaa     0x168a C:\TMP\ccJkRDnJ.debug.temp.o
                0x0000000000038eaa                command_file_reader.c.7792315e
 .debug_info    0x000000000003a534     0x1b79 C:\TMP\cccNwCyF.debug.temp.o
                0x000000000003a534                command_info.c.df02c128
 .debug_info    0x000000000003c0ad     0x1226 C:\TMP\ccrq3XNB.debug.temp.o
                0x000000000003c0ad                prompt_player.c.f1a2ac58
 .debug_info    0x000000000003d2d3     0x1329 C:\TMP\cccKj2Tx.debug.temp.o
                0x000000000003d2d3                audio_in_manage_inner.c.cb7b4d15
 .debug_info    0x000000000003e5fc      0xe48 C:\TMP\ccR4x2qu.debug.temp.o
                0x000000000003e5fc                ci_key.c.997e3131
 .debug_info    0x000000000003f444      0x9c1 C:\TMP\cccP6nKq.debug.temp.o
                0x000000000003f444                asr_malloc_port.c.1f294369
 .debug_info    0x000000000003fe05     0x2405 C:\TMP\cc7UZkPd.debug.temp.o
                0x000000000003fe05                codec_manager.c.5a9ee7cf
 .debug_info    0x000000000004220a      0xe91 C:\TMP\ccGE8QB9.debug.temp.o
                0x000000000004220a                codec_manage_inner_port.c.705159ca
 .debug_info    0x000000000004309b     0x20c1 C:\TMP\ccBWptpV.debug.temp.o
                0x000000000004309b                voice_module_uart_protocol.c.95e2d36a
 .debug_info    0x000000000004515c      0xc8b C:\TMP\ccURSunQ.debug.temp.o
                0x000000000004515c                color_light_control.c.2f41573e
 .debug_info    0x0000000000045de7     0x14cc C:\TMP\ccAsH6WR.debug.temp.o
                0x0000000000045de7                ci130x_audio_pre_rslt_out.c.c79604a4
 .debug_info    0x00000000000472b3      0xf68 C:\TMP\cc5XVEJS.debug.temp.o
                0x00000000000472b3                ci130x_core_eclic.c.bb8277bd
 .debug_info    0x000000000004821b      0xafe C:\TMP\cckLhgXT.debug.temp.o
                0x000000000004821b                ci130x_core_timer.c.10c90f8e
 .debug_info    0x0000000000048d19     0x1870 C:\TMP\ccbqv85U.debug.temp.o
                0x0000000000048d19                ci130x_dma.c.3905f0a9
 .debug_info    0x000000000004a589     0x1d7c C:\TMP\ccytHTqV.debug.temp.o
                0x000000000004a589                ci130x_codec.c.ec678948
 .debug_info    0x000000000004c305      0xaed C:\TMP\ccV11MQW.debug.temp.o
                0x000000000004c305                ci130x_iisdma.c.a57e4bba
 .debug_info    0x000000000004cdf2      0xa8d C:\TMP\ccsstjAW.debug.temp.o
                0x000000000004cdf2                ci130x_core_misc.c.718191a2
 .debug_info    0x000000000004d87f     0x1a0d C:\TMP\ccx6oqaW.debug.temp.o
                0x000000000004d87f                ci130x_iis.c.d5b35c43
 .debug_info    0x000000000004f28c      0x7af C:\TMP\cco5IAbW.debug.temp.o
                0x000000000004f28c                ci130x_adc.c.9c2fee5f
 .debug_info    0x000000000004fa3b      0xf8e C:\TMP\ccVBBfhW.debug.temp.o
                0x000000000004fa3b                ci130x_gpio.c.e7216020
 .debug_info    0x00000000000509c9     0x17fd C:\TMP\cc8x4vdW.debug.temp.o
                0x00000000000509c9                ci130x_iic.c.879da360
 .debug_info    0x00000000000521c6     0x13da C:\TMP\ccbMp0wT.debug.temp.o
                0x00000000000521c6                ci130x_uart.c.02bb07ee
 .debug_info    0x00000000000535a0      0xe35 C:\TMP\cc8HGUPS.debug.temp.o
                0x00000000000535a0                ci130x_lowpower.c.96cd64e9
 .debug_info    0x00000000000543d5      0xafa C:\TMP\ccBEpL5V.debug.temp.o
                0x00000000000543d5                ci130x_iwdg.c.e2dc3a45
 .debug_info    0x0000000000054ecf     0x1638 C:\TMP\ccyhfa85.debug.temp.o
                0x0000000000054ecf                board.c.3b8909cb
 .debug_info    0x0000000000056507      0xbd6 C:\TMP\cc9xWLM8.debug.temp.o
                0x0000000000056507                board_default.c.600cf7b2
 .debug_info    0x00000000000570dd       0xcd C:\TMP\ccEbBLvb.debug.temp.o
                0x00000000000570dd                dichotomy_find.c.75a3f266
 .debug_info    0x00000000000571aa      0x208 C:\TMP\ccRhR60d.debug.temp.o
                0x00000000000571aa                crc.c.6488d178
 .debug_info    0x00000000000573b2     0x121c C:\TMP\ccM6qmXg.debug.temp.o
                0x00000000000573b2                main.c.495db971
 .debug_info    0x00000000000585ce     0x1c86 C:\TMP\ccdIFWXj.debug.temp.o
                0x00000000000585ce                iis0_sample.c.0694f8ef
 .debug_info    0x000000000005a254     0x25da C:\TMP\ccV9u5Un.debug.temp.o
                0x000000000005a254                system_msg_deal.c.d298da52
 .debug_info    0x000000000005c82e     0x1227 C:\TMP\ccQAqWfq.debug.temp.o
                0x000000000005c82e                user_msg_deal.c.0f11b786
 .debug_info    0x000000000005da55     0x107e C:\TMP\ccHX6jFs.debug.temp.o
                0x000000000005da55                ci_ssp_config.c.d56c3d7e
 .debug_info    0x000000000005ead3     0x1bfb C:\TMP\cc6xhiVu.debug.temp.o
                0x000000000005ead3                ci_uart_audio_data_handle.c.f1cf21e1
 .debug_info    0x00000000000606ce     0x11c7 C:\TMP\ccXWohnw.debug.temp.o
                0x00000000000606ce                ci_uart_eq_param.c.4af1fef3
 .debug_info    0x0000000000061895      0xea9 C:\TMP\ccmz0QFx.debug.temp.o
                0x0000000000061895                bits.c.72a86efb
 .debug_info    0x000000000006273e     0x12c9 C:\TMP\cczVgW2y.debug.temp.o
                0x000000000006273e                cb_search.c.ed8fbe44
 .debug_info    0x0000000000063a07       0x53 C:\TMP\ccy6oWQA.debug.temp.o
                0x0000000000063a07                exc_5_64_table.c.c07d399a
 .debug_info    0x0000000000063a5a       0x53 C:\TMP\cc50xFvC.debug.temp.o
                0x0000000000063a5a                exc_5_256_table.c.e55b8924
 .debug_info    0x0000000000063aad       0x53 C:\TMP\cc4nq0bI.debug.temp.o
                0x0000000000063aad                exc_8_128_table.c.c8347ff2
 .debug_info    0x0000000000063b00       0x52 C:\TMP\ccN0MuCN.debug.temp.o
                0x0000000000063b00                exc_10_16_table.c.5b155625
 .debug_info    0x0000000000063b52       0x53 C:\TMP\cceSZ1tT.debug.temp.o
                0x0000000000063b52                exc_10_32_table.c.e5e52eba
 .debug_info    0x0000000000063ba5       0x53 C:\TMP\cctXkWpZ.debug.temp.o
                0x0000000000063ba5                exc_20_32_table.c.ec721104
 .debug_info    0x0000000000063bf8     0x146c C:\TMP\ccoWt374.debug.temp.o
                0x0000000000063bf8                filters.c.c570380c
 .debug_info    0x0000000000065064       0x53 C:\TMP\ccD3fz69.debug.temp.o
                0x0000000000065064                gain_table.c.e737433f
 .debug_info    0x00000000000650b7       0x52 C:\TMP\ccMxZs9e.debug.temp.o
                0x00000000000650b7                gain_table_lbr.c.67f5990f
 .debug_info    0x0000000000065109       0x53 C:\TMP\ccDukIYj.debug.temp.o
                0x0000000000065109                hexc_10_32_table.c.c5347ecc
 .debug_info    0x000000000006515c       0x53 C:\TMP\ccGlFAco.debug.temp.o
                0x000000000006515c                hexc_table.c.e2b9a1b5
 .debug_info    0x00000000000651af       0x5f C:\TMP\ccvxowRs.debug.temp.o
                0x00000000000651af                high_lsp_tables.c.11e6c06c
 .debug_info    0x000000000006520e     0x10f5 C:\TMP\cc8YymFx.debug.temp.o
                0x000000000006520e                kiss_fft.c.e3dc0e04
 .debug_info    0x0000000000066303      0x175 C:\TMP\ccaZgpaG.debug.temp.o
                0x0000000000066303                lpc.c.9a498074
 .debug_info    0x0000000000066478      0xd00 C:\TMP\ccJoDn5J.debug.temp.o
                0x0000000000066478                lsp.c.4a968305
 .debug_info    0x0000000000067178       0x9a C:\TMP\ccQ1tWQN.debug.temp.o
                0x0000000000067178                lsp_tables_nb.c.28022414
 .debug_info    0x0000000000067212     0x153a C:\TMP\ccFTay3R.debug.temp.o
                0x0000000000067212                ltp.c.785809d4
 .debug_info    0x000000000006874c     0x1324 C:\TMP\cc6AqT6V.debug.temp.o
                0x000000000006874c                modes.c.84ba90f2
 .debug_info    0x0000000000069a70     0x129c C:\TMP\ccV61963.debug.temp.o
                0x0000000000069a70                modes_wb.c.8afc08d6
 .debug_info    0x000000000006ad0c     0x21c7 C:\TMP\ccq2XLTb.debug.temp.o
                0x000000000006ad0c                nb_celp.c.16a5a94c
 .debug_info    0x000000000006ced3      0xe20 C:\TMP\ccLSjj7j.debug.temp.o
                0x000000000006ced3                quant_lsp.c.ad2e9f09
 .debug_info    0x000000000006dcf3     0x1d2e C:\TMP\ccocCxEr.debug.temp.o
                0x000000000006dcf3                sb_celp.c.6ece58b8
 .debug_info    0x000000000006fa21     0x1363 C:\TMP\ccQPtw6E.debug.temp.o
                0x000000000006fa21                speex.c.888e6c53
 .debug_info    0x0000000000070d84      0xec7 C:\TMP\ccfwBp7L.debug.temp.o
                0x0000000000070d84                speex_callbacks.c.7f6c06e3
 .debug_info    0x0000000000071c4b      0x294 C:\TMP\ccNpeBGg.debug.temp.o
                0x0000000000071c4b                vq.c.ee7dc756
 .debug_info    0x0000000000071edf       0xbe C:\TMP\cc01EbPq.debug.temp.o
                0x0000000000071edf                window.c.d37ff0d0
 .debug_info    0x0000000000071f9d     0x10a0 C:\TMP\cc1veHoB.debug.temp.o
                0x0000000000071f9d                ci110x_speex.c.2f3f163b
 .debug_info    0x000000000007303d     0x151b C:\TMP\ccQJsI2L.debug.temp.o
                0x000000000007303d                asr_top_outside_port.c.2e466c91
 .debug_info    0x0000000000074558     0x110d C:\TMP\ccr0jXsW.debug.temp.o
                0x0000000000074558                decoder_inner_port_rpmsg.c.b310a49b
 .debug_info    0x0000000000075665     0x34a2 C:\TMP\ccijgA95.debug.temp.o
                0x0000000000075665                decoder_manage.c.760e2675
 .debug_info    0x0000000000078b07      0x1b4 C:\TMP\ccHPGNGf.debug.temp.o
                0x0000000000078b07                dynmic_confidence.c.9bb26918
 .debug_info    0x0000000000078cbb      0xfbb C:\TMP\ccU5Lwip.debug.temp.o
                0x0000000000078cbb                dnn_outside_port.c.c37167a0
 .debug_info    0x0000000000079c76     0x12c0 C:\TMP\cc3TjNgz.debug.temp.o
                0x0000000000079c76                flash_manage_outside_port.c.b48baff3
 .debug_info    0x000000000007af36      0xeb2 C:\TMP\ccs0E09I.debug.temp.o
                0x000000000007af36                vad_fe_outside_port.c.04b8d3a2
 .debug_info    0x000000000007bde8     0x14a2 C:\TMP\ccQTc5EO.debug.temp.o
                0x000000000007bde8                cmp_twice_confidence.c.9e6ca063
 .debug_info    0x000000000007d28a      0xf6d C:\TMP\ccA17twR.debug.temp.o
                0x000000000007d28a                port.c.4d161114
 .debug_info    0x000000000007e1f7      0x9af C:\TMP\cc8lCJ5S.debug.temp.o
                0x000000000007e1f7                ci130x_dsu.c.25c59ad6
 .debug_info    0x000000000007eba6      0xdcc C:\TMP\ccGIxAHT.debug.temp.o
                0x000000000007eba6                ci130x_mailbox.c.3231987c
 .debug_info    0x000000000007f972     0x136f C:\TMP\cc6yGvKU.debug.temp.o
                0x000000000007f972                ci130x_scu.c.3fdfa867
 .debug_info    0x0000000000080ce1      0x395 C:\TMP\cc0wL0DV.debug.temp.o
                0x0000000000080ce1                ci130x_efuse.c.7f29a68f
 .debug_info    0x0000000000081076     0x1355 C:\TMP\cceDtUNV.debug.temp.o
                0x0000000000081076                ci130x_dpmu.c.785f8ec3
 .debug_info    0x00000000000823cb     0x1126 C:\TMP\ccOGkUSV.debug.temp.o
                0x00000000000823cb                ci130x_nuclear_com.c.93f914cc
 .debug_info    0x00000000000834f1     0x179e C:\TMP\ccW7cbbW.debug.temp.o
                0x00000000000834f1                remote_api_for_host.c.45421faa
 .debug_info    0x0000000000084c8f       0x26 build/objs/ci130x_startup.o
 .debug_info    0x0000000000084cb5     0x1f7f ../../../libs\libnewlib_port.a(sbrk.o)
 .debug_info    0x0000000000086c34       0x26 ../../../libs\libfreertos_port.a(portasm.o)
 .debug_info    0x0000000000086c5a       0x26 d:/software/yuyin/qiqiyinqiluntai/riscv-nuclei-elf-gcc-9.2.0.0/gcc_fix_raissrc/bin/../lib/gcc/riscv-nuclei-elf/9.2.0/rv32imafc/ilp32f\libgcc.a(save-restore.o)
 .debug_info    0x0000000000086c80      0x5e4 d:/software/yuyin/qiqiyinqiluntai/riscv-nuclei-elf-gcc-9.2.0.0/gcc_fix_raissrc/bin/../lib/gcc/riscv-nuclei-elf/9.2.0/rv32imafc/ilp32f\libgcc.a(adddf3.o)
 .debug_info    0x0000000000087264      0x76f d:/software/yuyin/qiqiyinqiluntai/riscv-nuclei-elf-gcc-9.2.0.0/gcc_fix_raissrc/bin/../lib/gcc/riscv-nuclei-elf/9.2.0/rv32imafc/ilp32f\libgcc.a(divdf3.o)
 .debug_info    0x00000000000879d3      0x2a1 d:/software/yuyin/qiqiyinqiluntai/riscv-nuclei-elf-gcc-9.2.0.0/gcc_fix_raissrc/bin/../lib/gcc/riscv-nuclei-elf/9.2.0/rv32imafc/ilp32f\libgcc.a(eqdf2.o)
 .debug_info    0x0000000000087c74      0x28c d:/software/yuyin/qiqiyinqiluntai/riscv-nuclei-elf-gcc-9.2.0.0/gcc_fix_raissrc/bin/../lib/gcc/riscv-nuclei-elf/9.2.0/rv32imafc/ilp32f\libgcc.a(gedf2.o)
 .debug_info    0x0000000000087f00      0x28c d:/software/yuyin/qiqiyinqiluntai/riscv-nuclei-elf-gcc-9.2.0.0/gcc_fix_raissrc/bin/../lib/gcc/riscv-nuclei-elf/9.2.0/rv32imafc/ilp32f\libgcc.a(ledf2.o)
 .debug_info    0x000000000008818c      0x79b d:/software/yuyin/qiqiyinqiluntai/riscv-nuclei-elf-gcc-9.2.0.0/gcc_fix_raissrc/bin/../lib/gcc/riscv-nuclei-elf/9.2.0/rv32imafc/ilp32f\libgcc.a(muldf3.o)
 .debug_info    0x0000000000088927      0x5e4 d:/software/yuyin/qiqiyinqiluntai/riscv-nuclei-elf-gcc-9.2.0.0/gcc_fix_raissrc/bin/../lib/gcc/riscv-nuclei-elf/9.2.0/rv32imafc/ilp32f\libgcc.a(subdf3.o)
 .debug_info    0x0000000000088f0b      0x294 d:/software/yuyin/qiqiyinqiluntai/riscv-nuclei-elf-gcc-9.2.0.0/gcc_fix_raissrc/bin/../lib/gcc/riscv-nuclei-elf/9.2.0/rv32imafc/ilp32f\libgcc.a(unorddf2.o)
 .debug_info    0x000000000008919f      0x21d d:/software/yuyin/qiqiyinqiluntai/riscv-nuclei-elf-gcc-9.2.0.0/gcc_fix_raissrc/bin/../lib/gcc/riscv-nuclei-elf/9.2.0/rv32imafc/ilp32f\libgcc.a(fixdfsi.o)
 .debug_info    0x00000000000893bc      0x2bc d:/software/yuyin/qiqiyinqiluntai/riscv-nuclei-elf-gcc-9.2.0.0/gcc_fix_raissrc/bin/../lib/gcc/riscv-nuclei-elf/9.2.0/rv32imafc/ilp32f\libgcc.a(floatsidf.o)
 .debug_info    0x0000000000089678      0x2af d:/software/yuyin/qiqiyinqiluntai/riscv-nuclei-elf-gcc-9.2.0.0/gcc_fix_raissrc/bin/../lib/gcc/riscv-nuclei-elf/9.2.0/rv32imafc/ilp32f\libgcc.a(extendsfdf2.o)
 .debug_info    0x0000000000089927      0x2f3 d:/software/yuyin/qiqiyinqiluntai/riscv-nuclei-elf-gcc-9.2.0.0/gcc_fix_raissrc/bin/../lib/gcc/riscv-nuclei-elf/9.2.0/rv32imafc/ilp32f\libgcc.a(truncdfsf2.o)
 .debug_info    0x0000000000089c1a      0xbd7 d:/software/yuyin/qiqiyinqiluntai/riscv-nuclei-elf-gcc-9.2.0.0/gcc_fix_raissrc/bin/../lib/gcc/riscv-nuclei-elf/9.2.0/rv32imafc/ilp32f\libgcc.a(_clzsi2.o)
 .debug_info    0x000000000008a7f1      0xb6a d:/software/yuyin/qiqiyinqiluntai/riscv-nuclei-elf-gcc-9.2.0.0/gcc_fix_raissrc/bin/../lib/gcc/riscv-nuclei-elf/9.2.0/rv32imafc/ilp32f\libgcc.a(_clz.o)

.debug_abbrev   0x0000000000000000    0x1162d
 .debug_abbrev  0x0000000000000000      0x35e C:\TMP\nn_denoise_rtc_sample.elf.zkP8Mf.ltrans0.ltrans.o
 .debug_abbrev  0x000000000000035e      0x29e C:\TMP\nn_denoise_rtc_sample.elf.zkP8Mf.ltrans1.ltrans.o
 .debug_abbrev  0x00000000000005fc      0x2b7 C:\TMP\ccRe2uM9.debug.temp.o
 .debug_abbrev  0x00000000000008b3      0x1e9 C:\TMP\ccic4sZX.debug.temp.o
 .debug_abbrev  0x0000000000000a9c      0x1ec C:\TMP\ccZbbPsL.debug.temp.o
 .debug_abbrev  0x0000000000000c88      0x331 C:\TMP\ccatLr9y.debug.temp.o
 .debug_abbrev  0x0000000000000fb9      0x266 C:\TMP\ccXzUNGm.debug.temp.o
 .debug_abbrev  0x000000000000121f      0x125 C:\TMP\cc330RJ5.debug.temp.o
 .debug_abbrev  0x0000000000001344      0x25c C:\TMP\ccZMJiVO.debug.temp.o
 .debug_abbrev  0x00000000000015a0      0x20f C:\TMP\ccWQiWxG.debug.temp.o
 .debug_abbrev  0x00000000000017af      0x2ab C:\TMP\ccPQC6ey.debug.temp.o
 .debug_abbrev  0x0000000000001a5a      0x2b5 C:\TMP\ccEO8o3o.debug.temp.o
 .debug_abbrev  0x0000000000001d0f      0x2e2 C:\TMP\cchENCig.debug.temp.o
 .debug_abbrev  0x0000000000001ff1      0x25c C:\TMP\ccugKzo7.debug.temp.o
 .debug_abbrev  0x000000000000224d      0x2d6 C:\TMP\cc33AVKX.debug.temp.o
 .debug_abbrev  0x0000000000002523      0x2ba C:\TMP\ccub8EbO.debug.temp.o
 .debug_abbrev  0x00000000000027dd      0x1d5 C:\TMP\ccBctBoE.debug.temp.o
 .debug_abbrev  0x00000000000029b2      0x26d C:\TMP\ccsvVA2u.debug.temp.o
 .debug_abbrev  0x0000000000002c1f      0x27e C:\TMP\ccm9P8dc.debug.temp.o
 .debug_abbrev  0x0000000000002e9d      0x265 C:\TMP\ccGmwnCR.debug.temp.o
 .debug_abbrev  0x0000000000003102      0x353 C:\TMP\cc5Q5juH.debug.temp.o
 .debug_abbrev  0x0000000000003455      0x26a C:\TMP\ccQCgkjB.debug.temp.o
 .debug_abbrev  0x00000000000036bf      0x30f C:\TMP\ccdKMs3u.debug.temp.o
 .debug_abbrev  0x00000000000039ce      0x2fa C:\TMP\ccoBX6Ro.debug.temp.o
 .debug_abbrev  0x0000000000003cc8      0x377 C:\TMP\ccnkhG7i.debug.temp.o
 .debug_abbrev  0x000000000000403f      0x2db C:\TMP\cc3gXLr6.debug.temp.o
 .debug_abbrev  0x000000000000431a      0x1d6 C:\TMP\ccwmqzwk.debug.temp.o
 .debug_abbrev  0x00000000000044f0      0x274 C:\TMP\cc2DHBC6.debug.temp.o
 .debug_abbrev  0x0000000000004764      0x352 C:\TMP\cc5K0wMY.debug.temp.o
 .debug_abbrev  0x0000000000004ab6      0x242 C:\TMP\ccEc4I9Q.debug.temp.o
 .debug_abbrev  0x0000000000004cf8      0x2ce C:\TMP\ccJkRDnJ.debug.temp.o
 .debug_abbrev  0x0000000000004fc6      0x310 C:\TMP\cccNwCyF.debug.temp.o
 .debug_abbrev  0x00000000000052d6      0x347 C:\TMP\ccrq3XNB.debug.temp.o
 .debug_abbrev  0x000000000000561d      0x308 C:\TMP\cccKj2Tx.debug.temp.o
 .debug_abbrev  0x0000000000005925      0x28f C:\TMP\ccR4x2qu.debug.temp.o
 .debug_abbrev  0x0000000000005bb4      0x22d C:\TMP\cccP6nKq.debug.temp.o
 .debug_abbrev  0x0000000000005de1      0x39c C:\TMP\cc7UZkPd.debug.temp.o
 .debug_abbrev  0x000000000000617d      0x294 C:\TMP\ccGE8QB9.debug.temp.o
 .debug_abbrev  0x0000000000006411      0x388 C:\TMP\ccBWptpV.debug.temp.o
 .debug_abbrev  0x0000000000006799      0x294 C:\TMP\ccURSunQ.debug.temp.o
 .debug_abbrev  0x0000000000006a2d      0x2d7 C:\TMP\ccAsH6WR.debug.temp.o
 .debug_abbrev  0x0000000000006d04      0x2be C:\TMP\cc5XVEJS.debug.temp.o
 .debug_abbrev  0x0000000000006fc2      0x250 C:\TMP\cckLhgXT.debug.temp.o
 .debug_abbrev  0x0000000000007212      0x304 C:\TMP\ccbqv85U.debug.temp.o
 .debug_abbrev  0x0000000000007516      0x342 C:\TMP\ccytHTqV.debug.temp.o
 .debug_abbrev  0x0000000000007858      0x171 C:\TMP\ccV11MQW.debug.temp.o
 .debug_abbrev  0x00000000000079c9      0x203 C:\TMP\ccsstjAW.debug.temp.o
 .debug_abbrev  0x0000000000007bcc      0x2e1 C:\TMP\ccx6oqaW.debug.temp.o
 .debug_abbrev  0x0000000000007ead      0x191 C:\TMP\cco5IAbW.debug.temp.o
 .debug_abbrev  0x000000000000803e      0x2d2 C:\TMP\ccVBBfhW.debug.temp.o
 .debug_abbrev  0x0000000000008310      0x301 C:\TMP\cc8x4vdW.debug.temp.o
 .debug_abbrev  0x0000000000008611      0x2d0 C:\TMP\ccbMp0wT.debug.temp.o
 .debug_abbrev  0x00000000000088e1      0x32f C:\TMP\cc8HGUPS.debug.temp.o
 .debug_abbrev  0x0000000000008c10      0x20c C:\TMP\ccBEpL5V.debug.temp.o
 .debug_abbrev  0x0000000000008e1c      0x2c9 C:\TMP\ccyhfa85.debug.temp.o
 .debug_abbrev  0x00000000000090e5      0x236 C:\TMP\cc9xWLM8.debug.temp.o
 .debug_abbrev  0x000000000000931b       0x82 C:\TMP\ccEbBLvb.debug.temp.o
 .debug_abbrev  0x000000000000939d       0xc2 C:\TMP\ccRhR60d.debug.temp.o
 .debug_abbrev  0x000000000000945f      0x2c5 C:\TMP\ccM6qmXg.debug.temp.o
 .debug_abbrev  0x0000000000009724      0x2dd C:\TMP\ccdIFWXj.debug.temp.o
 .debug_abbrev  0x0000000000009a01      0x35c C:\TMP\ccV9u5Un.debug.temp.o
 .debug_abbrev  0x0000000000009d5d      0x310 C:\TMP\ccQAqWfq.debug.temp.o
 .debug_abbrev  0x000000000000a06d      0x268 C:\TMP\ccHX6jFs.debug.temp.o
 .debug_abbrev  0x000000000000a2d5      0x327 C:\TMP\cc6xhiVu.debug.temp.o
 .debug_abbrev  0x000000000000a5fc      0x2e6 C:\TMP\ccXWohnw.debug.temp.o
 .debug_abbrev  0x000000000000a8e2      0x2de C:\TMP\ccmz0QFx.debug.temp.o
 .debug_abbrev  0x000000000000abc0      0x291 C:\TMP\cczVgW2y.debug.temp.o
 .debug_abbrev  0x000000000000ae51       0x45 C:\TMP\ccy6oWQA.debug.temp.o
 .debug_abbrev  0x000000000000ae96       0x45 C:\TMP\cc50xFvC.debug.temp.o
 .debug_abbrev  0x000000000000aedb       0x45 C:\TMP\cc4nq0bI.debug.temp.o
 .debug_abbrev  0x000000000000af20       0x45 C:\TMP\ccN0MuCN.debug.temp.o
 .debug_abbrev  0x000000000000af65       0x45 C:\TMP\cceSZ1tT.debug.temp.o
 .debug_abbrev  0x000000000000afaa       0x45 C:\TMP\cctXkWpZ.debug.temp.o
 .debug_abbrev  0x000000000000afef      0x2b9 C:\TMP\ccoWt374.debug.temp.o
 .debug_abbrev  0x000000000000b2a8       0x45 C:\TMP\ccD3fz69.debug.temp.o
 .debug_abbrev  0x000000000000b2ed       0x45 C:\TMP\ccMxZs9e.debug.temp.o
 .debug_abbrev  0x000000000000b332       0x45 C:\TMP\ccDukIYj.debug.temp.o
 .debug_abbrev  0x000000000000b377       0x45 C:\TMP\ccGlFAco.debug.temp.o
 .debug_abbrev  0x000000000000b3bc       0x45 C:\TMP\ccvxowRs.debug.temp.o
 .debug_abbrev  0x000000000000b401      0x2b7 C:\TMP\cc8YymFx.debug.temp.o
 .debug_abbrev  0x000000000000b6b8       0x9f C:\TMP\ccaZgpaG.debug.temp.o
 .debug_abbrev  0x000000000000b757      0x28e C:\TMP\ccJoDn5J.debug.temp.o
 .debug_abbrev  0x000000000000b9e5       0x56 C:\TMP\ccQ1tWQN.debug.temp.o
 .debug_abbrev  0x000000000000ba3b      0x2e6 C:\TMP\ccFTay3R.debug.temp.o
 .debug_abbrev  0x000000000000bd21      0x24f C:\TMP\cc6AqT6V.debug.temp.o
 .debug_abbrev  0x000000000000bf70      0x28d C:\TMP\ccV61963.debug.temp.o
 .debug_abbrev  0x000000000000c1fd      0x37f C:\TMP\ccq2XLTb.debug.temp.o
 .debug_abbrev  0x000000000000c57c      0x29d C:\TMP\ccLSjj7j.debug.temp.o
 .debug_abbrev  0x000000000000c819      0x340 C:\TMP\ccocCxEr.debug.temp.o
 .debug_abbrev  0x000000000000cb59      0x26a C:\TMP\ccQPtw6E.debug.temp.o
 .debug_abbrev  0x000000000000cdc3      0x22e C:\TMP\ccfwBp7L.debug.temp.o
 .debug_abbrev  0x000000000000cff1       0xc1 C:\TMP\ccNpeBGg.debug.temp.o
 .debug_abbrev  0x000000000000d0b2       0x5f C:\TMP\cc01EbPq.debug.temp.o
 .debug_abbrev  0x000000000000d111      0x280 C:\TMP\cc1veHoB.debug.temp.o
 .debug_abbrev  0x000000000000d391      0x2b1 C:\TMP\ccQJsI2L.debug.temp.o
 .debug_abbrev  0x000000000000d642      0x32e C:\TMP\ccr0jXsW.debug.temp.o
 .debug_abbrev  0x000000000000d970      0x425 C:\TMP\ccijgA95.debug.temp.o
 .debug_abbrev  0x000000000000dd95       0xbe C:\TMP\ccHPGNGf.debug.temp.o
 .debug_abbrev  0x000000000000de53      0x298 C:\TMP\ccU5Lwip.debug.temp.o
 .debug_abbrev  0x000000000000e0eb      0x2fd C:\TMP\cc3TjNgz.debug.temp.o
 .debug_abbrev  0x000000000000e3e8      0x258 C:\TMP\ccs0E09I.debug.temp.o
 .debug_abbrev  0x000000000000e640      0x2ad C:\TMP\ccQTc5EO.debug.temp.o
 .debug_abbrev  0x000000000000e8ed      0x2d1 C:\TMP\ccA17twR.debug.temp.o
 .debug_abbrev  0x000000000000ebbe      0x12c C:\TMP\cc8lCJ5S.debug.temp.o
 .debug_abbrev  0x000000000000ecea      0x2c6 C:\TMP\ccGIxAHT.debug.temp.o
 .debug_abbrev  0x000000000000efb0      0x236 C:\TMP\cc6yGvKU.debug.temp.o
 .debug_abbrev  0x000000000000f1e6       0xf9 C:\TMP\cc0wL0DV.debug.temp.o
 .debug_abbrev  0x000000000000f2df      0x27f C:\TMP\cceDtUNV.debug.temp.o
 .debug_abbrev  0x000000000000f55e      0x308 C:\TMP\ccOGkUSV.debug.temp.o
 .debug_abbrev  0x000000000000f866      0x351 C:\TMP\ccW7cbbW.debug.temp.o
 .debug_abbrev  0x000000000000fbb7       0x14 build/objs/ci130x_startup.o
 .debug_abbrev  0x000000000000fbcb      0x3f8 ../../../libs\libnewlib_port.a(sbrk.o)
 .debug_abbrev  0x000000000000ffc3       0x14 ../../../libs\libfreertos_port.a(portasm.o)
 .debug_abbrev  0x000000000000ffd7       0x14 d:/software/yuyin/qiqiyinqiluntai/riscv-nuclei-elf-gcc-9.2.0.0/gcc_fix_raissrc/bin/../lib/gcc/riscv-nuclei-elf/9.2.0/rv32imafc/ilp32f\libgcc.a(save-restore.o)
 .debug_abbrev  0x000000000000ffeb      0x189 d:/software/yuyin/qiqiyinqiluntai/riscv-nuclei-elf-gcc-9.2.0.0/gcc_fix_raissrc/bin/../lib/gcc/riscv-nuclei-elf/9.2.0/rv32imafc/ilp32f\libgcc.a(adddf3.o)
 .debug_abbrev  0x0000000000010174      0x176 d:/software/yuyin/qiqiyinqiluntai/riscv-nuclei-elf-gcc-9.2.0.0/gcc_fix_raissrc/bin/../lib/gcc/riscv-nuclei-elf/9.2.0/rv32imafc/ilp32f\libgcc.a(divdf3.o)
 .debug_abbrev  0x00000000000102ea      0x193 d:/software/yuyin/qiqiyinqiluntai/riscv-nuclei-elf-gcc-9.2.0.0/gcc_fix_raissrc/bin/../lib/gcc/riscv-nuclei-elf/9.2.0/rv32imafc/ilp32f\libgcc.a(eqdf2.o)
 .debug_abbrev  0x000000000001047d      0x193 d:/software/yuyin/qiqiyinqiluntai/riscv-nuclei-elf-gcc-9.2.0.0/gcc_fix_raissrc/bin/../lib/gcc/riscv-nuclei-elf/9.2.0/rv32imafc/ilp32f\libgcc.a(gedf2.o)
 .debug_abbrev  0x0000000000010610      0x193 d:/software/yuyin/qiqiyinqiluntai/riscv-nuclei-elf-gcc-9.2.0.0/gcc_fix_raissrc/bin/../lib/gcc/riscv-nuclei-elf/9.2.0/rv32imafc/ilp32f\libgcc.a(ledf2.o)
 .debug_abbrev  0x00000000000107a3      0x186 d:/software/yuyin/qiqiyinqiluntai/riscv-nuclei-elf-gcc-9.2.0.0/gcc_fix_raissrc/bin/../lib/gcc/riscv-nuclei-elf/9.2.0/rv32imafc/ilp32f\libgcc.a(muldf3.o)
 .debug_abbrev  0x0000000000010929      0x189 d:/software/yuyin/qiqiyinqiluntai/riscv-nuclei-elf-gcc-9.2.0.0/gcc_fix_raissrc/bin/../lib/gcc/riscv-nuclei-elf/9.2.0/rv32imafc/ilp32f\libgcc.a(subdf3.o)
 .debug_abbrev  0x0000000000010ab2      0x184 d:/software/yuyin/qiqiyinqiluntai/riscv-nuclei-elf-gcc-9.2.0.0/gcc_fix_raissrc/bin/../lib/gcc/riscv-nuclei-elf/9.2.0/rv32imafc/ilp32f\libgcc.a(unorddf2.o)
 .debug_abbrev  0x0000000000010c36      0x170 d:/software/yuyin/qiqiyinqiluntai/riscv-nuclei-elf-gcc-9.2.0.0/gcc_fix_raissrc/bin/../lib/gcc/riscv-nuclei-elf/9.2.0/rv32imafc/ilp32f\libgcc.a(fixdfsi.o)
 .debug_abbrev  0x0000000000010da6      0x178 d:/software/yuyin/qiqiyinqiluntai/riscv-nuclei-elf-gcc-9.2.0.0/gcc_fix_raissrc/bin/../lib/gcc/riscv-nuclei-elf/9.2.0/rv32imafc/ilp32f\libgcc.a(floatsidf.o)
 .debug_abbrev  0x0000000000010f1e      0x16c d:/software/yuyin/qiqiyinqiluntai/riscv-nuclei-elf-gcc-9.2.0.0/gcc_fix_raissrc/bin/../lib/gcc/riscv-nuclei-elf/9.2.0/rv32imafc/ilp32f\libgcc.a(extendsfdf2.o)
 .debug_abbrev  0x000000000001108a      0x179 d:/software/yuyin/qiqiyinqiluntai/riscv-nuclei-elf-gcc-9.2.0.0/gcc_fix_raissrc/bin/../lib/gcc/riscv-nuclei-elf/9.2.0/rv32imafc/ilp32f\libgcc.a(truncdfsf2.o)
 .debug_abbrev  0x0000000000011203      0x242 d:/software/yuyin/qiqiyinqiluntai/riscv-nuclei-elf-gcc-9.2.0.0/gcc_fix_raissrc/bin/../lib/gcc/riscv-nuclei-elf/9.2.0/rv32imafc/ilp32f\libgcc.a(_clzsi2.o)
 .debug_abbrev  0x0000000000011445      0x1e8 d:/software/yuyin/qiqiyinqiluntai/riscv-nuclei-elf-gcc-9.2.0.0/gcc_fix_raissrc/bin/../lib/gcc/riscv-nuclei-elf/9.2.0/rv32imafc/ilp32f\libgcc.a(_clz.o)

.debug_loc      0x0000000000000000    0x22154
 .debug_loc     0x0000000000000000    0x11118 C:\TMP\nn_denoise_rtc_sample.elf.zkP8Mf.ltrans0.ltrans.o
 .debug_loc     0x0000000000011118     0x98b2 C:\TMP\nn_denoise_rtc_sample.elf.zkP8Mf.ltrans1.ltrans.o
 .debug_loc     0x000000000001a9ca      0xa71 ../../../libs\libnewlib_port.a(sbrk.o)
 .debug_loc     0x000000000001b43b     0x1a85 d:/software/yuyin/qiqiyinqiluntai/riscv-nuclei-elf-gcc-9.2.0.0/gcc_fix_raissrc/bin/../lib/gcc/riscv-nuclei-elf/9.2.0/rv32imafc/ilp32f\libgcc.a(adddf3.o)
 .debug_loc     0x000000000001cec0     0x14a9 d:/software/yuyin/qiqiyinqiluntai/riscv-nuclei-elf-gcc-9.2.0.0/gcc_fix_raissrc/bin/../lib/gcc/riscv-nuclei-elf/9.2.0/rv32imafc/ilp32f\libgcc.a(divdf3.o)
 .debug_loc     0x000000000001e369      0x19a d:/software/yuyin/qiqiyinqiluntai/riscv-nuclei-elf-gcc-9.2.0.0/gcc_fix_raissrc/bin/../lib/gcc/riscv-nuclei-elf/9.2.0/rv32imafc/ilp32f\libgcc.a(eqdf2.o)
 .debug_loc     0x000000000001e503      0x155 d:/software/yuyin/qiqiyinqiluntai/riscv-nuclei-elf-gcc-9.2.0.0/gcc_fix_raissrc/bin/../lib/gcc/riscv-nuclei-elf/9.2.0/rv32imafc/ilp32f\libgcc.a(gedf2.o)
 .debug_loc     0x000000000001e658      0x155 d:/software/yuyin/qiqiyinqiluntai/riscv-nuclei-elf-gcc-9.2.0.0/gcc_fix_raissrc/bin/../lib/gcc/riscv-nuclei-elf/9.2.0/rv32imafc/ilp32f\libgcc.a(ledf2.o)
 .debug_loc     0x000000000001e7ad     0x10d8 d:/software/yuyin/qiqiyinqiluntai/riscv-nuclei-elf-gcc-9.2.0.0/gcc_fix_raissrc/bin/../lib/gcc/riscv-nuclei-elf/9.2.0/rv32imafc/ilp32f\libgcc.a(muldf3.o)
 .debug_loc     0x000000000001f885     0x1b31 d:/software/yuyin/qiqiyinqiluntai/riscv-nuclei-elf-gcc-9.2.0.0/gcc_fix_raissrc/bin/../lib/gcc/riscv-nuclei-elf/9.2.0/rv32imafc/ilp32f\libgcc.a(subdf3.o)
 .debug_loc     0x00000000000213b6       0xc9 d:/software/yuyin/qiqiyinqiluntai/riscv-nuclei-elf-gcc-9.2.0.0/gcc_fix_raissrc/bin/../lib/gcc/riscv-nuclei-elf/9.2.0/rv32imafc/ilp32f\libgcc.a(unorddf2.o)
 .debug_loc     0x000000000002147f      0x2a8 d:/software/yuyin/qiqiyinqiluntai/riscv-nuclei-elf-gcc-9.2.0.0/gcc_fix_raissrc/bin/../lib/gcc/riscv-nuclei-elf/9.2.0/rv32imafc/ilp32f\libgcc.a(fixdfsi.o)
 .debug_loc     0x0000000000021727      0x14c d:/software/yuyin/qiqiyinqiluntai/riscv-nuclei-elf-gcc-9.2.0.0/gcc_fix_raissrc/bin/../lib/gcc/riscv-nuclei-elf/9.2.0/rv32imafc/ilp32f\libgcc.a(floatsidf.o)
 .debug_loc     0x0000000000021873      0x264 d:/software/yuyin/qiqiyinqiluntai/riscv-nuclei-elf-gcc-9.2.0.0/gcc_fix_raissrc/bin/../lib/gcc/riscv-nuclei-elf/9.2.0/rv32imafc/ilp32f\libgcc.a(extendsfdf2.o)
 .debug_loc     0x0000000000021ad7      0x612 d:/software/yuyin/qiqiyinqiluntai/riscv-nuclei-elf-gcc-9.2.0.0/gcc_fix_raissrc/bin/../lib/gcc/riscv-nuclei-elf/9.2.0/rv32imafc/ilp32f\libgcc.a(truncdfsf2.o)
 .debug_loc     0x00000000000220e9       0x6b d:/software/yuyin/qiqiyinqiluntai/riscv-nuclei-elf-gcc-9.2.0.0/gcc_fix_raissrc/bin/../lib/gcc/riscv-nuclei-elf/9.2.0/rv32imafc/ilp32f\libgcc.a(_clzsi2.o)

.debug_aranges  0x0000000000000000      0xc28
 .debug_aranges
                0x0000000000000000      0x4f8 C:\TMP\nn_denoise_rtc_sample.elf.zkP8Mf.ltrans0.ltrans.o
 .debug_aranges
                0x00000000000004f8      0x3a8 C:\TMP\nn_denoise_rtc_sample.elf.zkP8Mf.ltrans1.ltrans.o
 .debug_aranges
                0x00000000000008a0       0x20 build/objs/ci130x_startup.o
 .debug_aranges
                0x00000000000008c0      0x170 ../../../libs\libnewlib_port.a(sbrk.o)
 .debug_aranges
                0x0000000000000a30       0x20 ../../../libs\libfreertos_port.a(portasm.o)
 .debug_aranges
                0x0000000000000a50       0x20 d:/software/yuyin/qiqiyinqiluntai/riscv-nuclei-elf-gcc-9.2.0.0/gcc_fix_raissrc/bin/../lib/gcc/riscv-nuclei-elf/9.2.0/rv32imafc/ilp32f\libgcc.a(save-restore.o)
 .debug_aranges
                0x0000000000000a70       0x20 d:/software/yuyin/qiqiyinqiluntai/riscv-nuclei-elf-gcc-9.2.0.0/gcc_fix_raissrc/bin/../lib/gcc/riscv-nuclei-elf/9.2.0/rv32imafc/ilp32f\libgcc.a(adddf3.o)
 .debug_aranges
                0x0000000000000a90       0x20 d:/software/yuyin/qiqiyinqiluntai/riscv-nuclei-elf-gcc-9.2.0.0/gcc_fix_raissrc/bin/../lib/gcc/riscv-nuclei-elf/9.2.0/rv32imafc/ilp32f\libgcc.a(divdf3.o)
 .debug_aranges
                0x0000000000000ab0       0x20 d:/software/yuyin/qiqiyinqiluntai/riscv-nuclei-elf-gcc-9.2.0.0/gcc_fix_raissrc/bin/../lib/gcc/riscv-nuclei-elf/9.2.0/rv32imafc/ilp32f\libgcc.a(eqdf2.o)
 .debug_aranges
                0x0000000000000ad0       0x20 d:/software/yuyin/qiqiyinqiluntai/riscv-nuclei-elf-gcc-9.2.0.0/gcc_fix_raissrc/bin/../lib/gcc/riscv-nuclei-elf/9.2.0/rv32imafc/ilp32f\libgcc.a(gedf2.o)
 .debug_aranges
                0x0000000000000af0       0x20 d:/software/yuyin/qiqiyinqiluntai/riscv-nuclei-elf-gcc-9.2.0.0/gcc_fix_raissrc/bin/../lib/gcc/riscv-nuclei-elf/9.2.0/rv32imafc/ilp32f\libgcc.a(ledf2.o)
 .debug_aranges
                0x0000000000000b10       0x20 d:/software/yuyin/qiqiyinqiluntai/riscv-nuclei-elf-gcc-9.2.0.0/gcc_fix_raissrc/bin/../lib/gcc/riscv-nuclei-elf/9.2.0/rv32imafc/ilp32f\libgcc.a(muldf3.o)
 .debug_aranges
                0x0000000000000b30       0x20 d:/software/yuyin/qiqiyinqiluntai/riscv-nuclei-elf-gcc-9.2.0.0/gcc_fix_raissrc/bin/../lib/gcc/riscv-nuclei-elf/9.2.0/rv32imafc/ilp32f\libgcc.a(subdf3.o)
 .debug_aranges
                0x0000000000000b50       0x20 d:/software/yuyin/qiqiyinqiluntai/riscv-nuclei-elf-gcc-9.2.0.0/gcc_fix_raissrc/bin/../lib/gcc/riscv-nuclei-elf/9.2.0/rv32imafc/ilp32f\libgcc.a(unorddf2.o)
 .debug_aranges
                0x0000000000000b70       0x20 d:/software/yuyin/qiqiyinqiluntai/riscv-nuclei-elf-gcc-9.2.0.0/gcc_fix_raissrc/bin/../lib/gcc/riscv-nuclei-elf/9.2.0/rv32imafc/ilp32f\libgcc.a(fixdfsi.o)
 .debug_aranges
                0x0000000000000b90       0x20 d:/software/yuyin/qiqiyinqiluntai/riscv-nuclei-elf-gcc-9.2.0.0/gcc_fix_raissrc/bin/../lib/gcc/riscv-nuclei-elf/9.2.0/rv32imafc/ilp32f\libgcc.a(floatsidf.o)
 .debug_aranges
                0x0000000000000bb0       0x20 d:/software/yuyin/qiqiyinqiluntai/riscv-nuclei-elf-gcc-9.2.0.0/gcc_fix_raissrc/bin/../lib/gcc/riscv-nuclei-elf/9.2.0/rv32imafc/ilp32f\libgcc.a(extendsfdf2.o)
 .debug_aranges
                0x0000000000000bd0       0x20 d:/software/yuyin/qiqiyinqiluntai/riscv-nuclei-elf-gcc-9.2.0.0/gcc_fix_raissrc/bin/../lib/gcc/riscv-nuclei-elf/9.2.0/rv32imafc/ilp32f\libgcc.a(truncdfsf2.o)
 .debug_aranges
                0x0000000000000bf0       0x20 d:/software/yuyin/qiqiyinqiluntai/riscv-nuclei-elf-gcc-9.2.0.0/gcc_fix_raissrc/bin/../lib/gcc/riscv-nuclei-elf/9.2.0/rv32imafc/ilp32f\libgcc.a(_clzsi2.o)
 .debug_aranges
                0x0000000000000c10       0x18 d:/software/yuyin/qiqiyinqiluntai/riscv-nuclei-elf-gcc-9.2.0.0/gcc_fix_raissrc/bin/../lib/gcc/riscv-nuclei-elf/9.2.0/rv32imafc/ilp32f\libgcc.a(_clz.o)

.debug_ranges   0x0000000000000000     0x6230
 .debug_ranges  0x0000000000000000     0x2668 C:\TMP\nn_denoise_rtc_sample.elf.zkP8Mf.ltrans0.ltrans.o
 .debug_ranges  0x0000000000002668     0x2c78 C:\TMP\nn_denoise_rtc_sample.elf.zkP8Mf.ltrans1.ltrans.o
 .debug_ranges  0x00000000000052e0      0x160 ../../../libs\libnewlib_port.a(sbrk.o)
 .debug_ranges  0x0000000000005440      0x3b8 d:/software/yuyin/qiqiyinqiluntai/riscv-nuclei-elf-gcc-9.2.0.0/gcc_fix_raissrc/bin/../lib/gcc/riscv-nuclei-elf/9.2.0/rv32imafc/ilp32f\libgcc.a(adddf3.o)
 .debug_ranges  0x00000000000057f8      0x1b8 d:/software/yuyin/qiqiyinqiluntai/riscv-nuclei-elf-gcc-9.2.0.0/gcc_fix_raissrc/bin/../lib/gcc/riscv-nuclei-elf/9.2.0/rv32imafc/ilp32f\libgcc.a(divdf3.o)
 .debug_ranges  0x00000000000059b0       0x60 d:/software/yuyin/qiqiyinqiluntai/riscv-nuclei-elf-gcc-9.2.0.0/gcc_fix_raissrc/bin/../lib/gcc/riscv-nuclei-elf/9.2.0/rv32imafc/ilp32f\libgcc.a(eqdf2.o)
 .debug_ranges  0x0000000000005a10       0x38 d:/software/yuyin/qiqiyinqiluntai/riscv-nuclei-elf-gcc-9.2.0.0/gcc_fix_raissrc/bin/../lib/gcc/riscv-nuclei-elf/9.2.0/rv32imafc/ilp32f\libgcc.a(gedf2.o)
 .debug_ranges  0x0000000000005a48       0x38 d:/software/yuyin/qiqiyinqiluntai/riscv-nuclei-elf-gcc-9.2.0.0/gcc_fix_raissrc/bin/../lib/gcc/riscv-nuclei-elf/9.2.0/rv32imafc/ilp32f\libgcc.a(ledf2.o)
 .debug_ranges  0x0000000000005a80      0x258 d:/software/yuyin/qiqiyinqiluntai/riscv-nuclei-elf-gcc-9.2.0.0/gcc_fix_raissrc/bin/../lib/gcc/riscv-nuclei-elf/9.2.0/rv32imafc/ilp32f\libgcc.a(muldf3.o)
 .debug_ranges  0x0000000000005cd8      0x3a8 d:/software/yuyin/qiqiyinqiluntai/riscv-nuclei-elf-gcc-9.2.0.0/gcc_fix_raissrc/bin/../lib/gcc/riscv-nuclei-elf/9.2.0/rv32imafc/ilp32f\libgcc.a(subdf3.o)
 .debug_ranges  0x0000000000006080       0x38 d:/software/yuyin/qiqiyinqiluntai/riscv-nuclei-elf-gcc-9.2.0.0/gcc_fix_raissrc/bin/../lib/gcc/riscv-nuclei-elf/9.2.0/rv32imafc/ilp32f\libgcc.a(unorddf2.o)
 .debug_ranges  0x00000000000060b8       0x58 d:/software/yuyin/qiqiyinqiluntai/riscv-nuclei-elf-gcc-9.2.0.0/gcc_fix_raissrc/bin/../lib/gcc/riscv-nuclei-elf/9.2.0/rv32imafc/ilp32f\libgcc.a(fixdfsi.o)
 .debug_ranges  0x0000000000006110       0x68 d:/software/yuyin/qiqiyinqiluntai/riscv-nuclei-elf-gcc-9.2.0.0/gcc_fix_raissrc/bin/../lib/gcc/riscv-nuclei-elf/9.2.0/rv32imafc/ilp32f\libgcc.a(floatsidf.o)
 .debug_ranges  0x0000000000006178       0x20 d:/software/yuyin/qiqiyinqiluntai/riscv-nuclei-elf-gcc-9.2.0.0/gcc_fix_raissrc/bin/../lib/gcc/riscv-nuclei-elf/9.2.0/rv32imafc/ilp32f\libgcc.a(extendsfdf2.o)
 .debug_ranges  0x0000000000006198       0x78 d:/software/yuyin/qiqiyinqiluntai/riscv-nuclei-elf-gcc-9.2.0.0/gcc_fix_raissrc/bin/../lib/gcc/riscv-nuclei-elf/9.2.0/rv32imafc/ilp32f\libgcc.a(truncdfsf2.o)
 .debug_ranges  0x0000000000006210       0x20 d:/software/yuyin/qiqiyinqiluntai/riscv-nuclei-elf-gcc-9.2.0.0/gcc_fix_raissrc/bin/../lib/gcc/riscv-nuclei-elf/9.2.0/rv32imafc/ilp32f\libgcc.a(_clzsi2.o)

.debug_line     0x0000000000000000    0x41691
 .debug_line    0x0000000000000000    0x16c33 C:\TMP\nn_denoise_rtc_sample.elf.zkP8Mf.ltrans0.ltrans.o
 .debug_line    0x0000000000016c33    0x10f64 C:\TMP\nn_denoise_rtc_sample.elf.zkP8Mf.ltrans1.ltrans.o
 .debug_line    0x0000000000027b97      0x2c9 C:\TMP\ccRe2uM9.debug.temp.o
 .debug_line    0x0000000000027e60      0x1ca C:\TMP\ccic4sZX.debug.temp.o
 .debug_line    0x000000000002802a      0x26a C:\TMP\ccZbbPsL.debug.temp.o
 .debug_line    0x0000000000028294      0x335 C:\TMP\ccatLr9y.debug.temp.o
 .debug_line    0x00000000000285c9      0x263 C:\TMP\ccXzUNGm.debug.temp.o
 .debug_line    0x000000000002882c      0x1c0 C:\TMP\cc330RJ5.debug.temp.o
 .debug_line    0x00000000000289ec      0x304 C:\TMP\ccZMJiVO.debug.temp.o
 .debug_line    0x0000000000028cf0      0x2ea C:\TMP\ccWQiWxG.debug.temp.o
 .debug_line    0x0000000000028fda      0x32a C:\TMP\ccPQC6ey.debug.temp.o
 .debug_line    0x0000000000029304      0x330 C:\TMP\ccEO8o3o.debug.temp.o
 .debug_line    0x0000000000029634      0x32d C:\TMP\cchENCig.debug.temp.o
 .debug_line    0x0000000000029961      0x30d C:\TMP\ccugKzo7.debug.temp.o
 .debug_line    0x0000000000029c6e      0x2ba C:\TMP\cc33AVKX.debug.temp.o
 .debug_line    0x0000000000029f28      0x2db C:\TMP\ccub8EbO.debug.temp.o
 .debug_line    0x000000000002a203      0x257 C:\TMP\ccBctBoE.debug.temp.o
 .debug_line    0x000000000002a45a      0x2d3 C:\TMP\ccsvVA2u.debug.temp.o
 .debug_line    0x000000000002a72d      0x2c3 C:\TMP\ccm9P8dc.debug.temp.o
 .debug_line    0x000000000002a9f0      0x302 C:\TMP\ccGmwnCR.debug.temp.o
 .debug_line    0x000000000002acf2      0x39c C:\TMP\cc5Q5juH.debug.temp.o
 .debug_line    0x000000000002b08e      0x24b C:\TMP\ccQCgkjB.debug.temp.o
 .debug_line    0x000000000002b2d9      0x2e9 C:\TMP\ccdKMs3u.debug.temp.o
 .debug_line    0x000000000002b5c2      0x3bc C:\TMP\ccoBX6Ro.debug.temp.o
 .debug_line    0x000000000002b97e      0x448 C:\TMP\ccnkhG7i.debug.temp.o
 .debug_line    0x000000000002bdc6      0x3dc C:\TMP\cc3gXLr6.debug.temp.o
 .debug_line    0x000000000002c1a2      0x17c C:\TMP\ccwmqzwk.debug.temp.o
 .debug_line    0x000000000002c31e      0x23e C:\TMP\cc2DHBC6.debug.temp.o
 .debug_line    0x000000000002c55c      0x2dc C:\TMP\cc5K0wMY.debug.temp.o
 .debug_line    0x000000000002c838      0x2a0 C:\TMP\ccEc4I9Q.debug.temp.o
 .debug_line    0x000000000002cad8      0x2b9 C:\TMP\ccJkRDnJ.debug.temp.o
 .debug_line    0x000000000002cd91      0x35d C:\TMP\cccNwCyF.debug.temp.o
 .debug_line    0x000000000002d0ee      0x40a C:\TMP\ccrq3XNB.debug.temp.o
 .debug_line    0x000000000002d4f8      0x3bd C:\TMP\cccKj2Tx.debug.temp.o
 .debug_line    0x000000000002d8b5      0x334 C:\TMP\ccR4x2qu.debug.temp.o
 .debug_line    0x000000000002dbe9      0x1f2 C:\TMP\cccP6nKq.debug.temp.o
 .debug_line    0x000000000002dddb      0x3e3 C:\TMP\cc7UZkPd.debug.temp.o
 .debug_line    0x000000000002e1be      0x2dc C:\TMP\ccGE8QB9.debug.temp.o
 .debug_line    0x000000000002e49a      0x483 C:\TMP\ccBWptpV.debug.temp.o
 .debug_line    0x000000000002e91d      0x2de C:\TMP\ccURSunQ.debug.temp.o
 .debug_line    0x000000000002ebfb      0x4b0 C:\TMP\ccAsH6WR.debug.temp.o
 .debug_line    0x000000000002f0ab      0x27c C:\TMP\cc5XVEJS.debug.temp.o
 .debug_line    0x000000000002f327      0x27c C:\TMP\cckLhgXT.debug.temp.o
 .debug_line    0x000000000002f5a3      0x24f C:\TMP\ccbqv85U.debug.temp.o
 .debug_line    0x000000000002f7f2      0x336 C:\TMP\ccytHTqV.debug.temp.o
 .debug_line    0x000000000002fb28      0x1b2 C:\TMP\ccV11MQW.debug.temp.o
 .debug_line    0x000000000002fcda      0x27b C:\TMP\ccsstjAW.debug.temp.o
 .debug_line    0x000000000002ff55      0x2b4 C:\TMP\ccx6oqaW.debug.temp.o
 .debug_line    0x0000000000030209      0x1ac C:\TMP\cco5IAbW.debug.temp.o
 .debug_line    0x00000000000303b5      0x2a2 C:\TMP\ccVBBfhW.debug.temp.o
 .debug_line    0x0000000000030657      0x2c3 C:\TMP\cc8x4vdW.debug.temp.o
 .debug_line    0x000000000003091a      0x202 C:\TMP\ccbMp0wT.debug.temp.o
 .debug_line    0x0000000000030b1c      0x27e C:\TMP\cc8HGUPS.debug.temp.o
 .debug_line    0x0000000000030d9a      0x19d C:\TMP\ccBEpL5V.debug.temp.o
 .debug_line    0x0000000000030f37      0x3cc C:\TMP\ccyhfa85.debug.temp.o
 .debug_line    0x0000000000031303      0x2af C:\TMP\cc9xWLM8.debug.temp.o
 .debug_line    0x00000000000315b2       0x55 C:\TMP\ccEbBLvb.debug.temp.o
 .debug_line    0x0000000000031607      0x133 C:\TMP\ccRhR60d.debug.temp.o
 .debug_line    0x000000000003173a      0x469 C:\TMP\ccM6qmXg.debug.temp.o
 .debug_line    0x0000000000031ba3      0x44c C:\TMP\ccdIFWXj.debug.temp.o
 .debug_line    0x0000000000031fef      0x57b C:\TMP\ccV9u5Un.debug.temp.o
 .debug_line    0x000000000003256a      0x42d C:\TMP\ccQAqWfq.debug.temp.o
 .debug_line    0x0000000000032997      0x3c4 C:\TMP\ccHX6jFs.debug.temp.o
 .debug_line    0x0000000000032d5b      0x4de C:\TMP\cc6xhiVu.debug.temp.o
 .debug_line    0x0000000000033239      0x3f1 C:\TMP\ccXWohnw.debug.temp.o
 .debug_line    0x000000000003362a      0x1de C:\TMP\ccmz0QFx.debug.temp.o
 .debug_line    0x0000000000033808      0x298 C:\TMP\cczVgW2y.debug.temp.o
 .debug_line    0x0000000000033aa0       0x5a C:\TMP\ccy6oWQA.debug.temp.o
 .debug_line    0x0000000000033afa       0x5b C:\TMP\cc50xFvC.debug.temp.o
 .debug_line    0x0000000000033b55       0x5b C:\TMP\cc4nq0bI.debug.temp.o
 .debug_line    0x0000000000033bb0       0x5b C:\TMP\ccN0MuCN.debug.temp.o
 .debug_line    0x0000000000033c0b       0x5b C:\TMP\cceSZ1tT.debug.temp.o
 .debug_line    0x0000000000033c66       0x5b C:\TMP\cctXkWpZ.debug.temp.o
 .debug_line    0x0000000000033cc1      0x1de C:\TMP\ccoWt374.debug.temp.o
 .debug_line    0x0000000000033e9f       0x56 C:\TMP\ccD3fz69.debug.temp.o
 .debug_line    0x0000000000033ef5       0x5a C:\TMP\ccMxZs9e.debug.temp.o
 .debug_line    0x0000000000033f4f       0x5c C:\TMP\ccDukIYj.debug.temp.o
 .debug_line    0x0000000000033fab       0x56 C:\TMP\ccGlFAco.debug.temp.o
 .debug_line    0x0000000000034001       0x5b C:\TMP\ccvxowRs.debug.temp.o
 .debug_line    0x000000000003405c      0x317 C:\TMP\cc8YymFx.debug.temp.o
 .debug_line    0x0000000000034373       0x59 C:\TMP\ccaZgpaG.debug.temp.o
 .debug_line    0x00000000000343cc      0x1eb C:\TMP\ccJoDn5J.debug.temp.o
 .debug_line    0x00000000000345b7       0x59 C:\TMP\ccQ1tWQN.debug.temp.o
 .debug_line    0x0000000000034610      0x244 C:\TMP\ccFTay3R.debug.temp.o
 .debug_line    0x0000000000034854      0x308 C:\TMP\cc6AqT6V.debug.temp.o
 .debug_line    0x0000000000034b5c      0x336 C:\TMP\ccV61963.debug.temp.o
 .debug_line    0x0000000000034e92      0x367 C:\TMP\ccq2XLTb.debug.temp.o
 .debug_line    0x00000000000351f9      0x250 C:\TMP\ccLSjj7j.debug.temp.o
 .debug_line    0x0000000000035449      0x352 C:\TMP\ccocCxEr.debug.temp.o
 .debug_line    0x000000000003579b      0x30c C:\TMP\ccQPtw6E.debug.temp.o
 .debug_line    0x0000000000035aa7      0x317 C:\TMP\ccfwBp7L.debug.temp.o
 .debug_line    0x0000000000035dbe       0x58 C:\TMP\ccNpeBGg.debug.temp.o
 .debug_line    0x0000000000035e16       0x5c C:\TMP\cc01EbPq.debug.temp.o
 .debug_line    0x0000000000035e72      0x2e6 C:\TMP\cc1veHoB.debug.temp.o
 .debug_line    0x0000000000036158      0x3d3 C:\TMP\ccQJsI2L.debug.temp.o
 .debug_line    0x000000000003652b      0x365 C:\TMP\ccr0jXsW.debug.temp.o
 .debug_line    0x0000000000036890      0x4bd C:\TMP\ccijgA95.debug.temp.o
 .debug_line    0x0000000000036d4d       0x9c C:\TMP\ccHPGNGf.debug.temp.o
 .debug_line    0x0000000000036de9      0x347 C:\TMP\ccU5Lwip.debug.temp.o
 .debug_line    0x0000000000037130      0x430 C:\TMP\cc3TjNgz.debug.temp.o
 .debug_line    0x0000000000037560      0x34d C:\TMP\ccs0E09I.debug.temp.o
 .debug_line    0x00000000000378ad      0x2e8 C:\TMP\ccQTc5EO.debug.temp.o
 .debug_line    0x0000000000037b95      0x2d4 C:\TMP\ccA17twR.debug.temp.o
 .debug_line    0x0000000000037e69      0x1b1 C:\TMP\cc8lCJ5S.debug.temp.o
 .debug_line    0x000000000003801a      0x347 C:\TMP\ccGIxAHT.debug.temp.o
 .debug_line    0x0000000000038361      0x19e C:\TMP\cc6yGvKU.debug.temp.o
 .debug_line    0x00000000000384ff      0x1a2 C:\TMP\cc0wL0DV.debug.temp.o
 .debug_line    0x00000000000386a1      0x1b0 C:\TMP\cceDtUNV.debug.temp.o
 .debug_line    0x0000000000038851      0x374 C:\TMP\ccOGkUSV.debug.temp.o
 .debug_line    0x0000000000038bc5      0x39b C:\TMP\ccW7cbbW.debug.temp.o
 .debug_line    0x0000000000038f60      0x1f0 build/objs/ci130x_startup.o
 .debug_line    0x0000000000039150      0xcea ../../../libs\libnewlib_port.a(sbrk.o)
 .debug_line    0x0000000000039e3a      0x2c8 ../../../libs\libfreertos_port.a(portasm.o)
 .debug_line    0x000000000003a102      0x19c d:/software/yuyin/qiqiyinqiluntai/riscv-nuclei-elf-gcc-9.2.0.0/gcc_fix_raissrc/bin/../lib/gcc/riscv-nuclei-elf/9.2.0/rv32imafc/ilp32f\libgcc.a(save-restore.o)
 .debug_line    0x000000000003a29e     0x1637 d:/software/yuyin/qiqiyinqiluntai/riscv-nuclei-elf-gcc-9.2.0.0/gcc_fix_raissrc/bin/../lib/gcc/riscv-nuclei-elf/9.2.0/rv32imafc/ilp32f\libgcc.a(adddf3.o)
 .debug_line    0x000000000003b8d5     0x1289 d:/software/yuyin/qiqiyinqiluntai/riscv-nuclei-elf-gcc-9.2.0.0/gcc_fix_raissrc/bin/../lib/gcc/riscv-nuclei-elf/9.2.0/rv32imafc/ilp32f\libgcc.a(divdf3.o)
 .debug_line    0x000000000003cb5e      0x34a d:/software/yuyin/qiqiyinqiluntai/riscv-nuclei-elf-gcc-9.2.0.0/gcc_fix_raissrc/bin/../lib/gcc/riscv-nuclei-elf/9.2.0/rv32imafc/ilp32f\libgcc.a(eqdf2.o)
 .debug_line    0x000000000003cea8      0x377 d:/software/yuyin/qiqiyinqiluntai/riscv-nuclei-elf-gcc-9.2.0.0/gcc_fix_raissrc/bin/../lib/gcc/riscv-nuclei-elf/9.2.0/rv32imafc/ilp32f\libgcc.a(gedf2.o)
 .debug_line    0x000000000003d21f      0x377 d:/software/yuyin/qiqiyinqiluntai/riscv-nuclei-elf-gcc-9.2.0.0/gcc_fix_raissrc/bin/../lib/gcc/riscv-nuclei-elf/9.2.0/rv32imafc/ilp32f\libgcc.a(ledf2.o)
 .debug_line    0x000000000003d596     0x1099 d:/software/yuyin/qiqiyinqiluntai/riscv-nuclei-elf-gcc-9.2.0.0/gcc_fix_raissrc/bin/../lib/gcc/riscv-nuclei-elf/9.2.0/rv32imafc/ilp32f\libgcc.a(muldf3.o)
 .debug_line    0x000000000003e62f     0x1673 d:/software/yuyin/qiqiyinqiluntai/riscv-nuclei-elf-gcc-9.2.0.0/gcc_fix_raissrc/bin/../lib/gcc/riscv-nuclei-elf/9.2.0/rv32imafc/ilp32f\libgcc.a(subdf3.o)
 .debug_line    0x000000000003fca2      0x2a3 d:/software/yuyin/qiqiyinqiluntai/riscv-nuclei-elf-gcc-9.2.0.0/gcc_fix_raissrc/bin/../lib/gcc/riscv-nuclei-elf/9.2.0/rv32imafc/ilp32f\libgcc.a(unorddf2.o)
 .debug_line    0x000000000003ff45      0x345 d:/software/yuyin/qiqiyinqiluntai/riscv-nuclei-elf-gcc-9.2.0.0/gcc_fix_raissrc/bin/../lib/gcc/riscv-nuclei-elf/9.2.0/rv32imafc/ilp32f\libgcc.a(fixdfsi.o)
 .debug_line    0x000000000004028a      0x2bb d:/software/yuyin/qiqiyinqiluntai/riscv-nuclei-elf-gcc-9.2.0.0/gcc_fix_raissrc/bin/../lib/gcc/riscv-nuclei-elf/9.2.0/rv32imafc/ilp32f\libgcc.a(floatsidf.o)
 .debug_line    0x0000000000040545      0x41f d:/software/yuyin/qiqiyinqiluntai/riscv-nuclei-elf-gcc-9.2.0.0/gcc_fix_raissrc/bin/../lib/gcc/riscv-nuclei-elf/9.2.0/rv32imafc/ilp32f\libgcc.a(extendsfdf2.o)
 .debug_line    0x0000000000040964      0x701 d:/software/yuyin/qiqiyinqiluntai/riscv-nuclei-elf-gcc-9.2.0.0/gcc_fix_raissrc/bin/../lib/gcc/riscv-nuclei-elf/9.2.0/rv32imafc/ilp32f\libgcc.a(truncdfsf2.o)
 .debug_line    0x0000000000041065      0x35c d:/software/yuyin/qiqiyinqiluntai/riscv-nuclei-elf-gcc-9.2.0.0/gcc_fix_raissrc/bin/../lib/gcc/riscv-nuclei-elf/9.2.0/rv32imafc/ilp32f\libgcc.a(_clzsi2.o)
 .debug_line    0x00000000000413c1      0x2d0 d:/software/yuyin/qiqiyinqiluntai/riscv-nuclei-elf-gcc-9.2.0.0/gcc_fix_raissrc/bin/../lib/gcc/riscv-nuclei-elf/9.2.0/rv32imafc/ilp32f\libgcc.a(_clz.o)

.debug_str      0x0000000000000000    0x1aff7
 .debug_str     0x0000000000000000      0x48d C:\TMP\nn_denoise_rtc_sample.elf.zkP8Mf.ltrans0.ltrans.o
                                        0x594 (size before relaxing)
 .debug_str     0x000000000000048d      0x1f6 C:\TMP\nn_denoise_rtc_sample.elf.zkP8Mf.ltrans1.ltrans.o
                                        0x67d (size before relaxing)
 .debug_str     0x0000000000000683      0x8cd C:\TMP\ccRe2uM9.debug.temp.o
                                        0xe61 (size before relaxing)
 .debug_str     0x0000000000000f50      0x22c C:\TMP\ccic4sZX.debug.temp.o
                                        0x8db (size before relaxing)
 .debug_str     0x000000000000117c       0x31 C:\TMP\ccZbbPsL.debug.temp.o
                                        0x6cd (size before relaxing)
 .debug_str     0x00000000000011ad      0x744 C:\TMP\ccatLr9y.debug.temp.o
                                       0x126f (size before relaxing)
 .debug_str     0x00000000000018f1      0x298 C:\TMP\ccXzUNGm.debug.temp.o
                                        0x94d (size before relaxing)
 .debug_str     0x0000000000001b89      0x300 C:\TMP\cc330RJ5.debug.temp.o
                                        0x5c3 (size before relaxing)
 .debug_str     0x0000000000001e89      0x3cb C:\TMP\ccZMJiVO.debug.temp.o
                                        0xa6e (size before relaxing)
 .debug_str     0x0000000000002254       0xb1 C:\TMP\ccWQiWxG.debug.temp.o
                                        0x7bd (size before relaxing)
 .debug_str     0x0000000000002305      0x61a C:\TMP\ccPQC6ey.debug.temp.o
                                       0x124f (size before relaxing)
 .debug_str     0x000000000000291f      0x4e6 C:\TMP\ccEO8o3o.debug.temp.o
                                       0x10cb (size before relaxing)
 .debug_str     0x0000000000002e05      0xd29 C:\TMP\cchENCig.debug.temp.o
                                       0x1a46 (size before relaxing)
 .debug_str     0x0000000000003b2e      0x514 C:\TMP\ccugKzo7.debug.temp.o
                                        0xce8 (size before relaxing)
 .debug_str     0x0000000000004042      0x237 C:\TMP\cc33AVKX.debug.temp.o
                                        0xd50 (size before relaxing)
 .debug_str     0x0000000000004279      0x235 C:\TMP\ccub8EbO.debug.temp.o
                                        0xd2c (size before relaxing)
 .debug_str     0x00000000000044ae       0x4b C:\TMP\ccBctBoE.debug.temp.o
                                        0x691 (size before relaxing)
 .debug_str     0x00000000000044f9      0x3a7 C:\TMP\ccsvVA2u.debug.temp.o
                                        0xb0d (size before relaxing)
 .debug_str     0x00000000000048a0      0x214 C:\TMP\ccm9P8dc.debug.temp.o
                                        0x8dd (size before relaxing)
 .debug_str     0x0000000000004ab4      0x224 C:\TMP\ccGmwnCR.debug.temp.o
                                        0x905 (size before relaxing)
 .debug_str     0x0000000000004cd8      0x545 C:\TMP\cc5Q5juH.debug.temp.o
                                       0x18ae (size before relaxing)
 .debug_str     0x000000000000521d     0x11d3 C:\TMP\ccQCgkjB.debug.temp.o
                                       0x18a7 (size before relaxing)
 .debug_str     0x00000000000063f0      0x46f C:\TMP\ccdKMs3u.debug.temp.o
                                       0x1080 (size before relaxing)
 .debug_str     0x000000000000685f      0xb90 C:\TMP\ccoBX6Ro.debug.temp.o
                                       0x18e7 (size before relaxing)
 .debug_str     0x00000000000073ef      0x7af C:\TMP\ccnkhG7i.debug.temp.o
                                       0x1dfd (size before relaxing)
 .debug_str     0x0000000000007b9e      0x24c C:\TMP\cc3gXLr6.debug.temp.o
                                       0x106c (size before relaxing)
 .debug_str     0x0000000000007dea      0x2a1 C:\TMP\ccwmqzwk.debug.temp.o
                                        0x6fe (size before relaxing)
 .debug_str     0x000000000000808b       0x98 C:\TMP\cc2DHBC6.debug.temp.o
                                       0x1bd0 (size before relaxing)
 .debug_str     0x0000000000008123      0x5fc C:\TMP\cc5K0wMY.debug.temp.o
                                       0x116d (size before relaxing)
 .debug_str     0x000000000000871f      0x16a C:\TMP\ccEc4I9Q.debug.temp.o
                                        0x841 (size before relaxing)
 .debug_str     0x0000000000008889      0x429 C:\TMP\ccJkRDnJ.debug.temp.o
                                       0x1050 (size before relaxing)
 .debug_str     0x0000000000008cb2      0x63d C:\TMP\cccNwCyF.debug.temp.o
                                       0x12b7 (size before relaxing)
 .debug_str     0x00000000000092ef      0x2ca C:\TMP\ccrq3XNB.debug.temp.o
                                       0x11f3 (size before relaxing)
 .debug_str     0x00000000000095b9      0x32a C:\TMP\cccKj2Tx.debug.temp.o
                                       0x1fdd (size before relaxing)
 .debug_str     0x00000000000098e3      0x32f C:\TMP\ccR4x2qu.debug.temp.o
                                        0xbb8 (size before relaxing)
 .debug_str     0x0000000000009c12       0x94 C:\TMP\cccP6nKq.debug.temp.o
                                        0x6df (size before relaxing)
 .debug_str     0x0000000000009ca6     0x1373 C:\TMP\cc7UZkPd.debug.temp.o
                                       0x1fd7 (size before relaxing)
 .debug_str     0x000000000000b019       0xb8 C:\TMP\ccGE8QB9.debug.temp.o
                                       0x197e (size before relaxing)
 .debug_str     0x000000000000b0d1      0xa04 C:\TMP\ccBWptpV.debug.temp.o
                                       0x1b50 (size before relaxing)
 .debug_str     0x000000000000bad5      0x160 C:\TMP\ccURSunQ.debug.temp.o
                                        0x8a5 (size before relaxing)
 .debug_str     0x000000000000bc35      0x736 C:\TMP\ccAsH6WR.debug.temp.o
                                       0x11d1 (size before relaxing)
 .debug_str     0x000000000000c36b      0x37c C:\TMP\cc5XVEJS.debug.temp.o
                                        0xa5a (size before relaxing)
 .debug_str     0x000000000000c6e7      0x164 C:\TMP\cckLhgXT.debug.temp.o
                                        0x823 (size before relaxing)
 .debug_str     0x000000000000c84b      0x82e C:\TMP\ccbqv85U.debug.temp.o
                                       0x1292 (size before relaxing)
 .debug_str     0x000000000000d079     0x17ce C:\TMP\ccytHTqV.debug.temp.o
                                       0x2573 (size before relaxing)
 .debug_str     0x000000000000e847      0x470 C:\TMP\ccV11MQW.debug.temp.o
                                        0xb64 (size before relaxing)
 .debug_str     0x000000000000ecb7       0x76 C:\TMP\ccsstjAW.debug.temp.o
                                        0x715 (size before relaxing)
 .debug_str     0x000000000000ed2d      0x497 C:\TMP\ccx6oqaW.debug.temp.o
                                       0x12bc (size before relaxing)
 .debug_str     0x000000000000f1c4      0x51b C:\TMP\cco5IAbW.debug.temp.o
                                        0x88b (size before relaxing)
 .debug_str     0x000000000000f6df      0x344 C:\TMP\ccVBBfhW.debug.temp.o
                                        0xaad (size before relaxing)
 .debug_str     0x000000000000fa23      0x4b6 C:\TMP\cc8x4vdW.debug.temp.o
                                        0xdba (size before relaxing)
 .debug_str     0x000000000000fed9      0x5c3 C:\TMP\ccbMp0wT.debug.temp.o
                                       0x11f0 (size before relaxing)
 .debug_str     0x000000000001049c      0x263 C:\TMP\cc8HGUPS.debug.temp.o
                                        0xbac (size before relaxing)
 .debug_str     0x00000000000106ff      0x145 C:\TMP\ccBEpL5V.debug.temp.o
                                        0x787 (size before relaxing)
 .debug_str     0x0000000000010844      0x1f4 C:\TMP\ccyhfa85.debug.temp.o
                                       0x146a (size before relaxing)
 .debug_str     0x0000000000010a38       0xf9 C:\TMP\cc9xWLM8.debug.temp.o
                                        0x8a6 (size before relaxing)
 .debug_str     0x0000000000010b31       0x5e C:\TMP\ccEbBLvb.debug.temp.o
                                        0x21d (size before relaxing)
 .debug_str     0x0000000000010b8f       0x40 C:\TMP\ccRhR60d.debug.temp.o
                                        0x2d1 (size before relaxing)
 .debug_str     0x0000000000010bcf      0x12b C:\TMP\ccM6qmXg.debug.temp.o
                                       0x10c3 (size before relaxing)
 .debug_str     0x0000000000010cfa      0x18f C:\TMP\ccdIFWXj.debug.temp.o
                                       0x168f (size before relaxing)
 .debug_str     0x0000000000010e89      0x944 C:\TMP\ccV9u5Un.debug.temp.o
                                       0x213c (size before relaxing)
 .debug_str     0x00000000000117cd      0x116 C:\TMP\ccQAqWfq.debug.temp.o
                                       0x1278 (size before relaxing)
 .debug_str     0x00000000000118e3      0x292 C:\TMP\ccHX6jFs.debug.temp.o
                                        0xcce (size before relaxing)
 .debug_str     0x0000000000011b75      0x431 C:\TMP\cc6xhiVu.debug.temp.o
                                       0x122e (size before relaxing)
 .debug_str     0x0000000000011fa6      0x118 C:\TMP\ccXWohnw.debug.temp.o
                                        0xde2 (size before relaxing)
 .debug_str     0x00000000000120be      0x240 C:\TMP\ccmz0QFx.debug.temp.o
                                        0x905 (size before relaxing)
 .debug_str     0x00000000000122fe      0x1dc C:\TMP\cczVgW2y.debug.temp.o
                                        0x8ea (size before relaxing)
 .debug_str     0x00000000000124da       0x48 C:\TMP\ccy6oWQA.debug.temp.o
                                        0x20c (size before relaxing)
 .debug_str     0x0000000000012522       0x4a C:\TMP\cc50xFvC.debug.temp.o
                                        0x20e (size before relaxing)
 .debug_str     0x000000000001256c       0x4a C:\TMP\cc4nq0bI.debug.temp.o
                                        0x20e (size before relaxing)
 .debug_str     0x00000000000125b6       0x4a C:\TMP\ccN0MuCN.debug.temp.o
                                        0x20e (size before relaxing)
 .debug_str     0x0000000000012600       0x3a C:\TMP\cceSZ1tT.debug.temp.o
                                        0x20e (size before relaxing)
 .debug_str     0x000000000001263a       0x4a C:\TMP\cctXkWpZ.debug.temp.o
                                        0x20e (size before relaxing)
 .debug_str     0x0000000000012684      0x215 C:\TMP\ccoWt374.debug.temp.o
                                        0x905 (size before relaxing)
 .debug_str     0x0000000000012899       0x42 C:\TMP\ccD3fz69.debug.temp.o
                                        0x206 (size before relaxing)
 .debug_str     0x00000000000128db       0x47 C:\TMP\ccMxZs9e.debug.temp.o
                                        0x20b (size before relaxing)
 .debug_str     0x0000000000012922       0x4c C:\TMP\ccDukIYj.debug.temp.o
                                        0x210 (size before relaxing)
 .debug_str     0x000000000001296e       0x40 C:\TMP\ccGlFAco.debug.temp.o
                                        0x204 (size before relaxing)
 .debug_str     0x00000000000129ae       0x57 C:\TMP\ccvxowRs.debug.temp.o
                                        0x21b (size before relaxing)
 .debug_str     0x0000000000012a05      0x189 C:\TMP\cc8YymFx.debug.temp.o
                                        0x88c (size before relaxing)
 .debug_str     0x0000000000012b8e       0x4a C:\TMP\ccaZgpaG.debug.temp.o
                                        0x2af (size before relaxing)
 .debug_str     0x0000000000012bd8       0xd7 C:\TMP\ccJoDn5J.debug.temp.o
                                        0x7bb (size before relaxing)
 .debug_str     0x0000000000012caf       0x6e C:\TMP\ccQ1tWQN.debug.temp.o
                                        0x23a (size before relaxing)
 .debug_str     0x0000000000012d1d      0x236 C:\TMP\ccFTay3R.debug.temp.o
                                        0x9fb (size before relaxing)
 .debug_str     0x0000000000012f53      0x157 C:\TMP\cc6AqT6V.debug.temp.o
                                        0xcc7 (size before relaxing)
 .debug_str     0x00000000000130aa       0xc2 C:\TMP\ccV61963.debug.temp.o
                                        0xc06 (size before relaxing)
 .debug_str     0x000000000001316c      0x457 C:\TMP\ccq2XLTb.debug.temp.o
                                       0x10cd (size before relaxing)
 .debug_str     0x00000000000135c3       0xd6 C:\TMP\ccLSjj7j.debug.temp.o
                                        0x88a (size before relaxing)
 .debug_str     0x0000000000013699      0x1b6 C:\TMP\ccocCxEr.debug.temp.o
                                        0xe97 (size before relaxing)
 .debug_str     0x000000000001384f      0x145 C:\TMP\ccQPtw6E.debug.temp.o
                                        0xbc8 (size before relaxing)
 .debug_str     0x0000000000013994      0x11a C:\TMP\ccfwBp7L.debug.temp.o
                                        0x974 (size before relaxing)
 .debug_str     0x0000000000013aae       0x6d C:\TMP\ccNpeBGg.debug.temp.o
                                        0x2ef (size before relaxing)
 .debug_str     0x0000000000013b1b       0x31 C:\TMP\cc01EbPq.debug.temp.o
                                        0x289 (size before relaxing)
 .debug_str     0x0000000000013b4c       0x98 C:\TMP\cc1veHoB.debug.temp.o
                                        0x9cb (size before relaxing)
 .debug_str     0x0000000000013be4     0x1411 C:\TMP\ccQJsI2L.debug.temp.o
                                       0x2ba6 (size before relaxing)
 .debug_str     0x0000000000014ff5      0x391 C:\TMP\ccr0jXsW.debug.temp.o
                                       0x1bc4 (size before relaxing)
 .debug_str     0x0000000000015386     0x14f1 C:\TMP\ccijgA95.debug.temp.o
                                       0x3aab (size before relaxing)
 .debug_str     0x0000000000016877      0x210 C:\TMP\ccHPGNGf.debug.temp.o
                                        0x3e8 (size before relaxing)
 .debug_str     0x0000000000016a87      0x21c C:\TMP\ccU5Lwip.debug.temp.o
                                       0x1a20 (size before relaxing)
 .debug_str     0x0000000000016ca3      0x27e C:\TMP\cc3TjNgz.debug.temp.o
                                       0x2013 (size before relaxing)
 .debug_str     0x0000000000016f21      0x11e C:\TMP\ccs0E09I.debug.temp.o
                                       0x193b (size before relaxing)
 .debug_str     0x000000000001703f      0x370 C:\TMP\ccQTc5EO.debug.temp.o
                                        0xe88 (size before relaxing)
 .debug_str     0x00000000000173af      0x17b C:\TMP\ccA17twR.debug.temp.o
                                        0xa13 (size before relaxing)
 .debug_str     0x000000000001752a      0x119 C:\TMP\cc8lCJ5S.debug.temp.o
                                        0x9a5 (size before relaxing)
 .debug_str     0x0000000000017643      0x1d0 C:\TMP\ccGIxAHT.debug.temp.o
                                        0xaea (size before relaxing)
 .debug_str     0x0000000000017813      0x778 C:\TMP\cc6yGvKU.debug.temp.o
                                       0x127d (size before relaxing)
 .debug_str     0x0000000000017f8b      0x212 C:\TMP\cc0wL0DV.debug.temp.o
                                        0x528 (size before relaxing)
 .debug_str     0x000000000001819d      0xade C:\TMP\cceDtUNV.debug.temp.o
                                       0x1486 (size before relaxing)
 .debug_str     0x0000000000018c7b      0x680 C:\TMP\ccOGkUSV.debug.temp.o
                                        0xf18 (size before relaxing)
 .debug_str     0x00000000000192fb      0x246 C:\TMP\ccW7cbbW.debug.temp.o
                                       0x1244 (size before relaxing)
 .debug_str     0x0000000000019541       0xba build/objs/ci130x_startup.o
 .debug_str     0x00000000000195fb      0xd05 ../../../libs\libnewlib_port.a(sbrk.o)
                                        0xe31 (size before relaxing)
 .debug_str     0x000000000001a300       0x7e ../../../libs\libfreertos_port.a(portasm.o)
                                         0x8a (size before relaxing)
 .debug_str     0x000000000001a37e       0xdd d:/software/yuyin/qiqiyinqiluntai/riscv-nuclei-elf-gcc-9.2.0.0/gcc_fix_raissrc/bin/../lib/gcc/riscv-nuclei-elf/9.2.0/rv32imafc/ilp32f\libgcc.a(save-restore.o)
                                         0xe9 (size before relaxing)
 .debug_str     0x000000000001a45b      0x25b d:/software/yuyin/qiqiyinqiluntai/riscv-nuclei-elf-gcc-9.2.0.0/gcc_fix_raissrc/bin/../lib/gcc/riscv-nuclei-elf/9.2.0/rv32imafc/ilp32f\libgcc.a(adddf3.o)
                                        0x371 (size before relaxing)
 .debug_str     0x000000000001a6b6      0x1fd d:/software/yuyin/qiqiyinqiluntai/riscv-nuclei-elf-gcc-9.2.0.0/gcc_fix_raissrc/bin/../lib/gcc/riscv-nuclei-elf/9.2.0/rv32imafc/ilp32f\libgcc.a(divdf3.o)
                                        0x433 (size before relaxing)
 .debug_str     0x000000000001a8b3       0x72 d:/software/yuyin/qiqiyinqiluntai/riscv-nuclei-elf-gcc-9.2.0.0/gcc_fix_raissrc/bin/../lib/gcc/riscv-nuclei-elf/9.2.0/rv32imafc/ilp32f\libgcc.a(eqdf2.o)
                                        0x28b (size before relaxing)
 .debug_str     0x000000000001a925       0x77 d:/software/yuyin/qiqiyinqiluntai/riscv-nuclei-elf-gcc-9.2.0.0/gcc_fix_raissrc/bin/../lib/gcc/riscv-nuclei-elf/9.2.0/rv32imafc/ilp32f\libgcc.a(gedf2.o)
                                        0x2af (size before relaxing)
 .debug_str     0x000000000001a99c       0x53 d:/software/yuyin/qiqiyinqiluntai/riscv-nuclei-elf-gcc-9.2.0.0/gcc_fix_raissrc/bin/../lib/gcc/riscv-nuclei-elf/9.2.0/rv32imafc/ilp32f\libgcc.a(ledf2.o)
                                        0x2af (size before relaxing)
 .debug_str     0x000000000001a9ef      0x17a d:/software/yuyin/qiqiyinqiluntai/riscv-nuclei-elf-gcc-9.2.0.0/gcc_fix_raissrc/bin/../lib/gcc/riscv-nuclei-elf/9.2.0/rv32imafc/ilp32f\libgcc.a(muldf3.o)
                                        0x48b (size before relaxing)
 .debug_str     0x000000000001ab69       0x55 d:/software/yuyin/qiqiyinqiluntai/riscv-nuclei-elf-gcc-9.2.0.0/gcc_fix_raissrc/bin/../lib/gcc/riscv-nuclei-elf/9.2.0/rv32imafc/ilp32f\libgcc.a(subdf3.o)
                                        0x371 (size before relaxing)
 .debug_str     0x000000000001abbe       0x59 d:/software/yuyin/qiqiyinqiluntai/riscv-nuclei-elf-gcc-9.2.0.0/gcc_fix_raissrc/bin/../lib/gcc/riscv-nuclei-elf/9.2.0/rv32imafc/ilp32f\libgcc.a(unorddf2.o)
                                        0x291 (size before relaxing)
 .debug_str     0x000000000001ac17       0x72 d:/software/yuyin/qiqiyinqiluntai/riscv-nuclei-elf-gcc-9.2.0.0/gcc_fix_raissrc/bin/../lib/gcc/riscv-nuclei-elf/9.2.0/rv32imafc/ilp32f\libgcc.a(fixdfsi.o)
                                        0x288 (size before relaxing)
 .debug_str     0x000000000001ac89       0x88 d:/software/yuyin/qiqiyinqiluntai/riscv-nuclei-elf-gcc-9.2.0.0/gcc_fix_raissrc/bin/../lib/gcc/riscv-nuclei-elf/9.2.0/rv32imafc/ilp32f\libgcc.a(floatsidf.o)
                                        0x31e (size before relaxing)
 .debug_str     0x000000000001ad11       0x99 d:/software/yuyin/qiqiyinqiluntai/riscv-nuclei-elf-gcc-9.2.0.0/gcc_fix_raissrc/bin/../lib/gcc/riscv-nuclei-elf/9.2.0/rv32imafc/ilp32f\libgcc.a(extendsfdf2.o)
                                        0x2ac (size before relaxing)
 .debug_str     0x000000000001adaa       0x85 d:/software/yuyin/qiqiyinqiluntai/riscv-nuclei-elf-gcc-9.2.0.0/gcc_fix_raissrc/bin/../lib/gcc/riscv-nuclei-elf/9.2.0/rv32imafc/ilp32f\libgcc.a(truncdfsf2.o)
                                        0x30a (size before relaxing)
 .debug_str     0x000000000001ae2f      0x1c8 d:/software/yuyin/qiqiyinqiluntai/riscv-nuclei-elf-gcc-9.2.0.0/gcc_fix_raissrc/bin/../lib/gcc/riscv-nuclei-elf/9.2.0/rv32imafc/ilp32f\libgcc.a(_clzsi2.o)
                                        0x80f (size before relaxing)
 .debug_str     0x000000000001aff7      0x7f2 d:/software/yuyin/qiqiyinqiluntai/riscv-nuclei-elf-gcc-9.2.0.0/gcc_fix_raissrc/bin/../lib/gcc/riscv-nuclei-elf/9.2.0/rv32imafc/ilp32f\libgcc.a(_clz.o)

.comment        0x0000000000000000       0x11
 .comment       0x0000000000000000       0x12 C:\TMP\nn_denoise_rtc_sample.elf.zkP8Mf.ltrans0.ltrans.o
 .comment       0x0000000000000000       0x12 C:\TMP\nn_denoise_rtc_sample.elf.zkP8Mf.ltrans1.ltrans.o
 .comment       0x0000000000000000       0x11 ../../../libs\libnewlib_port.a(sbrk.o)
                                         0x12 (size before relaxing)
 .comment       0x0000000000000011       0x12 d:/software/yuyin/qiqiyinqiluntai/riscv-nuclei-elf-gcc-9.2.0.0/gcc_fix_raissrc/bin/../lib/gcc/riscv-nuclei-elf/9.2.0/rv32imafc/ilp32f\libgcc.a(adddf3.o)
 .comment       0x0000000000000011       0x12 d:/software/yuyin/qiqiyinqiluntai/riscv-nuclei-elf-gcc-9.2.0.0/gcc_fix_raissrc/bin/../lib/gcc/riscv-nuclei-elf/9.2.0/rv32imafc/ilp32f\libgcc.a(divdf3.o)
 .comment       0x0000000000000011       0x12 d:/software/yuyin/qiqiyinqiluntai/riscv-nuclei-elf-gcc-9.2.0.0/gcc_fix_raissrc/bin/../lib/gcc/riscv-nuclei-elf/9.2.0/rv32imafc/ilp32f\libgcc.a(eqdf2.o)
 .comment       0x0000000000000011       0x12 d:/software/yuyin/qiqiyinqiluntai/riscv-nuclei-elf-gcc-9.2.0.0/gcc_fix_raissrc/bin/../lib/gcc/riscv-nuclei-elf/9.2.0/rv32imafc/ilp32f\libgcc.a(gedf2.o)
 .comment       0x0000000000000011       0x12 d:/software/yuyin/qiqiyinqiluntai/riscv-nuclei-elf-gcc-9.2.0.0/gcc_fix_raissrc/bin/../lib/gcc/riscv-nuclei-elf/9.2.0/rv32imafc/ilp32f\libgcc.a(ledf2.o)
 .comment       0x0000000000000011       0x12 d:/software/yuyin/qiqiyinqiluntai/riscv-nuclei-elf-gcc-9.2.0.0/gcc_fix_raissrc/bin/../lib/gcc/riscv-nuclei-elf/9.2.0/rv32imafc/ilp32f\libgcc.a(muldf3.o)
 .comment       0x0000000000000011       0x12 d:/software/yuyin/qiqiyinqiluntai/riscv-nuclei-elf-gcc-9.2.0.0/gcc_fix_raissrc/bin/../lib/gcc/riscv-nuclei-elf/9.2.0/rv32imafc/ilp32f\libgcc.a(subdf3.o)
 .comment       0x0000000000000011       0x12 d:/software/yuyin/qiqiyinqiluntai/riscv-nuclei-elf-gcc-9.2.0.0/gcc_fix_raissrc/bin/../lib/gcc/riscv-nuclei-elf/9.2.0/rv32imafc/ilp32f\libgcc.a(unorddf2.o)
 .comment       0x0000000000000011       0x12 d:/software/yuyin/qiqiyinqiluntai/riscv-nuclei-elf-gcc-9.2.0.0/gcc_fix_raissrc/bin/../lib/gcc/riscv-nuclei-elf/9.2.0/rv32imafc/ilp32f\libgcc.a(fixdfsi.o)
 .comment       0x0000000000000011       0x12 d:/software/yuyin/qiqiyinqiluntai/riscv-nuclei-elf-gcc-9.2.0.0/gcc_fix_raissrc/bin/../lib/gcc/riscv-nuclei-elf/9.2.0/rv32imafc/ilp32f\libgcc.a(floatsidf.o)
 .comment       0x0000000000000011       0x12 d:/software/yuyin/qiqiyinqiluntai/riscv-nuclei-elf-gcc-9.2.0.0/gcc_fix_raissrc/bin/../lib/gcc/riscv-nuclei-elf/9.2.0/rv32imafc/ilp32f\libgcc.a(extendsfdf2.o)
 .comment       0x0000000000000011       0x12 d:/software/yuyin/qiqiyinqiluntai/riscv-nuclei-elf-gcc-9.2.0.0/gcc_fix_raissrc/bin/../lib/gcc/riscv-nuclei-elf/9.2.0/rv32imafc/ilp32f\libgcc.a(truncdfsf2.o)
 .comment       0x0000000000000011       0x12 d:/software/yuyin/qiqiyinqiluntai/riscv-nuclei-elf-gcc-9.2.0.0/gcc_fix_raissrc/bin/../lib/gcc/riscv-nuclei-elf/9.2.0/rv32imafc/ilp32f\libgcc.a(_clzsi2.o)
 .comment       0x0000000000000011       0x12 d:/software/yuyin/qiqiyinqiluntai/riscv-nuclei-elf-gcc-9.2.0.0/gcc_fix_raissrc/bin/../lib/gcc/riscv-nuclei-elf/9.2.0/rv32imafc/ilp32f\libgcc.a(_clz.o)
 .comment       0x0000000000000011       0x12 d:/software/yuyin/qiqiyinqiluntai/riscv-nuclei-elf-gcc-9.2.0.0/gcc_fix_raissrc/bin/../lib/gcc/riscv-nuclei-elf/9.2.0/../../../../riscv-nuclei-elf/lib/rv32imafc/ilp32f\libg_nano.a(lib_a-atexit.o)
 .comment       0x0000000000000011       0x12 d:/software/yuyin/qiqiyinqiluntai/riscv-nuclei-elf-gcc-9.2.0.0/gcc_fix_raissrc/bin/../lib/gcc/riscv-nuclei-elf/9.2.0/../../../../riscv-nuclei-elf/lib/rv32imafc/ilp32f\libg_nano.a(lib_a-exit.o)
 .comment       0x0000000000000011       0x12 d:/software/yuyin/qiqiyinqiluntai/riscv-nuclei-elf-gcc-9.2.0.0/gcc_fix_raissrc/bin/../lib/gcc/riscv-nuclei-elf/9.2.0/../../../../riscv-nuclei-elf/lib/rv32imafc/ilp32f\libg_nano.a(lib_a-fini.o)
 .comment       0x0000000000000011       0x12 d:/software/yuyin/qiqiyinqiluntai/riscv-nuclei-elf-gcc-9.2.0.0/gcc_fix_raissrc/bin/../lib/gcc/riscv-nuclei-elf/9.2.0/../../../../riscv-nuclei-elf/lib/rv32imafc/ilp32f\libg_nano.a(lib_a-impure.o)
 .comment       0x0000000000000011       0x12 d:/software/yuyin/qiqiyinqiluntai/riscv-nuclei-elf-gcc-9.2.0.0/gcc_fix_raissrc/bin/../lib/gcc/riscv-nuclei-elf/9.2.0/../../../../riscv-nuclei-elf/lib/rv32imafc/ilp32f\libg_nano.a(lib_a-init.o)
 .comment       0x0000000000000011       0x12 d:/software/yuyin/qiqiyinqiluntai/riscv-nuclei-elf-gcc-9.2.0.0/gcc_fix_raissrc/bin/../lib/gcc/riscv-nuclei-elf/9.2.0/../../../../riscv-nuclei-elf/lib/rv32imafc/ilp32f\libg_nano.a(lib_a-__atexit.o)
 .comment       0x0000000000000011       0x12 d:/software/yuyin/qiqiyinqiluntai/riscv-nuclei-elf-gcc-9.2.0.0/gcc_fix_raissrc/bin/../lib/gcc/riscv-nuclei-elf/9.2.0/../../../../riscv-nuclei-elf/lib/rv32imafc/ilp32f\libg_nano.a(lib_a-__call_atexit.o)
 .comment       0x0000000000000011       0x12 d:/software/yuyin/qiqiyinqiluntai/riscv-nuclei-elf-gcc-9.2.0.0/gcc_fix_raissrc/bin/../lib/gcc/riscv-nuclei-elf/9.2.0/../../../../riscv-nuclei-elf/lib/rv32imafc/ilp32f\libg_nano.a(lib_a-calloc.o)
 .comment       0x0000000000000011       0x12 d:/software/yuyin/qiqiyinqiluntai/riscv-nuclei-elf-gcc-9.2.0.0/gcc_fix_raissrc/bin/../lib/gcc/riscv-nuclei-elf/9.2.0/../../../../riscv-nuclei-elf/lib/rv32imafc/ilp32f\libg_nano.a(lib_a-fprintf.o)
 .comment       0x0000000000000011       0x12 d:/software/yuyin/qiqiyinqiluntai/riscv-nuclei-elf-gcc-9.2.0.0/gcc_fix_raissrc/bin/../lib/gcc/riscv-nuclei-elf/9.2.0/../../../../riscv-nuclei-elf/lib/rv32imafc/ilp32f\libg_nano.a(lib_a-nano-callocr.o)
 .comment       0x0000000000000011       0x12 d:/software/yuyin/qiqiyinqiluntai/riscv-nuclei-elf-gcc-9.2.0.0/gcc_fix_raissrc/bin/../lib/gcc/riscv-nuclei-elf/9.2.0/../../../../riscv-nuclei-elf/lib/rv32imafc/ilp32f\libg_nano.a(lib_a-nano-mallocr.o)
 .comment       0x0000000000000011       0x12 d:/software/yuyin/qiqiyinqiluntai/riscv-nuclei-elf-gcc-9.2.0.0/gcc_fix_raissrc/bin/../lib/gcc/riscv-nuclei-elf/9.2.0/../../../../riscv-nuclei-elf/lib/rv32imafc/ilp32f\libg_nano.a(lib_a-nano-vfprintf.o)
 .comment       0x0000000000000011       0x12 d:/software/yuyin/qiqiyinqiluntai/riscv-nuclei-elf-gcc-9.2.0.0/gcc_fix_raissrc/bin/../lib/gcc/riscv-nuclei-elf/9.2.0/../../../../riscv-nuclei-elf/lib/rv32imafc/ilp32f\libg_nano.a(lib_a-realloc.o)
 .comment       0x0000000000000011       0x12 d:/software/yuyin/qiqiyinqiluntai/riscv-nuclei-elf-gcc-9.2.0.0/gcc_fix_raissrc/bin/../lib/gcc/riscv-nuclei-elf/9.2.0/../../../../riscv-nuclei-elf/lib/rv32imafc/ilp32f\libg_nano.a(lib_a-sbrkr.o)
 .comment       0x0000000000000011       0x12 d:/software/yuyin/qiqiyinqiluntai/riscv-nuclei-elf-gcc-9.2.0.0/gcc_fix_raissrc/bin/../lib/gcc/riscv-nuclei-elf/9.2.0/../../../../riscv-nuclei-elf/lib/rv32imafc/ilp32f\libg_nano.a(lib_a-wbuf.o)
 .comment       0x0000000000000011       0x12 d:/software/yuyin/qiqiyinqiluntai/riscv-nuclei-elf-gcc-9.2.0.0/gcc_fix_raissrc/bin/../lib/gcc/riscv-nuclei-elf/9.2.0/../../../../riscv-nuclei-elf/lib/rv32imafc/ilp32f\libg_nano.a(lib_a-wsetup.o)
 .comment       0x0000000000000011       0x12 d:/software/yuyin/qiqiyinqiluntai/riscv-nuclei-elf-gcc-9.2.0.0/gcc_fix_raissrc/bin/../lib/gcc/riscv-nuclei-elf/9.2.0/../../../../riscv-nuclei-elf/lib/rv32imafc/ilp32f\libg_nano.a(lib_a-fflush.o)
 .comment       0x0000000000000011       0x12 d:/software/yuyin/qiqiyinqiluntai/riscv-nuclei-elf-gcc-9.2.0.0/gcc_fix_raissrc/bin/../lib/gcc/riscv-nuclei-elf/9.2.0/../../../../riscv-nuclei-elf/lib/rv32imafc/ilp32f\libg_nano.a(lib_a-findfp.o)
 .comment       0x0000000000000011       0x12 d:/software/yuyin/qiqiyinqiluntai/riscv-nuclei-elf-gcc-9.2.0.0/gcc_fix_raissrc/bin/../lib/gcc/riscv-nuclei-elf/9.2.0/../../../../riscv-nuclei-elf/lib/rv32imafc/ilp32f\libg_nano.a(lib_a-fwalk.o)
 .comment       0x0000000000000011       0x12 d:/software/yuyin/qiqiyinqiluntai/riscv-nuclei-elf-gcc-9.2.0.0/gcc_fix_raissrc/bin/../lib/gcc/riscv-nuclei-elf/9.2.0/../../../../riscv-nuclei-elf/lib/rv32imafc/ilp32f\libg_nano.a(lib_a-makebuf.o)
 .comment       0x0000000000000011       0x12 d:/software/yuyin/qiqiyinqiluntai/riscv-nuclei-elf-gcc-9.2.0.0/gcc_fix_raissrc/bin/../lib/gcc/riscv-nuclei-elf/9.2.0/../../../../riscv-nuclei-elf/lib/rv32imafc/ilp32f\libg_nano.a(lib_a-memchr.o)
 .comment       0x0000000000000011       0x12 d:/software/yuyin/qiqiyinqiluntai/riscv-nuclei-elf-gcc-9.2.0.0/gcc_fix_raissrc/bin/../lib/gcc/riscv-nuclei-elf/9.2.0/../../../../riscv-nuclei-elf/lib/rv32imafc/ilp32f\libg_nano.a(lib_a-nano-freer.o)
 .comment       0x0000000000000011       0x12 d:/software/yuyin/qiqiyinqiluntai/riscv-nuclei-elf-gcc-9.2.0.0/gcc_fix_raissrc/bin/../lib/gcc/riscv-nuclei-elf/9.2.0/../../../../riscv-nuclei-elf/lib/rv32imafc/ilp32f\libg_nano.a(lib_a-nano-reallocr.o)
 .comment       0x0000000000000011       0x12 d:/software/yuyin/qiqiyinqiluntai/riscv-nuclei-elf-gcc-9.2.0.0/gcc_fix_raissrc/bin/../lib/gcc/riscv-nuclei-elf/9.2.0/../../../../riscv-nuclei-elf/lib/rv32imafc/ilp32f\libg_nano.a(lib_a-nano-vfprintf_i.o)
 .comment       0x0000000000000011       0x12 d:/software/yuyin/qiqiyinqiluntai/riscv-nuclei-elf-gcc-9.2.0.0/gcc_fix_raissrc/bin/../lib/gcc/riscv-nuclei-elf/9.2.0/../../../../riscv-nuclei-elf/lib/rv32imafc/ilp32f\libg_nano.a(lib_a-reent.o)
 .comment       0x0000000000000011       0x12 d:/software/yuyin/qiqiyinqiluntai/riscv-nuclei-elf-gcc-9.2.0.0/gcc_fix_raissrc/bin/../lib/gcc/riscv-nuclei-elf/9.2.0/../../../../riscv-nuclei-elf/lib/rv32imafc/ilp32f\libg_nano.a(lib_a-stdio.o)
 .comment       0x0000000000000011       0x12 d:/software/yuyin/qiqiyinqiluntai/riscv-nuclei-elf-gcc-9.2.0.0/gcc_fix_raissrc/bin/../lib/gcc/riscv-nuclei-elf/9.2.0/../../../../riscv-nuclei-elf/lib/rv32imafc/ilp32f\libg_nano.a(lib_a-writer.o)
 .comment       0x0000000000000011       0x12 d:/software/yuyin/qiqiyinqiluntai/riscv-nuclei-elf-gcc-9.2.0.0/gcc_fix_raissrc/bin/../lib/gcc/riscv-nuclei-elf/9.2.0/../../../../riscv-nuclei-elf/lib/rv32imafc/ilp32f\libg_nano.a(lib_a-closer.o)
 .comment       0x0000000000000011       0x12 d:/software/yuyin/qiqiyinqiluntai/riscv-nuclei-elf-gcc-9.2.0.0/gcc_fix_raissrc/bin/../lib/gcc/riscv-nuclei-elf/9.2.0/../../../../riscv-nuclei-elf/lib/rv32imafc/ilp32f\libg_nano.a(lib_a-fstatr.o)
 .comment       0x0000000000000011       0x12 d:/software/yuyin/qiqiyinqiluntai/riscv-nuclei-elf-gcc-9.2.0.0/gcc_fix_raissrc/bin/../lib/gcc/riscv-nuclei-elf/9.2.0/../../../../riscv-nuclei-elf/lib/rv32imafc/ilp32f\libg_nano.a(lib_a-isattyr.o)
 .comment       0x0000000000000011       0x12 d:/software/yuyin/qiqiyinqiluntai/riscv-nuclei-elf-gcc-9.2.0.0/gcc_fix_raissrc/bin/../lib/gcc/riscv-nuclei-elf/9.2.0/../../../../riscv-nuclei-elf/lib/rv32imafc/ilp32f\libg_nano.a(lib_a-lseekr.o)
 .comment       0x0000000000000011       0x12 d:/software/yuyin/qiqiyinqiluntai/riscv-nuclei-elf-gcc-9.2.0.0/gcc_fix_raissrc/bin/../lib/gcc/riscv-nuclei-elf/9.2.0/../../../../riscv-nuclei-elf/lib/rv32imafc/ilp32f\libg_nano.a(lib_a-nano-msizer.o)
 .comment       0x0000000000000011       0x12 d:/software/yuyin/qiqiyinqiluntai/riscv-nuclei-elf-gcc-9.2.0.0/gcc_fix_raissrc/bin/../lib/gcc/riscv-nuclei-elf/9.2.0/../../../../riscv-nuclei-elf/lib/rv32imafc/ilp32f\libg_nano.a(lib_a-readr.o)
 .comment       0x0000000000000011       0x12 d:/software/yuyin/qiqiyinqiluntai/riscv-nuclei-elf-gcc-9.2.0.0/gcc_fix_raissrc/bin/../lib/gcc/riscv-nuclei-elf/9.2.0/../../../../riscv-nuclei-elf/lib/rv32imafc/ilp32f\libgloss_nano.a(sys_exit.o)
 .comment       0x0000000000000011       0x12 d:/software/yuyin/qiqiyinqiluntai/riscv-nuclei-elf-gcc-9.2.0.0/gcc_fix_raissrc/bin/../lib/gcc/riscv-nuclei-elf/9.2.0/../../../../riscv-nuclei-elf/lib/rv32imafc/ilp32f\libgloss_nano.a(sys_close.o)
 .comment       0x0000000000000011       0x12 d:/software/yuyin/qiqiyinqiluntai/riscv-nuclei-elf-gcc-9.2.0.0/gcc_fix_raissrc/bin/../lib/gcc/riscv-nuclei-elf/9.2.0/../../../../riscv-nuclei-elf/lib/rv32imafc/ilp32f\libgloss_nano.a(sys_fstat.o)
 .comment       0x0000000000000011       0x12 d:/software/yuyin/qiqiyinqiluntai/riscv-nuclei-elf-gcc-9.2.0.0/gcc_fix_raissrc/bin/../lib/gcc/riscv-nuclei-elf/9.2.0/../../../../riscv-nuclei-elf/lib/rv32imafc/ilp32f\libgloss_nano.a(sys_isatty.o)
 .comment       0x0000000000000011       0x12 d:/software/yuyin/qiqiyinqiluntai/riscv-nuclei-elf-gcc-9.2.0.0/gcc_fix_raissrc/bin/../lib/gcc/riscv-nuclei-elf/9.2.0/../../../../riscv-nuclei-elf/lib/rv32imafc/ilp32f\libgloss_nano.a(sys_lseek.o)
 .comment       0x0000000000000011       0x12 d:/software/yuyin/qiqiyinqiluntai/riscv-nuclei-elf-gcc-9.2.0.0/gcc_fix_raissrc/bin/../lib/gcc/riscv-nuclei-elf/9.2.0/../../../../riscv-nuclei-elf/lib/rv32imafc/ilp32f\libgloss_nano.a(sys_read.o)
 .comment       0x0000000000000011       0x12 d:/software/yuyin/qiqiyinqiluntai/riscv-nuclei-elf-gcc-9.2.0.0/gcc_fix_raissrc/bin/../lib/gcc/riscv-nuclei-elf/9.2.0/../../../../riscv-nuclei-elf/lib/rv32imafc/ilp32f\libgloss_nano.a(sys_write.o)
 .comment       0x0000000000000011       0x12 d:/software/yuyin/qiqiyinqiluntai/riscv-nuclei-elf-gcc-9.2.0.0/gcc_fix_raissrc/bin/../lib/gcc/riscv-nuclei-elf/9.2.0/../../../../riscv-nuclei-elf/lib/rv32imafc/ilp32f\libgloss_nano.a(sys_conv_stat.o)
 .comment       0x0000000000000011       0x12 d:/software/yuyin/qiqiyinqiluntai/riscv-nuclei-elf-gcc-9.2.0.0/gcc_fix_raissrc/bin/../lib/gcc/riscv-nuclei-elf/9.2.0/../../../../riscv-nuclei-elf/lib/rv32imafc/ilp32f\libc_nano.a(lib_a-errno.o)
 .comment       0x0000000000000011       0x12 d:/software/yuyin/qiqiyinqiluntai/riscv-nuclei-elf-gcc-9.2.0.0/gcc_fix_raissrc/bin/../lib/gcc/riscv-nuclei-elf/9.2.0/../../../../riscv-nuclei-elf/lib/rv32imafc/ilp32f\libm.a(lib_a-s_floor.o)
 .comment       0x0000000000000011       0x12 d:/software/yuyin/qiqiyinqiluntai/riscv-nuclei-elf-gcc-9.2.0.0/gcc_fix_raissrc/bin/../lib/gcc/riscv-nuclei-elf/9.2.0/../../../../riscv-nuclei-elf/lib/rv32imafc/ilp32f\libm.a(lib_a-w_acos.o)
 .comment       0x0000000000000011       0x12 d:/software/yuyin/qiqiyinqiluntai/riscv-nuclei-elf-gcc-9.2.0.0/gcc_fix_raissrc/bin/../lib/gcc/riscv-nuclei-elf/9.2.0/../../../../riscv-nuclei-elf/lib/rv32imafc/ilp32f\libm.a(lib_a-w_exp.o)
 .comment       0x0000000000000011       0x12 d:/software/yuyin/qiqiyinqiluntai/riscv-nuclei-elf-gcc-9.2.0.0/gcc_fix_raissrc/bin/../lib/gcc/riscv-nuclei-elf/9.2.0/../../../../riscv-nuclei-elf/lib/rv32imafc/ilp32f\libm.a(lib_a-wf_pow.o)
 .comment       0x0000000000000011       0x12 d:/software/yuyin/qiqiyinqiluntai/riscv-nuclei-elf-gcc-9.2.0.0/gcc_fix_raissrc/bin/../lib/gcc/riscv-nuclei-elf/9.2.0/../../../../riscv-nuclei-elf/lib/rv32imafc/ilp32f\libm.a(lib_a-w_log.o)
 .comment       0x0000000000000011       0x12 d:/software/yuyin/qiqiyinqiluntai/riscv-nuclei-elf-gcc-9.2.0.0/gcc_fix_raissrc/bin/../lib/gcc/riscv-nuclei-elf/9.2.0/../../../../riscv-nuclei-elf/lib/rv32imafc/ilp32f\libm.a(lib_a-w_sqrt.o)
 .comment       0x0000000000000011       0x12 d:/software/yuyin/qiqiyinqiluntai/riscv-nuclei-elf-gcc-9.2.0.0/gcc_fix_raissrc/bin/../lib/gcc/riscv-nuclei-elf/9.2.0/../../../../riscv-nuclei-elf/lib/rv32imafc/ilp32f\libm.a(lib_a-e_acos.o)
 .comment       0x0000000000000011       0x12 d:/software/yuyin/qiqiyinqiluntai/riscv-nuclei-elf-gcc-9.2.0.0/gcc_fix_raissrc/bin/../lib/gcc/riscv-nuclei-elf/9.2.0/../../../../riscv-nuclei-elf/lib/rv32imafc/ilp32f\libm.a(lib_a-e_exp.o)
 .comment       0x0000000000000011       0x12 d:/software/yuyin/qiqiyinqiluntai/riscv-nuclei-elf-gcc-9.2.0.0/gcc_fix_raissrc/bin/../lib/gcc/riscv-nuclei-elf/9.2.0/../../../../riscv-nuclei-elf/lib/rv32imafc/ilp32f\libm.a(lib_a-ef_pow.o)
 .comment       0x0000000000000011       0x12 d:/software/yuyin/qiqiyinqiluntai/riscv-nuclei-elf-gcc-9.2.0.0/gcc_fix_raissrc/bin/../lib/gcc/riscv-nuclei-elf/9.2.0/../../../../riscv-nuclei-elf/lib/rv32imafc/ilp32f\libm.a(lib_a-ef_sqrt.o)
 .comment       0x0000000000000011       0x12 d:/software/yuyin/qiqiyinqiluntai/riscv-nuclei-elf-gcc-9.2.0.0/gcc_fix_raissrc/bin/../lib/gcc/riscv-nuclei-elf/9.2.0/../../../../riscv-nuclei-elf/lib/rv32imafc/ilp32f\libm.a(lib_a-e_log.o)
 .comment       0x0000000000000011       0x12 d:/software/yuyin/qiqiyinqiluntai/riscv-nuclei-elf-gcc-9.2.0.0/gcc_fix_raissrc/bin/../lib/gcc/riscv-nuclei-elf/9.2.0/../../../../riscv-nuclei-elf/lib/rv32imafc/ilp32f\libm.a(lib_a-e_sqrt.o)
 .comment       0x0000000000000011       0x12 d:/software/yuyin/qiqiyinqiluntai/riscv-nuclei-elf-gcc-9.2.0.0/gcc_fix_raissrc/bin/../lib/gcc/riscv-nuclei-elf/9.2.0/../../../../riscv-nuclei-elf/lib/rv32imafc/ilp32f\libm.a(lib_a-s_fabs.o)
 .comment       0x0000000000000011       0x12 d:/software/yuyin/qiqiyinqiluntai/riscv-nuclei-elf-gcc-9.2.0.0/gcc_fix_raissrc/bin/../lib/gcc/riscv-nuclei-elf/9.2.0/../../../../riscv-nuclei-elf/lib/rv32imafc/ilp32f\libm.a(lib_a-sf_finite.o)
 .comment       0x0000000000000011       0x12 d:/software/yuyin/qiqiyinqiluntai/riscv-nuclei-elf-gcc-9.2.0.0/gcc_fix_raissrc/bin/../lib/gcc/riscv-nuclei-elf/9.2.0/../../../../riscv-nuclei-elf/lib/rv32imafc/ilp32f\libm.a(lib_a-s_finite.o)
 .comment       0x0000000000000011       0x12 d:/software/yuyin/qiqiyinqiluntai/riscv-nuclei-elf-gcc-9.2.0.0/gcc_fix_raissrc/bin/../lib/gcc/riscv-nuclei-elf/9.2.0/../../../../riscv-nuclei-elf/lib/rv32imafc/ilp32f\libm.a(lib_a-sf_nan.o)
 .comment       0x0000000000000011       0x12 d:/software/yuyin/qiqiyinqiluntai/riscv-nuclei-elf-gcc-9.2.0.0/gcc_fix_raissrc/bin/../lib/gcc/riscv-nuclei-elf/9.2.0/../../../../riscv-nuclei-elf/lib/rv32imafc/ilp32f\libm.a(lib_a-sf_rint.o)
 .comment       0x0000000000000011       0x12 d:/software/yuyin/qiqiyinqiluntai/riscv-nuclei-elf-gcc-9.2.0.0/gcc_fix_raissrc/bin/../lib/gcc/riscv-nuclei-elf/9.2.0/../../../../riscv-nuclei-elf/lib/rv32imafc/ilp32f\libm.a(lib_a-sf_scalbn.o)
 .comment       0x0000000000000011       0x12 d:/software/yuyin/qiqiyinqiluntai/riscv-nuclei-elf-gcc-9.2.0.0/gcc_fix_raissrc/bin/../lib/gcc/riscv-nuclei-elf/9.2.0/../../../../riscv-nuclei-elf/lib/rv32imafc/ilp32f\libm.a(lib_a-s_lib_ver.o)
 .comment       0x0000000000000011       0x12 d:/software/yuyin/qiqiyinqiluntai/riscv-nuclei-elf-gcc-9.2.0.0/gcc_fix_raissrc/bin/../lib/gcc/riscv-nuclei-elf/9.2.0/../../../../riscv-nuclei-elf/lib/rv32imafc/ilp32f\libm.a(lib_a-s_matherr.o)
 .comment       0x0000000000000011       0x12 d:/software/yuyin/qiqiyinqiluntai/riscv-nuclei-elf-gcc-9.2.0.0/gcc_fix_raissrc/bin/../lib/gcc/riscv-nuclei-elf/9.2.0/../../../../riscv-nuclei-elf/lib/rv32imafc/ilp32f\libm.a(lib_a-s_nan.o)
 .comment       0x0000000000000011       0x12 d:/software/yuyin/qiqiyinqiluntai/riscv-nuclei-elf-gcc-9.2.0.0/gcc_fix_raissrc/bin/../lib/gcc/riscv-nuclei-elf/9.2.0/../../../../riscv-nuclei-elf/lib/rv32imafc/ilp32f\libm.a(lib_a-sf_copysign.o)

.riscv.attributes
                0x0000000000000000       0x30
 .riscv.attributes
                0x0000000000000000       0x30 C:\TMP\nn_denoise_rtc_sample.elf.zkP8Mf.ltrans0.ltrans.o
 .riscv.attributes
                0x0000000000000030       0x30 C:\TMP\nn_denoise_rtc_sample.elf.zkP8Mf.ltrans1.ltrans.o
 .riscv.attributes
                0x0000000000000060       0x2e build/objs/ci130x_startup.o
 .riscv.attributes
                0x000000000000008e       0x30 ../../../libs\libnewlib_port.a(sbrk.o)
 .riscv.attributes
                0x00000000000000be       0x2e ../../../libs\libfreertos_port.a(portasm.o)
 .riscv.attributes
                0x00000000000000ec       0x2e d:/software/yuyin/qiqiyinqiluntai/riscv-nuclei-elf-gcc-9.2.0.0/gcc_fix_raissrc/bin/../lib/gcc/riscv-nuclei-elf/9.2.0/rv32imafc/ilp32f\libgcc.a(save-restore.o)
 .riscv.attributes
                0x000000000000011a       0x30 d:/software/yuyin/qiqiyinqiluntai/riscv-nuclei-elf-gcc-9.2.0.0/gcc_fix_raissrc/bin/../lib/gcc/riscv-nuclei-elf/9.2.0/rv32imafc/ilp32f\libgcc.a(adddf3.o)
 .riscv.attributes
                0x000000000000014a       0x30 d:/software/yuyin/qiqiyinqiluntai/riscv-nuclei-elf-gcc-9.2.0.0/gcc_fix_raissrc/bin/../lib/gcc/riscv-nuclei-elf/9.2.0/rv32imafc/ilp32f\libgcc.a(divdf3.o)
 .riscv.attributes
                0x000000000000017a       0x30 d:/software/yuyin/qiqiyinqiluntai/riscv-nuclei-elf-gcc-9.2.0.0/gcc_fix_raissrc/bin/../lib/gcc/riscv-nuclei-elf/9.2.0/rv32imafc/ilp32f\libgcc.a(eqdf2.o)
 .riscv.attributes
                0x00000000000001aa       0x30 d:/software/yuyin/qiqiyinqiluntai/riscv-nuclei-elf-gcc-9.2.0.0/gcc_fix_raissrc/bin/../lib/gcc/riscv-nuclei-elf/9.2.0/rv32imafc/ilp32f\libgcc.a(gedf2.o)
 .riscv.attributes
                0x00000000000001da       0x30 d:/software/yuyin/qiqiyinqiluntai/riscv-nuclei-elf-gcc-9.2.0.0/gcc_fix_raissrc/bin/../lib/gcc/riscv-nuclei-elf/9.2.0/rv32imafc/ilp32f\libgcc.a(ledf2.o)
 .riscv.attributes
                0x000000000000020a       0x30 d:/software/yuyin/qiqiyinqiluntai/riscv-nuclei-elf-gcc-9.2.0.0/gcc_fix_raissrc/bin/../lib/gcc/riscv-nuclei-elf/9.2.0/rv32imafc/ilp32f\libgcc.a(muldf3.o)
 .riscv.attributes
                0x000000000000023a       0x30 d:/software/yuyin/qiqiyinqiluntai/riscv-nuclei-elf-gcc-9.2.0.0/gcc_fix_raissrc/bin/../lib/gcc/riscv-nuclei-elf/9.2.0/rv32imafc/ilp32f\libgcc.a(subdf3.o)
 .riscv.attributes
                0x000000000000026a       0x30 d:/software/yuyin/qiqiyinqiluntai/riscv-nuclei-elf-gcc-9.2.0.0/gcc_fix_raissrc/bin/../lib/gcc/riscv-nuclei-elf/9.2.0/rv32imafc/ilp32f\libgcc.a(unorddf2.o)
 .riscv.attributes
                0x000000000000029a       0x30 d:/software/yuyin/qiqiyinqiluntai/riscv-nuclei-elf-gcc-9.2.0.0/gcc_fix_raissrc/bin/../lib/gcc/riscv-nuclei-elf/9.2.0/rv32imafc/ilp32f\libgcc.a(fixdfsi.o)
 .riscv.attributes
                0x00000000000002ca       0x30 d:/software/yuyin/qiqiyinqiluntai/riscv-nuclei-elf-gcc-9.2.0.0/gcc_fix_raissrc/bin/../lib/gcc/riscv-nuclei-elf/9.2.0/rv32imafc/ilp32f\libgcc.a(floatsidf.o)
 .riscv.attributes
                0x00000000000002fa       0x30 d:/software/yuyin/qiqiyinqiluntai/riscv-nuclei-elf-gcc-9.2.0.0/gcc_fix_raissrc/bin/../lib/gcc/riscv-nuclei-elf/9.2.0/rv32imafc/ilp32f\libgcc.a(extendsfdf2.o)
 .riscv.attributes
                0x000000000000032a       0x30 d:/software/yuyin/qiqiyinqiluntai/riscv-nuclei-elf-gcc-9.2.0.0/gcc_fix_raissrc/bin/../lib/gcc/riscv-nuclei-elf/9.2.0/rv32imafc/ilp32f\libgcc.a(truncdfsf2.o)
 .riscv.attributes
                0x000000000000035a       0x30 d:/software/yuyin/qiqiyinqiluntai/riscv-nuclei-elf-gcc-9.2.0.0/gcc_fix_raissrc/bin/../lib/gcc/riscv-nuclei-elf/9.2.0/rv32imafc/ilp32f\libgcc.a(_clzsi2.o)
 .riscv.attributes
                0x000000000000038a       0x30 d:/software/yuyin/qiqiyinqiluntai/riscv-nuclei-elf-gcc-9.2.0.0/gcc_fix_raissrc/bin/../lib/gcc/riscv-nuclei-elf/9.2.0/rv32imafc/ilp32f\libgcc.a(_clz.o)
 .riscv.attributes
                0x00000000000003ba       0x30 d:/software/yuyin/qiqiyinqiluntai/riscv-nuclei-elf-gcc-9.2.0.0/gcc_fix_raissrc/bin/../lib/gcc/riscv-nuclei-elf/9.2.0/../../../../riscv-nuclei-elf/lib/rv32imafc/ilp32f\libg_nano.a(lib_a-atexit.o)
 .riscv.attributes
                0x00000000000003ea       0x30 d:/software/yuyin/qiqiyinqiluntai/riscv-nuclei-elf-gcc-9.2.0.0/gcc_fix_raissrc/bin/../lib/gcc/riscv-nuclei-elf/9.2.0/../../../../riscv-nuclei-elf/lib/rv32imafc/ilp32f\libg_nano.a(lib_a-exit.o)
 .riscv.attributes
                0x000000000000041a       0x30 d:/software/yuyin/qiqiyinqiluntai/riscv-nuclei-elf-gcc-9.2.0.0/gcc_fix_raissrc/bin/../lib/gcc/riscv-nuclei-elf/9.2.0/../../../../riscv-nuclei-elf/lib/rv32imafc/ilp32f\libg_nano.a(lib_a-fini.o)
 .riscv.attributes
                0x000000000000044a       0x30 d:/software/yuyin/qiqiyinqiluntai/riscv-nuclei-elf-gcc-9.2.0.0/gcc_fix_raissrc/bin/../lib/gcc/riscv-nuclei-elf/9.2.0/../../../../riscv-nuclei-elf/lib/rv32imafc/ilp32f\libg_nano.a(lib_a-impure.o)
 .riscv.attributes
                0x000000000000047a       0x30 d:/software/yuyin/qiqiyinqiluntai/riscv-nuclei-elf-gcc-9.2.0.0/gcc_fix_raissrc/bin/../lib/gcc/riscv-nuclei-elf/9.2.0/../../../../riscv-nuclei-elf/lib/rv32imafc/ilp32f\libg_nano.a(lib_a-init.o)
 .riscv.attributes
                0x00000000000004aa       0x30 d:/software/yuyin/qiqiyinqiluntai/riscv-nuclei-elf-gcc-9.2.0.0/gcc_fix_raissrc/bin/../lib/gcc/riscv-nuclei-elf/9.2.0/../../../../riscv-nuclei-elf/lib/rv32imafc/ilp32f\libg_nano.a(lib_a-__atexit.o)
 .riscv.attributes
                0x00000000000004da       0x30 d:/software/yuyin/qiqiyinqiluntai/riscv-nuclei-elf-gcc-9.2.0.0/gcc_fix_raissrc/bin/../lib/gcc/riscv-nuclei-elf/9.2.0/../../../../riscv-nuclei-elf/lib/rv32imafc/ilp32f\libg_nano.a(lib_a-__call_atexit.o)
 .riscv.attributes
                0x000000000000050a       0x30 d:/software/yuyin/qiqiyinqiluntai/riscv-nuclei-elf-gcc-9.2.0.0/gcc_fix_raissrc/bin/../lib/gcc/riscv-nuclei-elf/9.2.0/../../../../riscv-nuclei-elf/lib/rv32imafc/ilp32f\libg_nano.a(lib_a-calloc.o)
 .riscv.attributes
                0x000000000000053a       0x30 d:/software/yuyin/qiqiyinqiluntai/riscv-nuclei-elf-gcc-9.2.0.0/gcc_fix_raissrc/bin/../lib/gcc/riscv-nuclei-elf/9.2.0/../../../../riscv-nuclei-elf/lib/rv32imafc/ilp32f\libg_nano.a(lib_a-fprintf.o)
 .riscv.attributes
                0x000000000000056a       0x30 d:/software/yuyin/qiqiyinqiluntai/riscv-nuclei-elf-gcc-9.2.0.0/gcc_fix_raissrc/bin/../lib/gcc/riscv-nuclei-elf/9.2.0/../../../../riscv-nuclei-elf/lib/rv32imafc/ilp32f\libg_nano.a(lib_a-nano-callocr.o)
 .riscv.attributes
                0x000000000000059a       0x30 d:/software/yuyin/qiqiyinqiluntai/riscv-nuclei-elf-gcc-9.2.0.0/gcc_fix_raissrc/bin/../lib/gcc/riscv-nuclei-elf/9.2.0/../../../../riscv-nuclei-elf/lib/rv32imafc/ilp32f\libg_nano.a(lib_a-nano-mallocr.o)
 .riscv.attributes
                0x00000000000005ca       0x30 d:/software/yuyin/qiqiyinqiluntai/riscv-nuclei-elf-gcc-9.2.0.0/gcc_fix_raissrc/bin/../lib/gcc/riscv-nuclei-elf/9.2.0/../../../../riscv-nuclei-elf/lib/rv32imafc/ilp32f\libg_nano.a(lib_a-nano-vfprintf.o)
 .riscv.attributes
                0x00000000000005fa       0x30 d:/software/yuyin/qiqiyinqiluntai/riscv-nuclei-elf-gcc-9.2.0.0/gcc_fix_raissrc/bin/../lib/gcc/riscv-nuclei-elf/9.2.0/../../../../riscv-nuclei-elf/lib/rv32imafc/ilp32f\libg_nano.a(lib_a-realloc.o)
 .riscv.attributes
                0x000000000000062a       0x30 d:/software/yuyin/qiqiyinqiluntai/riscv-nuclei-elf-gcc-9.2.0.0/gcc_fix_raissrc/bin/../lib/gcc/riscv-nuclei-elf/9.2.0/../../../../riscv-nuclei-elf/lib/rv32imafc/ilp32f\libg_nano.a(lib_a-sbrkr.o)
 .riscv.attributes
                0x000000000000065a       0x30 d:/software/yuyin/qiqiyinqiluntai/riscv-nuclei-elf-gcc-9.2.0.0/gcc_fix_raissrc/bin/../lib/gcc/riscv-nuclei-elf/9.2.0/../../../../riscv-nuclei-elf/lib/rv32imafc/ilp32f\libg_nano.a(lib_a-wbuf.o)
 .riscv.attributes
                0x000000000000068a       0x30 d:/software/yuyin/qiqiyinqiluntai/riscv-nuclei-elf-gcc-9.2.0.0/gcc_fix_raissrc/bin/../lib/gcc/riscv-nuclei-elf/9.2.0/../../../../riscv-nuclei-elf/lib/rv32imafc/ilp32f\libg_nano.a(lib_a-wsetup.o)
 .riscv.attributes
                0x00000000000006ba       0x30 d:/software/yuyin/qiqiyinqiluntai/riscv-nuclei-elf-gcc-9.2.0.0/gcc_fix_raissrc/bin/../lib/gcc/riscv-nuclei-elf/9.2.0/../../../../riscv-nuclei-elf/lib/rv32imafc/ilp32f\libg_nano.a(lib_a-fflush.o)
 .riscv.attributes
                0x00000000000006ea       0x30 d:/software/yuyin/qiqiyinqiluntai/riscv-nuclei-elf-gcc-9.2.0.0/gcc_fix_raissrc/bin/../lib/gcc/riscv-nuclei-elf/9.2.0/../../../../riscv-nuclei-elf/lib/rv32imafc/ilp32f\libg_nano.a(lib_a-findfp.o)
 .riscv.attributes
                0x000000000000071a       0x30 d:/software/yuyin/qiqiyinqiluntai/riscv-nuclei-elf-gcc-9.2.0.0/gcc_fix_raissrc/bin/../lib/gcc/riscv-nuclei-elf/9.2.0/../../../../riscv-nuclei-elf/lib/rv32imafc/ilp32f\libg_nano.a(lib_a-fwalk.o)
 .riscv.attributes
                0x000000000000074a       0x30 d:/software/yuyin/qiqiyinqiluntai/riscv-nuclei-elf-gcc-9.2.0.0/gcc_fix_raissrc/bin/../lib/gcc/riscv-nuclei-elf/9.2.0/../../../../riscv-nuclei-elf/lib/rv32imafc/ilp32f\libg_nano.a(lib_a-makebuf.o)
 .riscv.attributes
                0x000000000000077a       0x30 d:/software/yuyin/qiqiyinqiluntai/riscv-nuclei-elf-gcc-9.2.0.0/gcc_fix_raissrc/bin/../lib/gcc/riscv-nuclei-elf/9.2.0/../../../../riscv-nuclei-elf/lib/rv32imafc/ilp32f\libg_nano.a(lib_a-memchr.o)
 .riscv.attributes
                0x00000000000007aa       0x30 d:/software/yuyin/qiqiyinqiluntai/riscv-nuclei-elf-gcc-9.2.0.0/gcc_fix_raissrc/bin/../lib/gcc/riscv-nuclei-elf/9.2.0/../../../../riscv-nuclei-elf/lib/rv32imafc/ilp32f\libg_nano.a(lib_a-nano-freer.o)
 .riscv.attributes
                0x00000000000007da       0x30 d:/software/yuyin/qiqiyinqiluntai/riscv-nuclei-elf-gcc-9.2.0.0/gcc_fix_raissrc/bin/../lib/gcc/riscv-nuclei-elf/9.2.0/../../../../riscv-nuclei-elf/lib/rv32imafc/ilp32f\libg_nano.a(lib_a-nano-reallocr.o)
 .riscv.attributes
                0x000000000000080a       0x30 d:/software/yuyin/qiqiyinqiluntai/riscv-nuclei-elf-gcc-9.2.0.0/gcc_fix_raissrc/bin/../lib/gcc/riscv-nuclei-elf/9.2.0/../../../../riscv-nuclei-elf/lib/rv32imafc/ilp32f\libg_nano.a(lib_a-nano-vfprintf_i.o)
 .riscv.attributes
                0x000000000000083a       0x30 d:/software/yuyin/qiqiyinqiluntai/riscv-nuclei-elf-gcc-9.2.0.0/gcc_fix_raissrc/bin/../lib/gcc/riscv-nuclei-elf/9.2.0/../../../../riscv-nuclei-elf/lib/rv32imafc/ilp32f\libg_nano.a(lib_a-reent.o)
 .riscv.attributes
                0x000000000000086a       0x30 d:/software/yuyin/qiqiyinqiluntai/riscv-nuclei-elf-gcc-9.2.0.0/gcc_fix_raissrc/bin/../lib/gcc/riscv-nuclei-elf/9.2.0/../../../../riscv-nuclei-elf/lib/rv32imafc/ilp32f\libg_nano.a(lib_a-stdio.o)
 .riscv.attributes
                0x000000000000089a       0x30 d:/software/yuyin/qiqiyinqiluntai/riscv-nuclei-elf-gcc-9.2.0.0/gcc_fix_raissrc/bin/../lib/gcc/riscv-nuclei-elf/9.2.0/../../../../riscv-nuclei-elf/lib/rv32imafc/ilp32f\libg_nano.a(lib_a-writer.o)
 .riscv.attributes
                0x00000000000008ca       0x30 d:/software/yuyin/qiqiyinqiluntai/riscv-nuclei-elf-gcc-9.2.0.0/gcc_fix_raissrc/bin/../lib/gcc/riscv-nuclei-elf/9.2.0/../../../../riscv-nuclei-elf/lib/rv32imafc/ilp32f\libg_nano.a(lib_a-closer.o)
 .riscv.attributes
                0x00000000000008fa       0x30 d:/software/yuyin/qiqiyinqiluntai/riscv-nuclei-elf-gcc-9.2.0.0/gcc_fix_raissrc/bin/../lib/gcc/riscv-nuclei-elf/9.2.0/../../../../riscv-nuclei-elf/lib/rv32imafc/ilp32f\libg_nano.a(lib_a-fstatr.o)
 .riscv.attributes
                0x000000000000092a       0x30 d:/software/yuyin/qiqiyinqiluntai/riscv-nuclei-elf-gcc-9.2.0.0/gcc_fix_raissrc/bin/../lib/gcc/riscv-nuclei-elf/9.2.0/../../../../riscv-nuclei-elf/lib/rv32imafc/ilp32f\libg_nano.a(lib_a-isattyr.o)
 .riscv.attributes
                0x000000000000095a       0x30 d:/software/yuyin/qiqiyinqiluntai/riscv-nuclei-elf-gcc-9.2.0.0/gcc_fix_raissrc/bin/../lib/gcc/riscv-nuclei-elf/9.2.0/../../../../riscv-nuclei-elf/lib/rv32imafc/ilp32f\libg_nano.a(lib_a-lseekr.o)
 .riscv.attributes
                0x000000000000098a       0x30 d:/software/yuyin/qiqiyinqiluntai/riscv-nuclei-elf-gcc-9.2.0.0/gcc_fix_raissrc/bin/../lib/gcc/riscv-nuclei-elf/9.2.0/../../../../riscv-nuclei-elf/lib/rv32imafc/ilp32f\libg_nano.a(lib_a-nano-msizer.o)
 .riscv.attributes
                0x00000000000009ba       0x30 d:/software/yuyin/qiqiyinqiluntai/riscv-nuclei-elf-gcc-9.2.0.0/gcc_fix_raissrc/bin/../lib/gcc/riscv-nuclei-elf/9.2.0/../../../../riscv-nuclei-elf/lib/rv32imafc/ilp32f\libg_nano.a(lib_a-readr.o)
 .riscv.attributes
                0x00000000000009ea       0x30 d:/software/yuyin/qiqiyinqiluntai/riscv-nuclei-elf-gcc-9.2.0.0/gcc_fix_raissrc/bin/../lib/gcc/riscv-nuclei-elf/9.2.0/../../../../riscv-nuclei-elf/lib/rv32imafc/ilp32f\libgloss_nano.a(sys_exit.o)
 .riscv.attributes
                0x0000000000000a1a       0x30 d:/software/yuyin/qiqiyinqiluntai/riscv-nuclei-elf-gcc-9.2.0.0/gcc_fix_raissrc/bin/../lib/gcc/riscv-nuclei-elf/9.2.0/../../../../riscv-nuclei-elf/lib/rv32imafc/ilp32f\libgloss_nano.a(sys_close.o)
 .riscv.attributes
                0x0000000000000a4a       0x30 d:/software/yuyin/qiqiyinqiluntai/riscv-nuclei-elf-gcc-9.2.0.0/gcc_fix_raissrc/bin/../lib/gcc/riscv-nuclei-elf/9.2.0/../../../../riscv-nuclei-elf/lib/rv32imafc/ilp32f\libgloss_nano.a(sys_fstat.o)
 .riscv.attributes
                0x0000000000000a7a       0x30 d:/software/yuyin/qiqiyinqiluntai/riscv-nuclei-elf-gcc-9.2.0.0/gcc_fix_raissrc/bin/../lib/gcc/riscv-nuclei-elf/9.2.0/../../../../riscv-nuclei-elf/lib/rv32imafc/ilp32f\libgloss_nano.a(sys_isatty.o)
 .riscv.attributes
                0x0000000000000aaa       0x30 d:/software/yuyin/qiqiyinqiluntai/riscv-nuclei-elf-gcc-9.2.0.0/gcc_fix_raissrc/bin/../lib/gcc/riscv-nuclei-elf/9.2.0/../../../../riscv-nuclei-elf/lib/rv32imafc/ilp32f\libgloss_nano.a(sys_lseek.o)
 .riscv.attributes
                0x0000000000000ada       0x30 d:/software/yuyin/qiqiyinqiluntai/riscv-nuclei-elf-gcc-9.2.0.0/gcc_fix_raissrc/bin/../lib/gcc/riscv-nuclei-elf/9.2.0/../../../../riscv-nuclei-elf/lib/rv32imafc/ilp32f\libgloss_nano.a(sys_read.o)
 .riscv.attributes
                0x0000000000000b0a       0x30 d:/software/yuyin/qiqiyinqiluntai/riscv-nuclei-elf-gcc-9.2.0.0/gcc_fix_raissrc/bin/../lib/gcc/riscv-nuclei-elf/9.2.0/../../../../riscv-nuclei-elf/lib/rv32imafc/ilp32f\libgloss_nano.a(sys_write.o)
 .riscv.attributes
                0x0000000000000b3a       0x30 d:/software/yuyin/qiqiyinqiluntai/riscv-nuclei-elf-gcc-9.2.0.0/gcc_fix_raissrc/bin/../lib/gcc/riscv-nuclei-elf/9.2.0/../../../../riscv-nuclei-elf/lib/rv32imafc/ilp32f\libgloss_nano.a(sys_conv_stat.o)
 .riscv.attributes
                0x0000000000000b6a       0x30 d:/software/yuyin/qiqiyinqiluntai/riscv-nuclei-elf-gcc-9.2.0.0/gcc_fix_raissrc/bin/../lib/gcc/riscv-nuclei-elf/9.2.0/../../../../riscv-nuclei-elf/lib/rv32imafc/ilp32f\libc_nano.a(lib_a-errno.o)
 .riscv.attributes
                0x0000000000000b9a       0x30 d:/software/yuyin/qiqiyinqiluntai/riscv-nuclei-elf-gcc-9.2.0.0/gcc_fix_raissrc/bin/../lib/gcc/riscv-nuclei-elf/9.2.0/../../../../riscv-nuclei-elf/lib/rv32imafc/ilp32f\libm.a(lib_a-s_floor.o)
 .riscv.attributes
                0x0000000000000bca       0x30 d:/software/yuyin/qiqiyinqiluntai/riscv-nuclei-elf-gcc-9.2.0.0/gcc_fix_raissrc/bin/../lib/gcc/riscv-nuclei-elf/9.2.0/../../../../riscv-nuclei-elf/lib/rv32imafc/ilp32f\libm.a(lib_a-w_acos.o)
 .riscv.attributes
                0x0000000000000bfa       0x30 d:/software/yuyin/qiqiyinqiluntai/riscv-nuclei-elf-gcc-9.2.0.0/gcc_fix_raissrc/bin/../lib/gcc/riscv-nuclei-elf/9.2.0/../../../../riscv-nuclei-elf/lib/rv32imafc/ilp32f\libm.a(lib_a-w_exp.o)
 .riscv.attributes
                0x0000000000000c2a       0x30 d:/software/yuyin/qiqiyinqiluntai/riscv-nuclei-elf-gcc-9.2.0.0/gcc_fix_raissrc/bin/../lib/gcc/riscv-nuclei-elf/9.2.0/../../../../riscv-nuclei-elf/lib/rv32imafc/ilp32f\libm.a(lib_a-wf_pow.o)
 .riscv.attributes
                0x0000000000000c5a       0x30 d:/software/yuyin/qiqiyinqiluntai/riscv-nuclei-elf-gcc-9.2.0.0/gcc_fix_raissrc/bin/../lib/gcc/riscv-nuclei-elf/9.2.0/../../../../riscv-nuclei-elf/lib/rv32imafc/ilp32f\libm.a(lib_a-w_log.o)
 .riscv.attributes
                0x0000000000000c8a       0x30 d:/software/yuyin/qiqiyinqiluntai/riscv-nuclei-elf-gcc-9.2.0.0/gcc_fix_raissrc/bin/../lib/gcc/riscv-nuclei-elf/9.2.0/../../../../riscv-nuclei-elf/lib/rv32imafc/ilp32f\libm.a(lib_a-w_sqrt.o)
 .riscv.attributes
                0x0000000000000cba       0x30 d:/software/yuyin/qiqiyinqiluntai/riscv-nuclei-elf-gcc-9.2.0.0/gcc_fix_raissrc/bin/../lib/gcc/riscv-nuclei-elf/9.2.0/../../../../riscv-nuclei-elf/lib/rv32imafc/ilp32f\libm.a(lib_a-e_acos.o)
 .riscv.attributes
                0x0000000000000cea       0x30 d:/software/yuyin/qiqiyinqiluntai/riscv-nuclei-elf-gcc-9.2.0.0/gcc_fix_raissrc/bin/../lib/gcc/riscv-nuclei-elf/9.2.0/../../../../riscv-nuclei-elf/lib/rv32imafc/ilp32f\libm.a(lib_a-e_exp.o)
 .riscv.attributes
                0x0000000000000d1a       0x30 d:/software/yuyin/qiqiyinqiluntai/riscv-nuclei-elf-gcc-9.2.0.0/gcc_fix_raissrc/bin/../lib/gcc/riscv-nuclei-elf/9.2.0/../../../../riscv-nuclei-elf/lib/rv32imafc/ilp32f\libm.a(lib_a-ef_pow.o)
 .riscv.attributes
                0x0000000000000d4a       0x30 d:/software/yuyin/qiqiyinqiluntai/riscv-nuclei-elf-gcc-9.2.0.0/gcc_fix_raissrc/bin/../lib/gcc/riscv-nuclei-elf/9.2.0/../../../../riscv-nuclei-elf/lib/rv32imafc/ilp32f\libm.a(lib_a-ef_sqrt.o)
 .riscv.attributes
                0x0000000000000d7a       0x30 d:/software/yuyin/qiqiyinqiluntai/riscv-nuclei-elf-gcc-9.2.0.0/gcc_fix_raissrc/bin/../lib/gcc/riscv-nuclei-elf/9.2.0/../../../../riscv-nuclei-elf/lib/rv32imafc/ilp32f\libm.a(lib_a-e_log.o)
 .riscv.attributes
                0x0000000000000daa       0x30 d:/software/yuyin/qiqiyinqiluntai/riscv-nuclei-elf-gcc-9.2.0.0/gcc_fix_raissrc/bin/../lib/gcc/riscv-nuclei-elf/9.2.0/../../../../riscv-nuclei-elf/lib/rv32imafc/ilp32f\libm.a(lib_a-e_sqrt.o)
 .riscv.attributes
                0x0000000000000dda       0x30 d:/software/yuyin/qiqiyinqiluntai/riscv-nuclei-elf-gcc-9.2.0.0/gcc_fix_raissrc/bin/../lib/gcc/riscv-nuclei-elf/9.2.0/../../../../riscv-nuclei-elf/lib/rv32imafc/ilp32f\libm.a(lib_a-s_fabs.o)
 .riscv.attributes
                0x0000000000000e0a       0x30 d:/software/yuyin/qiqiyinqiluntai/riscv-nuclei-elf-gcc-9.2.0.0/gcc_fix_raissrc/bin/../lib/gcc/riscv-nuclei-elf/9.2.0/../../../../riscv-nuclei-elf/lib/rv32imafc/ilp32f\libm.a(lib_a-sf_finite.o)
 .riscv.attributes
                0x0000000000000e3a       0x30 d:/software/yuyin/qiqiyinqiluntai/riscv-nuclei-elf-gcc-9.2.0.0/gcc_fix_raissrc/bin/../lib/gcc/riscv-nuclei-elf/9.2.0/../../../../riscv-nuclei-elf/lib/rv32imafc/ilp32f\libm.a(lib_a-s_finite.o)
 .riscv.attributes
                0x0000000000000e6a       0x30 d:/software/yuyin/qiqiyinqiluntai/riscv-nuclei-elf-gcc-9.2.0.0/gcc_fix_raissrc/bin/../lib/gcc/riscv-nuclei-elf/9.2.0/../../../../riscv-nuclei-elf/lib/rv32imafc/ilp32f\libm.a(lib_a-sf_nan.o)
 .riscv.attributes
                0x0000000000000e9a       0x30 d:/software/yuyin/qiqiyinqiluntai/riscv-nuclei-elf-gcc-9.2.0.0/gcc_fix_raissrc/bin/../lib/gcc/riscv-nuclei-elf/9.2.0/../../../../riscv-nuclei-elf/lib/rv32imafc/ilp32f\libm.a(lib_a-sf_rint.o)
 .riscv.attributes
                0x0000000000000eca       0x30 d:/software/yuyin/qiqiyinqiluntai/riscv-nuclei-elf-gcc-9.2.0.0/gcc_fix_raissrc/bin/../lib/gcc/riscv-nuclei-elf/9.2.0/../../../../riscv-nuclei-elf/lib/rv32imafc/ilp32f\libm.a(lib_a-sf_scalbn.o)
 .riscv.attributes
                0x0000000000000efa       0x30 d:/software/yuyin/qiqiyinqiluntai/riscv-nuclei-elf-gcc-9.2.0.0/gcc_fix_raissrc/bin/../lib/gcc/riscv-nuclei-elf/9.2.0/../../../../riscv-nuclei-elf/lib/rv32imafc/ilp32f\libm.a(lib_a-s_lib_ver.o)
 .riscv.attributes
                0x0000000000000f2a       0x30 d:/software/yuyin/qiqiyinqiluntai/riscv-nuclei-elf-gcc-9.2.0.0/gcc_fix_raissrc/bin/../lib/gcc/riscv-nuclei-elf/9.2.0/../../../../riscv-nuclei-elf/lib/rv32imafc/ilp32f\libm.a(lib_a-s_matherr.o)
 .riscv.attributes
                0x0000000000000f5a       0x30 d:/software/yuyin/qiqiyinqiluntai/riscv-nuclei-elf-gcc-9.2.0.0/gcc_fix_raissrc/bin/../lib/gcc/riscv-nuclei-elf/9.2.0/../../../../riscv-nuclei-elf/lib/rv32imafc/ilp32f\libm.a(lib_a-s_nan.o)
 .riscv.attributes
                0x0000000000000f8a       0x30 d:/software/yuyin/qiqiyinqiluntai/riscv-nuclei-elf-gcc-9.2.0.0/gcc_fix_raissrc/bin/../lib/gcc/riscv-nuclei-elf/9.2.0/../../../../riscv-nuclei-elf/lib/rv32imafc/ilp32f\libm.a(lib_a-sf_copysign.o)

.debug_frame    0x0000000000000000     0x3198
 .debug_frame   0x0000000000000000     0x1940 C:\TMP\nn_denoise_rtc_sample.elf.zkP8Mf.ltrans0.ltrans.o
 .debug_frame   0x0000000000001940     0x1108 C:\TMP\nn_denoise_rtc_sample.elf.zkP8Mf.ltrans1.ltrans.o
 .debug_frame   0x0000000000002a48      0x4c4 ../../../libs\libnewlib_port.a(sbrk.o)
 .debug_frame   0x0000000000002f0c       0x44 d:/software/yuyin/qiqiyinqiluntai/riscv-nuclei-elf-gcc-9.2.0.0/gcc_fix_raissrc/bin/../lib/gcc/riscv-nuclei-elf/9.2.0/rv32imafc/ilp32f\libgcc.a(adddf3.o)
 .debug_frame   0x0000000000002f50       0x58 d:/software/yuyin/qiqiyinqiluntai/riscv-nuclei-elf-gcc-9.2.0.0/gcc_fix_raissrc/bin/../lib/gcc/riscv-nuclei-elf/9.2.0/rv32imafc/ilp32f\libgcc.a(divdf3.o)
 .debug_frame   0x0000000000002fa8       0x20 d:/software/yuyin/qiqiyinqiluntai/riscv-nuclei-elf-gcc-9.2.0.0/gcc_fix_raissrc/bin/../lib/gcc/riscv-nuclei-elf/9.2.0/rv32imafc/ilp32f\libgcc.a(eqdf2.o)
 .debug_frame   0x0000000000002fc8       0x20 d:/software/yuyin/qiqiyinqiluntai/riscv-nuclei-elf-gcc-9.2.0.0/gcc_fix_raissrc/bin/../lib/gcc/riscv-nuclei-elf/9.2.0/rv32imafc/ilp32f\libgcc.a(gedf2.o)
 .debug_frame   0x0000000000002fe8       0x20 d:/software/yuyin/qiqiyinqiluntai/riscv-nuclei-elf-gcc-9.2.0.0/gcc_fix_raissrc/bin/../lib/gcc/riscv-nuclei-elf/9.2.0/rv32imafc/ilp32f\libgcc.a(ledf2.o)
 .debug_frame   0x0000000000003008       0x58 d:/software/yuyin/qiqiyinqiluntai/riscv-nuclei-elf-gcc-9.2.0.0/gcc_fix_raissrc/bin/../lib/gcc/riscv-nuclei-elf/9.2.0/rv32imafc/ilp32f\libgcc.a(muldf3.o)
 .debug_frame   0x0000000000003060       0x44 d:/software/yuyin/qiqiyinqiluntai/riscv-nuclei-elf-gcc-9.2.0.0/gcc_fix_raissrc/bin/../lib/gcc/riscv-nuclei-elf/9.2.0/rv32imafc/ilp32f\libgcc.a(subdf3.o)
 .debug_frame   0x00000000000030a4       0x20 d:/software/yuyin/qiqiyinqiluntai/riscv-nuclei-elf-gcc-9.2.0.0/gcc_fix_raissrc/bin/../lib/gcc/riscv-nuclei-elf/9.2.0/rv32imafc/ilp32f\libgcc.a(unorddf2.o)
 .debug_frame   0x00000000000030c4       0x20 d:/software/yuyin/qiqiyinqiluntai/riscv-nuclei-elf-gcc-9.2.0.0/gcc_fix_raissrc/bin/../lib/gcc/riscv-nuclei-elf/9.2.0/rv32imafc/ilp32f\libgcc.a(fixdfsi.o)
 .debug_frame   0x00000000000030e4       0x38 d:/software/yuyin/qiqiyinqiluntai/riscv-nuclei-elf-gcc-9.2.0.0/gcc_fix_raissrc/bin/../lib/gcc/riscv-nuclei-elf/9.2.0/rv32imafc/ilp32f\libgcc.a(floatsidf.o)
 .debug_frame   0x000000000000311c       0x3c d:/software/yuyin/qiqiyinqiluntai/riscv-nuclei-elf-gcc-9.2.0.0/gcc_fix_raissrc/bin/../lib/gcc/riscv-nuclei-elf/9.2.0/rv32imafc/ilp32f\libgcc.a(extendsfdf2.o)
 .debug_frame   0x0000000000003158       0x20 d:/software/yuyin/qiqiyinqiluntai/riscv-nuclei-elf-gcc-9.2.0.0/gcc_fix_raissrc/bin/../lib/gcc/riscv-nuclei-elf/9.2.0/rv32imafc/ilp32f\libgcc.a(truncdfsf2.o)
 .debug_frame   0x0000000000003178       0x20 d:/software/yuyin/qiqiyinqiluntai/riscv-nuclei-elf-gcc-9.2.0.0/gcc_fix_raissrc/bin/../lib/gcc/riscv-nuclei-elf/9.2.0/rv32imafc/ilp32f\libgcc.a(_clzsi2.o)
